TN:
SF:/home/runner/work/raccoon/raccoon/moose/framework/build/header_symlinks/MooseTypes.h
LF:0
LH:0
end_of_record
SF:/usr/share/miniconda/envs/moose/x86_64-conda-linux-gnu/include/c++/10.3.0/bits/char_traits.h
DA:329,111
DA:371,111
LF:2
LH:2
end_of_record
SF:/home/runner/work/raccoon/raccoon/moose/framework/build/header_symlinks/MooseInit.h
FN:27,_ZN9MooseInitD0Ev
FNDA:0,_ZN9MooseInitD0Ev
FN:27,_ZN9MooseInitD2Ev
FNDA:0,_ZN9MooseInitD2Ev
FNF:2
FNH:0
DA:27,0
DA:27,0
DA:27,37
LF:3
LH:1
end_of_record
SF:/usr/share/miniconda/envs/moose/x86_64-conda-linux-gnu/include/c++/10.3.0/bits/stl_function.h
DA:1156,14508200
LF:1
LH:1
end_of_record
SF:/home/runner/work/raccoon/raccoon/moose/framework/contrib/hit/parse.h
LF:0
LH:0
end_of_record
SF:/usr/share/miniconda/envs/moose/x86_64-conda-linux-gnu/include/c++/10.3.0/future
FN:328,_ZNSt13__future_base13_State_baseV2D0Ev
FNDA:0,_ZNSt13__future_base13_State_baseV2D0Ev
FN:328,_ZNSt13__future_base13_State_baseV2D2Ev
FNDA:0,_ZNSt13__future_base13_State_baseV2D2Ev
FN:581,_ZNSt13__future_base13_State_baseV217_M_complete_asyncEv
FNDA:0,_ZNSt13__future_base13_State_baseV217_M_complete_asyncEv
FN:584,_ZNKSt13__future_base13_State_baseV221_M_is_deferred_futureEv
FNDA:0,_ZNKSt13__future_base13_State_baseV221_M_is_deferred_futureEv
FN:663,_ZNSt13__future_base7_ResultIvE10_M_destroyEv
FNDA:0,_ZNSt13__future_base7_ResultIvE10_M_destroyEv
FNF:5
FNH:0
DA:213,0
DA:328,0
DA:328,0
DA:581,0
DA:584,0
DA:663,0
LF:6
LH:0
end_of_record
SF:/usr/share/miniconda/envs/moose/x86_64-conda-linux-gnu/include/c++/10.3.0/tuple
DA:129,0
DA:130,0
DA:166,0
DA:1689,0
DA:1693,0
LF:5
LH:0
end_of_record
SF:/usr/share/miniconda/envs/moose/x86_64-conda-linux-gnu/include/c++/10.3.0/iostream
LF:0
LH:0
end_of_record
SF:/usr/share/miniconda/envs/moose/x86_64-conda-linux-gnu/include/c++/10.3.0/bits/stl_pair.h
DA:211,0
LF:1
LH:0
end_of_record
SF:/usr/share/miniconda/envs/moose/x86_64-conda-linux-gnu/include/c++/10.3.0/bits/allocated_ptr.h
FN:70,_ZNSt15__allocated_ptrISaISt23_Sp_counted_ptr_inplaceINSt13__future_base13_State_baseV2ESaIS2_ELN9__gnu_cxx12_Lock_policyE2EEEED2Ev
FNDA:0,_ZNSt15__allocated_ptrISaISt23_Sp_counted_ptr_inplaceINSt13__future_base13_State_baseV2ESaIS2_ELN9__gnu_cxx12_Lock_policyE2EEEED2Ev
FN:70,_ZNSt15__allocated_ptrISaISt23_Sp_counted_ptr_inplaceISt5mutexSaIS1_ELN9__gnu_cxx12_Lock_policyE2EEEED2Ev
FNDA:0,_ZNSt15__allocated_ptrISaISt23_Sp_counted_ptr_inplaceISt5mutexSaIS1_ELN9__gnu_cxx12_Lock_policyE2EEEED2Ev
FNF:2
FNH:0
DA:52,0
DA:53,0
DA:70,0
DA:72,0
DA:74,0
DA:70,0
DA:72,0
DA:74,0
LF:8
LH:0
end_of_record
SF:/usr/share/miniconda/envs/moose/x86_64-conda-linux-gnu/include/c++/10.3.0/bits/alloc_traits.h
DA:492,0
LF:1
LH:0
end_of_record
SF:/usr/share/miniconda/envs/moose/x86_64-conda-linux-gnu/include/c++/10.3.0/bits/shared_ptr_base.h
FN:134,_ZNSt16_Sp_counted_baseILN9__gnu_cxx12_Lock_policyE2EE10_M_destroyEv
FNDA:0,_ZNSt16_Sp_counted_baseILN9__gnu_cxx12_Lock_policyE2EE10_M_destroyEv
FN:151,_ZNSt16_Sp_counted_baseILN9__gnu_cxx12_Lock_policyE2EE10_M_releaseEv
FNDA:37,_ZNSt16_Sp_counted_baseILN9__gnu_cxx12_Lock_policyE2EE10_M_releaseEv
FN:407,_ZNSt15_Sp_counted_ptrIDnLN9__gnu_cxx12_Lock_policyE2EE10_M_disposeEv
FNDA:0,_ZNSt15_Sp_counted_ptrIDnLN9__gnu_cxx12_Lock_policyE2EE10_M_disposeEv
FN:555,_ZNSt23_Sp_counted_ptr_inplaceISt5mutexSaIS0_ELN9__gnu_cxx12_Lock_policyE2EED0Ev
FNDA:0,_ZNSt23_Sp_counted_ptr_inplaceISt5mutexSaIS0_ELN9__gnu_cxx12_Lock_policyE2EED0Ev
FN:555,_ZNSt23_Sp_counted_ptr_inplaceISt5mutexSaIS0_ELN9__gnu_cxx12_Lock_policyE2EED2Ev
FNDA:0,_ZNSt23_Sp_counted_ptr_inplaceISt5mutexSaIS0_ELN9__gnu_cxx12_Lock_policyE2EED2Ev
FN:555,_ZNSt23_Sp_counted_ptr_inplaceINSt13__future_base13_State_baseV2ESaIS1_ELN9__gnu_cxx12_Lock_policyE2EED0Ev
FNDA:0,_ZNSt23_Sp_counted_ptr_inplaceINSt13__future_base13_State_baseV2ESaIS1_ELN9__gnu_cxx12_Lock_policyE2EED0Ev
FN:555,_ZNSt23_Sp_counted_ptr_inplaceINSt13__future_base13_State_baseV2ESaIS1_ELN9__gnu_cxx12_Lock_policyE2EED2Ev
FNDA:0,_ZNSt23_Sp_counted_ptr_inplaceINSt13__future_base13_State_baseV2ESaIS1_ELN9__gnu_cxx12_Lock_policyE2EED2Ev
FN:558,_ZNSt23_Sp_counted_ptr_inplaceISt5mutexSaIS0_ELN9__gnu_cxx12_Lock_policyE2EE10_M_disposeEv
FNDA:0,_ZNSt23_Sp_counted_ptr_inplaceISt5mutexSaIS0_ELN9__gnu_cxx12_Lock_policyE2EE10_M_disposeEv
FN:558,_ZNSt23_Sp_counted_ptr_inplaceINSt13__future_base13_State_baseV2ESaIS1_ELN9__gnu_cxx12_Lock_policyE2EE10_M_disposeEv
FNDA:0,_ZNSt23_Sp_counted_ptr_inplaceINSt13__future_base13_State_baseV2ESaIS1_ELN9__gnu_cxx12_Lock_policyE2EE10_M_disposeEv
FN:565,_ZNSt23_Sp_counted_ptr_inplaceISt5mutexSaIS0_ELN9__gnu_cxx12_Lock_policyE2EE10_M_destroyEv
FNDA:0,_ZNSt23_Sp_counted_ptr_inplaceISt5mutexSaIS0_ELN9__gnu_cxx12_Lock_policyE2EE10_M_destroyEv
FN:565,_ZNSt23_Sp_counted_ptr_inplaceINSt13__future_base13_State_baseV2ESaIS1_ELN9__gnu_cxx12_Lock_policyE2EE10_M_destroyEv
FNDA:0,_ZNSt23_Sp_counted_ptr_inplaceINSt13__future_base13_State_baseV2ESaIS1_ELN9__gnu_cxx12_Lock_policyE2EE10_M_destroyEv
FNF:11
FNH:1
DA:134,0
DA:135,0
DA:151,37
DA:155,74
DA:158,37
DA:170,74
DA:174,37
DA:177,37
DA:407,0
DA:555,0
DA:555,0
DA:555,0
DA:555,0
DA:555,0
DA:558,0
DA:561,0
DA:558,0
DA:561,0
DA:565,0
DA:568,0
DA:570,0
DA:565,0
DA:568,0
DA:570,0
DA:732,37
DA:733,37
DA:1325,37
LF:27
LH:9
end_of_record
SF:/usr/share/miniconda/envs/moose/x86_64-conda-linux-gnu/include/c++/10.3.0/bits/basic_string.tcc
FN:206,_ZNSt7__cxx1112basic_stringIcSt11char_traitsIcESaIcEE12_M_constructIPcEEvT_S7_St20forward_iterator_tag
FNDA:0,_ZNSt7__cxx1112basic_stringIcSt11char_traitsIcESaIcEE12_M_constructIPcEEvT_S7_St20forward_iterator_tag
FN:206,_ZNSt7__cxx1112basic_stringIcSt11char_traitsIcESaIcEE12_M_constructIPKcEEvT_S8_St20forward_iterator_tag
FNDA:111,_ZNSt7__cxx1112basic_stringIcSt11char_traitsIcESaIcEE12_M_constructIPKcEEvT_S8_St20forward_iterator_tag
FNF:2
FNH:1
DA:206,0
DA:211,0
DA:212,0
DA:215,0
DA:217,0
DA:219,0
DA:220,0
DA:232,0
DA:233,0
DA:206,111
DA:211,111
DA:212,0
DA:215,111
DA:217,111
DA:219,0
DA:220,0
DA:232,111
DA:233,111
LF:18
LH:6
end_of_record
SF:/usr/share/miniconda/envs/moose/x86_64-conda-linux-gnu/include/c++/10.3.0/bits/stl_set.h
FN:281,_ZNSt3setIsSt4lessIsESaIsEED2Ev
FNDA:37,_ZNSt3setIsSt4lessIsESaIsEED2Ev
FN:281,_ZNSt3setItSt4lessItESaItEED2Ev
FNDA:37,_ZNSt3setItSt4lessItESaItEED2Ev
FNF:2
FNH:2
DA:281,37
DA:281,37
LF:2
LH:2
end_of_record
SF:/usr/share/miniconda/envs/moose/x86_64-conda-linux-gnu/include/c++/10.3.0/ext/atomicity.h
DA:50,74
DA:68,0
DA:69,0
DA:83,74
DA:84,74
DA:86,0
LF:6
LH:3
end_of_record
SF:/usr/share/miniconda/envs/moose/libmesh/include/libmesh/parameters.h
FN:132,_ZN7libMesh10Parameters14set_attributesERKNSt7__cxx1112basic_stringIcSt11char_traitsIcESaIcEEEb
FNDA:1124,_ZN7libMesh10Parameters14set_attributesERKNSt7__cxx1112basic_stringIcSt11char_traitsIcESaIcEEEb
FN:316,_ZN7libMesh10Parameters5clearEv
FNDA:0,_ZN7libMesh10Parameters5clearEv
FN:332,_ZN7libMesh10ParametersaSERKS0_
FNDA:0,_ZN7libMesh10ParametersaSERKS0_
FN:341,_ZN7libMesh10ParameterspLERKS0_
FNDA:0,_ZN7libMesh10ParameterspLERKS0_
FN:362,_ZN7libMesh10ParametersD0Ev
FNDA:0,_ZN7libMesh10ParametersD0Ev
FN:362,_ZN7libMesh10ParametersD2Ev
FNDA:0,_ZN7libMesh10ParametersD2Ev
FNF:6
FNH:1
DA:132,1124
DA:316,0
DA:318,0
DA:322,0
DA:323,0
DA:325,0
DA:327,0
DA:332,0
DA:334,0
DA:335,0
DA:337,0
DA:341,0
DA:343,0
DA:345,0
DA:346,0
DA:347,0
DA:350,0
DA:362,0
DA:365,0
DA:362,0
DA:364,0
DA:365,0
LF:22
LH:1
end_of_record
SF:/usr/share/miniconda/envs/moose/x86_64-conda-linux-gnu/include/c++/10.3.0/bits/stl_map.h
FN:492,_ZNSt3mapINSt7__cxx1112basic_stringIcSt11char_traitsIcESaIcEEEPN7libMesh10Parameters5ValueESt4lessIS5_ESaISt4pairIKS5_S9_EEEixERSD_
FNDA:0,_ZNSt3mapINSt7__cxx1112basic_stringIcSt11char_traitsIcESaIcEEEPN7libMesh10Parameters5ValueESt4lessIS5_ESaISt4pairIKS5_S9_EEEixERSD_
FN:1258,_ZNSt3mapINSt7__cxx1112basic_stringIcSt11char_traitsIcESaIcEEEPN7libMesh10Parameters5ValueESt4lessIS5_ESaISt4pairIKS5_S9_EEE11lower_boundERSD_
FNDA:0,_ZNSt3mapINSt7__cxx1112basic_stringIcSt11char_traitsIcESaIcEEEPN7libMesh10Parameters5ValueESt4lessIS5_ESaISt4pairIKS5_S9_EEE11lower_boundERSD_
FNF:2
FNH:0
DA:302,0
DA:492,0
DA:497,0
DA:499,0
DA:501,0
DA:502,0
DA:503,0
DA:507,0
DA:1038,0
DA:1170,0
DA:1258,0
DA:1259,0
LF:12
LH:0
end_of_record
SF:/usr/share/miniconda/envs/moose/x86_64-conda-linux-gnu/include/c++/10.3.0/bits/unique_ptr.h
FN:355,_ZNSt10unique_ptrINSt13__future_base12_Result_baseENS1_8_DeleterEED2Ev
FNDA:0,_ZNSt10unique_ptrINSt13__future_base12_Result_baseENS1_8_DeleterEED2Ev
FNF:1
FNH:0
DA:355,0
DA:360,0
DA:363,0
LF:3
LH:0
end_of_record
SF:/usr/share/miniconda/envs/moose/x86_64-conda-linux-gnu/include/c++/10.3.0/ext/new_allocator.h
DA:115,0
DA:133,0
DA:156,0
LF:3
LH:0
end_of_record
SF:/usr/share/miniconda/envs/moose/x86_64-conda-linux-gnu/include/c++/10.3.0/bits/stl_tree.h
FN:613,_ZNSt8_Rb_treeINSt7__cxx1112basic_stringIcSt11char_traitsIcESaIcEEESt4pairIKS5_PN7libMesh10Parameters5ValueEESt10_Select1stISC_ESt4lessIS5_ESaISC_EE17_M_construct_nodeIJRKSt21piecewise_construct_tSt5tupleIJRS7_EESN_IJEEEEEvPSt13_Rb_tree_nodeISC_EDpOT_
FNDA:0,_ZNSt8_Rb_treeINSt7__cxx1112basic_stringIcSt11char_traitsIcESaIcEEESt4pairIKS5_PN7libMesh10Parameters5ValueEESt10_Select1stISC_ESt4lessIS5_ESaISC_EE17_M_construct_nodeIJRKSt21piecewise_construct_tSt5tupleIJRS7_EESN_IJEEEEEvPSt13_Rb_tree_nodeISC_EDpOT_
FN:632,_ZNSt8_Rb_treeINSt7__cxx1112basic_stringIcSt11char_traitsIcESaIcEEESt4pairIKS5_PN7libMesh10Parameters5ValueEESt10_Select1stISC_ESt4lessIS5_ESaISC_EE14_M_create_nodeIJRKSt21piecewise_construct_tSt5tupleIJRS7_EESN_IJEEEEEPSt13_Rb_tree_nodeISC_EDpOT_
FNDA:0,_ZNSt8_Rb_treeINSt7__cxx1112basic_stringIcSt11char_traitsIcESaIcEEESt4pairIKS5_PN7libMesh10Parameters5ValueEESt10_Select1stISC_ESt4lessIS5_ESaISC_EE14_M_create_nodeIJRKSt21piecewise_construct_tSt5tupleIJRS7_EESN_IJEEEEEPSt13_Rb_tree_nodeISC_EDpOT_
FN:1211,_ZNSt8_Rb_treeINSt7__cxx1112basic_stringIcSt11char_traitsIcESaIcEEESt4pairIKS5_PN7libMesh10Parameters5ValueEESt10_Select1stISC_ESt4lessIS5_ESaISC_EE5eraseB5cxx11ESt17_Rb_tree_iteratorISC_E
FNDA:0,_ZNSt8_Rb_treeINSt7__cxx1112basic_stringIcSt11char_traitsIcESaIcEEESt4pairIKS5_PN7libMesh10Parameters5ValueEESt10_Select1stISC_ESt4lessIS5_ESaISC_EE5eraseB5cxx11ESt17_Rb_tree_iteratorISC_E
FN:1913,_ZNSt8_Rb_treeIssSt9_IdentityIsESt4lessIsESaIsEE8_M_eraseEPSt13_Rb_tree_nodeIsE
FNDA:37,_ZNSt8_Rb_treeIssSt9_IdentityIsESt4lessIsESaIsEE8_M_eraseEPSt13_Rb_tree_nodeIsE
FN:1913,_ZNSt8_Rb_treeIttSt9_IdentityItESt4lessItESaItEE8_M_eraseEPSt13_Rb_tree_nodeItE
FNDA:37,_ZNSt8_Rb_treeIttSt9_IdentityItESt4lessItESaItEE8_M_eraseEPSt13_Rb_tree_nodeItE
FN:1913,_ZNSt8_Rb_treeINSt7__cxx1112basic_stringIcSt11char_traitsIcESaIcEEESt4pairIKS5_PN7libMesh10Parameters5ValueEESt10_Select1stISC_ESt4lessIS5_ESaISC_EE8_M_eraseEPSt13_Rb_tree_nodeISC_E
FNDA:0,_ZNSt8_Rb_treeINSt7__cxx1112basic_stringIcSt11char_traitsIcESaIcEEESt4pairIKS5_PN7libMesh10Parameters5ValueEESt10_Select1stISC_ESt4lessIS5_ESaISC_EE8_M_eraseEPSt13_Rb_tree_nodeISC_E
FN:1930,_ZNSt8_Rb_treeINSt7__cxx1112basic_stringIcSt11char_traitsIcESaIcEEESt4pairIKS5_PN7libMesh10Parameters5ValueEESt10_Select1stISC_ESt4lessIS5_ESaISC_EE14_M_lower_boundEPSt13_Rb_tree_nodeISC_EPSt18_Rb_tree_node_baseRS7_
FNDA:0,_ZNSt8_Rb_treeINSt7__cxx1112basic_stringIcSt11char_traitsIcESaIcEEESt4pairIKS5_PN7libMesh10Parameters5ValueEESt10_Select1stISC_ESt4lessIS5_ESaISC_EE14_M_lower_boundEPSt13_Rb_tree_nodeISC_EPSt18_Rb_tree_node_baseRS7_
FN:2091,_ZNSt8_Rb_treeINSt7__cxx1112basic_stringIcSt11char_traitsIcESaIcEEESt4pairIKS5_PN7libMesh10Parameters5ValueEESt10_Select1stISC_ESt4lessIS5_ESaISC_EE24_M_get_insert_unique_posERS7_
FNDA:1207430,_ZNSt8_Rb_treeINSt7__cxx1112basic_stringIcSt11char_traitsIcESaIcEEESt4pairIKS5_PN7libMesh10Parameters5ValueEESt10_Select1stISC_ESt4lessIS5_ESaISC_EE24_M_get_insert_unique_posERS7_
FN:2193,_ZNSt8_Rb_treeINSt7__cxx1112basic_stringIcSt11char_traitsIcESaIcEEESt4pairIKS5_PN7libMesh10Parameters5ValueEESt10_Select1stISC_ESt4lessIS5_ESaISC_EE29_M_get_insert_hint_unique_posESt23_Rb_tree_const_iteratorISC_ERS7_
FNDA:10102100,_ZNSt8_Rb_treeINSt7__cxx1112basic_stringIcSt11char_traitsIcESaIcEEESt4pairIKS5_PN7libMesh10Parameters5ValueEESt10_Select1stISC_ESt4lessIS5_ESaISC_EE29_M_get_insert_hint_unique_posESt23_Rb_tree_const_iteratorISC_ERS7_
FN:2360,_ZNSt8_Rb_treeINSt7__cxx1112basic_stringIcSt11char_traitsIcESaIcEEESt4pairIKS5_PN7libMesh10Parameters5ValueEESt10_Select1stISC_ESt4lessIS5_ESaISC_EE14_M_insert_nodeEPSt18_Rb_tree_node_baseSK_PSt13_Rb_tree_nodeISC_E
FNDA:0,_ZNSt8_Rb_treeINSt7__cxx1112basic_stringIcSt11char_traitsIcESaIcEEESt4pairIKS5_PN7libMesh10Parameters5ValueEESt10_Select1stISC_ESt4lessIS5_ESaISC_EE14_M_insert_nodeEPSt18_Rb_tree_node_baseSK_PSt13_Rb_tree_nodeISC_E
FN:2458,_ZNSt8_Rb_treeINSt7__cxx1112basic_stringIcSt11char_traitsIcESaIcEEESt4pairIKS5_PN7libMesh10Parameters5ValueEESt10_Select1stISC_ESt4lessIS5_ESaISC_EE22_M_emplace_hint_uniqueIJRKSt21piecewise_construct_tSt5tupleIJRS7_EESN_IJEEEEESt17_Rb_tree_iteratorISC_ESt23_Rb_tree_const_iteratorISC_EDpOT_
FNDA:0,_ZNSt8_Rb_treeINSt7__cxx1112basic_stringIcSt11char_traitsIcESaIcEEESt4pairIKS5_PN7libMesh10Parameters5ValueEESt10_Select1stISC_ESt4lessIS5_ESaISC_EE22_M_emplace_hint_uniqueIJRKSt21piecewise_construct_tSt5tupleIJRS7_EESN_IJEEEEESt17_Rb_tree_iteratorISC_ESt23_Rb_tree_const_iteratorISC_EDpOT_
FN:2510,_ZNSt8_Rb_treeINSt7__cxx1112basic_stringIcSt11char_traitsIcESaIcEEESt4pairIKS5_PN7libMesh10Parameters5ValueEESt10_Select1stISC_ESt4lessIS5_ESaISC_EE12_M_erase_auxESt23_Rb_tree_const_iteratorISC_E
FNDA:0,_ZNSt8_Rb_treeINSt7__cxx1112basic_stringIcSt11char_traitsIcESaIcEEESt4pairIKS5_PN7libMesh10Parameters5ValueEESt10_Select1stISC_ESt4lessIS5_ESaISC_EE12_M_erase_auxESt23_Rb_tree_const_iteratorISC_E
FN:2550,_ZNSt8_Rb_treeINSt7__cxx1112basic_stringIcSt11char_traitsIcESaIcEEESt4pairIKS5_PN7libMesh10Parameters5ValueEESt10_Select1stISC_ESt4lessIS5_ESaISC_EE4findERS7_
FNDA:0,_ZNSt8_Rb_treeINSt7__cxx1112basic_stringIcSt11char_traitsIcESaIcEEESt4pairIKS5_PN7libMesh10Parameters5ValueEESt10_Select1stISC_ESt4lessIS5_ESaISC_EE4findERS7_
FNF:13
FNH:4
DA:287,0
DA:302,5613610
DA:303,0
DA:350,0
DA:351,0
DA:355,10102100
DA:368,0
DA:369,0
DA:613,0
DA:622,0
DA:624,0
DA:626,0
DA:628,0
DA:632,0
DA:635,0
DA:636,0
DA:647,0
DA:749,1207500
DA:760,11309500
DA:790,0
DA:798,0
DA:991,74
DA:1003,0
DA:1007,0
DA:1011,0
DA:1015,0
DA:1035,0
DA:1039,2558870
DA:1211,0
DA:1214,0
DA:1216,0
DA:1217,0
DA:1277,0
DA:1913,37
DA:1917,37
DA:1919,0
DA:1924,37
DA:1913,37
DA:1917,37
DA:1919,0
DA:1924,37
DA:1913,0
DA:1917,0
DA:1919,0
DA:1924,0
DA:1930,0
DA:1934,0
DA:1935,0
DA:1939,0
DA:2091,1207430
DA:2098,1207430
DA:2102,0
DA:2105,1207430
DA:2107,1207430
DA:2108,1207430
DA:2112,0
DA:2113,0
DA:2114,0
DA:2193,10102100
DA:2201,10102100
DA:2204,2558870
DA:2205,1351440
DA:2207,1207430
DA:2209,7543190
DA:2213,7543190
DA:2214,1929570
DA:2215,5613610
DA:2217,5613610
DA:2218,3397890
DA:2220,2215720
DA:2223,0
DA:2225,0
DA:2229,0
DA:2230,0
DA:2231,0
DA:2233,0
DA:2234,0
DA:2236,0
DA:2239,0
DA:2243,0
DA:2360,0
DA:2363,0
DA:2364,0
DA:2367,0
DA:2368,0
DA:2369,0
DA:2370,0
DA:2458,0
DA:2461,0
DA:2465,0
DA:2467,0
DA:2468,0
DA:2471,0
DA:2510,0
DA:2515,0
DA:2516,0
DA:2518,0
DA:2519,0
DA:2550,0
DA:2553,0
DA:2555,0
DA:2556,0
LF:102
LH:29
end_of_record
SF:/usr/share/miniconda/envs/moose/x86_64-conda-linux-gnu/include/c++/10.3.0/bits/stl_iterator_base_funcs.h
DA:104,111
LF:1
LH:1
end_of_record
SF:/home/runner/work/raccoon/raccoon/src/main.C
FN:16,main
FNDA:37,main
FNF:1
FNH:1
DA:16,37
DA:19,37
DA:22,37
DA:25,74
DA:28,37
LF:5
LH:5
end_of_record
SF:/usr/share/miniconda/envs/moose/x86_64-conda-linux-gnu/include/c++/10.3.0/ext/aligned_buffer.h
DA:104,0
LF:1
LH:0
end_of_record
SF:/usr/share/miniconda/envs/moose/x86_64-conda-linux-gnu/include/c++/10.3.0/bits/basic_string.h
FN:525,_ZNSt7__cxx1112basic_stringIcSt11char_traitsIcESaIcEEC2IS3_EEPKcRKS3_
FNDA:111,_ZNSt7__cxx1112basic_stringIcSt11char_traitsIcESaIcEEC2IS3_EEPKcRKS3_
FNF:1
FNH:1
DA:156,111
DA:157,111
DA:179,0
DA:183,111
DA:187,222
DA:193,111
DA:211,0
DA:217,111
DA:247,111
DA:393,0
DA:398,111
DA:525,111
DA:527,111
DA:658,37
DA:6280,14508200
LF:15
LH:12
end_of_record
SF:/usr/share/miniconda/envs/moose/libmesh/include/timpi/message_tag.h
LF:0
LH:0
end_of_record
SF:/usr/share/miniconda/envs/moose/x86_64-conda-linux-gnu/include/c++/10.3.0/bits/shared_ptr.h
DA:121,37
LF:1
LH:1
end_of_record
TN:
SF:/usr/share/miniconda/envs/moose/x86_64-conda-linux-gnu/include/c++/10.3.0/bits/basic_string.tcc
FN:206,_ZNSt7__cxx1112basic_stringIcSt11char_traitsIcESaIcEE12_M_constructIPKcEEvT_S8_St20forward_iterator_tag
FNDA:37,_ZNSt7__cxx1112basic_stringIcSt11char_traitsIcESaIcEE12_M_constructIPKcEEvT_S8_St20forward_iterator_tag
FNF:1
FNH:1
DA:206,37
DA:211,37
DA:212,0
DA:215,37
DA:217,37
DA:219,0
DA:220,0
DA:232,37
DA:233,37
LF:9
LH:6
end_of_record
SF:/home/runner/work/raccoon/raccoon/moose/framework/build/header_symlinks/MooseEnumItem.h
FN:24,_ZN13MooseEnumItemD2Ev
FNDA:37,_ZN13MooseEnumItemD2Ev
FNF:1
FNH:1
DA:24,37
LF:1
LH:1
end_of_record
SF:/usr/share/miniconda/envs/moose/x86_64-conda-linux-gnu/include/c++/10.3.0/iostream
LF:0
LH:0
end_of_record
SF:/usr/share/miniconda/envs/moose/x86_64-conda-linux-gnu/include/c++/10.3.0/bits/char_traits.h
DA:329,37
DA:371,37
LF:2
LH:2
end_of_record
SF:/usr/share/miniconda/envs/moose/x86_64-conda-linux-gnu/include/c++/10.3.0/bits/basic_string.h
FN:525,_ZNSt7__cxx1112basic_stringIcSt11char_traitsIcESaIcEEC2IS3_EEPKcRKS3_
FNDA:37,_ZNSt7__cxx1112basic_stringIcSt11char_traitsIcESaIcEEC2IS3_EEPKcRKS3_
FNF:1
FNH:1
DA:156,37
DA:157,37
DA:179,0
DA:183,37
DA:187,74
DA:193,37
DA:211,0
DA:217,37
DA:247,37
DA:398,37
DA:525,37
DA:527,37
DA:658,37
LF:13
LH:11
end_of_record
SF:/usr/share/miniconda/envs/moose/x86_64-conda-linux-gnu/include/c++/10.3.0/bits/stl_iterator_base_funcs.h
DA:104,37
LF:1
LH:1
end_of_record
SF:/home/runner/work/raccoon/raccoon/src/base/raccoonAppTypes.C
LF:0
LH:0
end_of_record
TN:
SF:/usr/share/miniconda/envs/moose/x86_64-conda-linux-gnu/include/c++/10.3.0/bits/basic_string.tcc
FN:206,_ZNSt7__cxx1112basic_stringIcSt11char_traitsIcESaIcEE12_M_constructIPcEEvT_S7_St20forward_iterator_tag
FNDA:116,_ZNSt7__cxx1112basic_stringIcSt11char_traitsIcESaIcEE12_M_constructIPcEEvT_S7_St20forward_iterator_tag
FN:206,_ZNSt7__cxx1112basic_stringIcSt11char_traitsIcESaIcEE12_M_constructIPKcEEvT_S8_St20forward_iterator_tag
FNDA:452,_ZNSt7__cxx1112basic_stringIcSt11char_traitsIcESaIcEE12_M_constructIPKcEEvT_S8_St20forward_iterator_tag
FNF:2
FNH:2
DA:206,116
DA:211,116
DA:212,0
DA:215,116
DA:217,116
DA:219,0
DA:220,0
DA:232,116
DA:233,116
DA:206,452
DA:211,452
DA:212,0
DA:215,452
DA:217,452
DA:219,336
DA:220,336
DA:232,452
DA:233,452
LF:18
LH:14
end_of_record
SF:/usr/share/miniconda/envs/moose/x86_64-conda-linux-gnu/include/c++/10.3.0/bits/stl_set.h
FN:243,_ZNSt3setINSt7__cxx1112basic_stringIcSt11char_traitsIcESaIcEEESt4lessIS5_ESaIS5_EEC2ESt16initializer_listIS5_ERKS7_RKS8_
FNDA:116,_ZNSt3setINSt7__cxx1112basic_stringIcSt11char_traitsIcESaIcEEESt4lessIS5_ESaIS5_EEC2ESt16initializer_listIS5_ERKS7_RKS8_
FN:281,_ZNSt3setIsSt4lessIsESaIsEED2Ev
FNDA:0,_ZNSt3setIsSt4lessIsESaIsEED2Ev
FN:281,_ZNSt3setItSt4lessItESaItEED2Ev
FNDA:0,_ZNSt3setItSt4lessItESaItEED2Ev
FNF:3
FNH:1
DA:243,116
DA:246,116
DA:247,116
DA:281,0
DA:281,0
DA:281,116
LF:6
LH:4
end_of_record
SF:/usr/share/miniconda/envs/moose/x86_64-conda-linux-gnu/include/c++/10.3.0/bits/stl_construct.h
FN:149,_ZNSt12_Destroy_auxILb0EE9__destroyIPSt5tupleIJNSt7__cxx1112basic_stringIcSt11char_traitsIcESaIcEEEN5Moose23RelationshipManagerTypeESt8functionIFvRK15InputParametersRSC_EEEEEEvT_SK_
FNDA:0,_ZNSt12_Destroy_auxILb0EE9__destroyIPSt5tupleIJNSt7__cxx1112basic_stringIcSt11char_traitsIcESaIcEEEN5Moose23RelationshipManagerTypeESt8functionIFvRK15InputParametersRSC_EEEEEEvT_SK_
FNF:1
FNH:0
DA:149,0
DA:151,0
DA:153,0
DA:185,0
LF:4
LH:0
end_of_record
SF:/usr/share/miniconda/envs/moose/x86_64-conda-linux-gnu/include/c++/10.3.0/bits/alloc_traits.h
FN:459,_ZNSt16allocator_traitsISaIdEE8allocateERS0_m
FNDA:0,_ZNSt16allocator_traitsISaIdEE8allocateERS0_m
FNF:1
FNH:0
DA:459,0
DA:460,0
DA:492,0
DA:512,0
DA:516,116
LF:5
LH:1
end_of_record
SF:/usr/share/miniconda/envs/moose/x86_64-conda-linux-gnu/include/c++/10.3.0/bits/allocated_ptr.h
FN:70,_ZNSt15__allocated_ptrISaISt23_Sp_counted_ptr_inplaceI10raccoonAppSaIS1_ELN9__gnu_cxx12_Lock_policyE2EEEED2Ev
FNDA:0,_ZNSt15__allocated_ptrISaISt23_Sp_counted_ptr_inplaceI10raccoonAppSaIS1_ELN9__gnu_cxx12_Lock_policyE2EEEED2Ev
FNF:1
FNH:0
DA:52,0
DA:53,0
DA:70,0
DA:72,0
DA:74,0
DA:80,0
LF:6
LH:0
end_of_record
SF:/home/runner/work/raccoon/raccoon/moose/framework/build/header_symlinks/MooseEnumItem.h
DA:24,0
LF:1
LH:0
end_of_record
SF:/usr/share/miniconda/envs/moose/x86_64-conda-linux-gnu/include/c++/10.3.0/bits/stl_algobase.h
DA:425,0
DA:426,0
LF:2
LH:0
end_of_record
SF:/home/runner/work/raccoon/raccoon/moose/framework/contrib/hit/parse.h
LF:0
LH:0
end_of_record
SF:/home/runner/work/raccoon/raccoon/moose/framework/build/header_symlinks/MooseTypes.h
LF:0
LH:0
end_of_record
SF:/usr/share/miniconda/envs/moose/libmesh/include/libmesh/reference_counter.h
DA:152,0
LF:1
LH:0
end_of_record
SF:/home/runner/work/raccoon/raccoon/src/base/raccoonApp.C
FN:13,_ZN10raccoonApp11validParamsEv
FNDA:168,_ZN10raccoonApp11validParamsEv
FN:23,_ZN10raccoonAppC2E15InputParameters
FNDA:0,_ZN10raccoonAppC2E15InputParameters
FN:28,_ZN10raccoonAppD0Ev
FNDA:0,_ZN10raccoonAppD0Ev
FN:28,_ZN10raccoonAppD2Ev
FNDA:0,_ZN10raccoonAppD2Ev
FN:36,_ZN10raccoonApp11registerAllER7FactoryR13ActionFactoryR6Syntax
FNDA:58,_ZN10raccoonApp11registerAllER7FactoryR13ActionFactoryR6Syntax
FN:46,_ZN10raccoonApp12registerAppsEv
FNDA:0,_ZN10raccoonApp12registerAppsEv
FN:55,raccoonApp__registerAll
FNDA:0,raccoonApp__registerAll
FN:60,raccoonApp__registerApps
FNDA:0,raccoonApp__registerApps
FNF:8
FNH:2
DA:13,168
DA:15,168
DA:16,168
DA:19,168
DA:20,168
DA:23,0
DA:25,0
DA:26,0
DA:28,0
DA:28,0
DA:36,58
DA:38,58
DA:39,174
DA:40,174
DA:42,58
DA:43,58
DA:46,0
DA:48,0
DA:49,0
DA:55,0
DA:57,0
DA:58,0
DA:60,0
DA:62,0
DA:63,0
LF:25
LH:11
end_of_record
SF:/usr/share/miniconda/envs/moose/x86_64-conda-linux-gnu/include/c++/10.3.0/bits/basic_string.h
FN:525,_ZNSt7__cxx1112basic_stringIcSt11char_traitsIcESaIcEEC2IS3_EEPKcRKS3_
FNDA:452,_ZNSt7__cxx1112basic_stringIcSt11char_traitsIcESaIcEEC2IS3_EEPKcRKS3_
FN:1470,_ZNSt7__cxx1112basic_stringIcSt11char_traitsIcESaIcEE6assignIPcvEERS4_T_S8_
FNDA:0,_ZNSt7__cxx1112basic_stringIcSt11char_traitsIcESaIcEE6assignIPcvEERS4_T_S8_
FNF:2
FNH:1
DA:156,452
DA:157,452
DA:179,336
DA:183,568
DA:187,1136
DA:193,452
DA:211,336
DA:217,568
DA:247,452
DA:393,116
DA:398,452
DA:525,452
DA:527,452
DA:658,568
DA:814,0
DA:902,0
DA:1470,0
DA:1471,0
DA:6280,0
DA:6473,0
LF:20
LH:14
end_of_record
SF:/usr/share/miniconda/envs/moose/x86_64-conda-linux-gnu/include/c++/10.3.0/ext/aligned_buffer.h
DA:65,232
DA:69,0
DA:104,0
LF:3
LH:1
end_of_record
SF:/usr/share/miniconda/envs/moose/x86_64-conda-linux-gnu/include/c++/10.3.0/bits/unordered_map.h
DA:102,0
LF:1
LH:0
end_of_record
SF:/usr/share/miniconda/envs/moose/libmesh/include/libmesh/threads_pthread.h
FN:524,_ZN7libMesh7Threads6atomicIjEppEv
FNDA:0,_ZN7libMesh7Threads6atomicIjEppEv
FN:538,_ZN7libMesh7Threads6atomicIjEmmEv
FNDA:0,_ZN7libMesh7Threads6atomicIjEmmEv
FNF:2
FNH:0
DA:149,0
DA:150,0
DA:524,0
DA:527,0
DA:528,0
DA:538,0
DA:541,0
DA:542,0
LF:8
LH:0
end_of_record
SF:/usr/share/miniconda/envs/moose/x86_64-conda-linux-gnu/include/c++/10.3.0/bits/stl_iterator_base_funcs.h
DA:104,568
LF:1
LH:1
end_of_record
SF:/usr/share/miniconda/envs/moose/x86_64-conda-linux-gnu/include/c++/10.3.0/bits/hashtable_policy.h
FN:2051,_ZNSt8__detail16_Hashtable_allocISaINS_10_Hash_nodeISt4pairIKNSt7__cxx1112basic_stringIcSt11char_traitsIcESaIcEEES8_ELb1EEEEE18_M_deallocate_nodeEPSB_
FNDA:0,_ZNSt8__detail16_Hashtable_allocISaINS_10_Hash_nodeISt4pairIKNSt7__cxx1112basic_stringIcSt11char_traitsIcESaIcEEES8_ELb1EEEEE18_M_deallocate_nodeEPSB_
FNF:1
FNH:0
DA:270,0
DA:2051,0
DA:2055,0
DA:2063,0
DA:2071,0
DA:2075,0
DA:2100,0
LF:7
LH:0
end_of_record
SF:/usr/share/miniconda/envs/moose/x86_64-conda-linux-gnu/include/c++/10.3.0/sstream
DA:678,0
LF:1
LH:0
end_of_record
SF:/usr/share/miniconda/envs/moose/libmesh/include/libmesh/parameters.h
FN:132,_ZN7libMesh10Parameters14set_attributesERKNSt7__cxx1112basic_stringIcSt11char_traitsIcESaIcEEEb
FNDA:0,_ZN7libMesh10Parameters14set_attributesERKNSt7__cxx1112basic_stringIcSt11char_traitsIcESaIcEEEb
FN:285,_ZNK7libMesh10Parameters9ParameterIbE4typeB5cxx11Ev
FNDA:0,_ZNK7libMesh10Parameters9ParameterIbE4typeB5cxx11Ev
FN:293,_ZNK7libMesh10Parameters9ParameterIbE5printERSo
FNDA:0,_ZNK7libMesh10Parameters9ParameterIbE5printERSo
FN:301,_ZNK7libMesh10Parameters9ParameterIbE5cloneEv
FNDA:0,_ZNK7libMesh10Parameters9ParameterIbE5cloneEv
FN:316,_ZN7libMesh10Parameters5clearEv
FNDA:0,_ZN7libMesh10Parameters5clearEv
FN:332,_ZN7libMesh10ParametersaSERKS0_
FNDA:0,_ZN7libMesh10ParametersaSERKS0_
FN:341,_ZN7libMesh10ParameterspLERKS0_
FNDA:0,_ZN7libMesh10ParameterspLERKS0_
FN:362,_ZN7libMesh10ParametersD0Ev
FNDA:0,_ZN7libMesh10ParametersD0Ev
FN:362,_ZN7libMesh10ParametersD2Ev
FNDA:0,_ZN7libMesh10ParametersD2Ev
FN:405,_ZNK7libMesh10Parameters14have_parameterIbEEbRKNSt7__cxx1112basic_stringIcSt11char_traitsIcESaIcEEE
FNDA:0,_ZNK7libMesh10Parameters14have_parameterIbEEbRKNSt7__cxx1112basic_stringIcSt11char_traitsIcESaIcEEE
FNF:10
FNH:0
DA:132,0
DA:200,0
DA:212,0
DA:285,0
DA:287,0
DA:293,0
DA:297,0
DA:301,0
DA:303,0
DA:307,0
DA:309,0
DA:316,0
DA:318,0
DA:322,0
DA:323,0
DA:325,0
DA:327,0
DA:332,0
DA:334,0
DA:335,0
DA:337,0
DA:341,0
DA:343,0
DA:345,0
DA:346,0
DA:347,0
DA:350,0
DA:362,0
DA:365,0
DA:362,0
DA:364,0
DA:365,0
DA:405,0
DA:409,0
DA:411,0
DA:415,0
DA:535,0
LF:37
LH:0
end_of_record
SF:/home/runner/work/raccoon/raccoon/moose/framework/build/header_symlinks/InputParameters.h
FN:52,_ZN15InputParametersD0Ev
FNDA:0,_ZN15InputParametersD0Ev
FN:52,_ZN15InputParametersD2Ev
FNDA:0,_ZN15InputParametersD2Ev
FN:1029,_ZN15InputParameters3setIbEERT_RKNSt7__cxx1112basic_stringIcSt11char_traitsIcESaIcEEEb
FNDA:0,_ZN15InputParameters3setIbEERT_RKNSt7__cxx1112basic_stringIcSt11char_traitsIcESaIcEEEb
FN:1403,_ZNK15InputParameters19checkConsistentTypeIbEEvRKNSt7__cxx1112basic_stringIcSt11char_traitsIcESaIcEEE
FNDA:0,_ZNK15InputParameters19checkConsistentTypeIbEEvRKNSt7__cxx1112basic_stringIcSt11char_traitsIcESaIcEEE
FN:1685,_ZN5moose8internal15callValidParamsI10raccoonAppEE15InputParametersv
FNDA:0,_ZN5moose8internal15callValidParamsI10raccoonAppEE15InputParametersv
FNF:5
FNH:0
DA:52,0
DA:52,0
DA:1029,0
DA:1031,0
DA:1032,0
DA:1034,0
DA:1035,0
DA:1037,0
DA:1039,0
DA:1040,0
DA:1044,0
DA:1403,0
DA:1407,0
DA:1408,0
DA:1413,0
DA:1415,0
DA:1660,0
DA:1665,0
DA:1685,0
DA:1687,0
LF:20
LH:0
end_of_record
SF:/usr/share/miniconda/envs/moose/x86_64-conda-linux-gnu/include/c++/10.3.0/ostream
DA:175,0
LF:1
LH:0
end_of_record
SF:/home/runner/work/raccoon/raccoon/moose/framework/build/header_symlinks/MooseError.h
FN:154,_ZN5moose8internal14mooseStreamAllINSt7__cxx1112basic_stringIcSt11char_traitsIcESaIcEEEJRA2_KcEEEvRNS2_19basic_ostringstreamIcS5_S6_EEOT_DpOT0_
FNDA:0,_ZN5moose8internal14mooseStreamAllINSt7__cxx1112basic_stringIcSt11char_traitsIcESaIcEEEJRA2_KcEEEvRNS2_19basic_ostringstreamIcS5_S6_EEOT_DpOT0_
FN:154,_ZN5moose8internal14mooseStreamAllINSt7__cxx1112basic_stringIcSt11char_traitsIcESaIcEEEJRA45_KcS7_RA2_S8_EEEvRNS2_19basic_ostringstreamIcS5_S6_EEOT_DpOT0_
FNDA:0,_ZN5moose8internal14mooseStreamAllINSt7__cxx1112basic_stringIcSt11char_traitsIcESaIcEEEJRA45_KcS7_RA2_S8_EEEvRNS2_19basic_ostringstreamIcS5_S6_EEOT_DpOT0_
FN:154,_ZN5moose8internal14mooseStreamAllIRKNSt7__cxx1112basic_stringIcSt11char_traitsIcESaIcEEEJRA14_KcS7_RA45_SA_S7_RA2_SA_EEEvRNS2_19basic_ostringstreamIcS5_S6_EEOT_DpOT0_
FNDA:0,_ZN5moose8internal14mooseStreamAllIRKNSt7__cxx1112basic_stringIcSt11char_traitsIcESaIcEEEJRA14_KcS7_RA45_SA_S7_RA2_SA_EEEvRNS2_19basic_ostringstreamIcS5_S6_EEOT_DpOT0_
FN:238,_Z10mooseErrorIJRA30_KcRKNSt7__cxx1112basic_stringIcSt11char_traitsIcESaIcEEERA14_S0_S8_RA45_S0_S8_RA2_S0_EEvDpOT_
FNDA:0,_Z10mooseErrorIJRA30_KcRKNSt7__cxx1112basic_stringIcSt11char_traitsIcESaIcEEERA14_S0_S8_RA45_S0_S8_RA2_S0_EEvDpOT_
FNF:4
FNH:0
DA:154,0
DA:156,0
DA:157,0
DA:158,0
DA:154,0
DA:156,0
DA:157,0
DA:158,0
DA:154,0
DA:156,0
DA:157,0
DA:158,0
DA:156,0
DA:157,0
DA:158,0
DA:238,0
DA:240,0
DA:242,0
LF:18
LH:0
end_of_record
SF:/usr/share/miniconda/envs/moose/x86_64-conda-linux-gnu/include/c++/10.3.0/bits/std_function.h
FN:242,_ZNSt14_Function_baseD2Ev
FNDA:0,_ZNSt14_Function_baseD2Ev
FNF:1
FNH:0
DA:242,0
DA:243,0
DA:244,0
DA:245,0
DA:246,0
DA:303,0
LF:6
LH:0
end_of_record
SF:/usr/share/miniconda/envs/moose/x86_64-conda-linux-gnu/include/c++/10.3.0/bits/shared_ptr_base.h
FN:555,_ZNSt23_Sp_counted_ptr_inplaceI10raccoonAppSaIS0_ELN9__gnu_cxx12_Lock_policyE2EED0Ev
FNDA:0,_ZNSt23_Sp_counted_ptr_inplaceI10raccoonAppSaIS0_ELN9__gnu_cxx12_Lock_policyE2EED0Ev
FN:555,_ZNSt23_Sp_counted_ptr_inplaceI10raccoonAppSaIS0_ELN9__gnu_cxx12_Lock_policyE2EED2Ev
FNDA:0,_ZNSt23_Sp_counted_ptr_inplaceI10raccoonAppSaIS0_ELN9__gnu_cxx12_Lock_policyE2EED2Ev
FN:558,_ZNSt23_Sp_counted_ptr_inplaceI10raccoonAppSaIS0_ELN9__gnu_cxx12_Lock_policyE2EE10_M_disposeEv
FNDA:0,_ZNSt23_Sp_counted_ptr_inplaceI10raccoonAppSaIS0_ELN9__gnu_cxx12_Lock_policyE2EE10_M_disposeEv
FN:565,_ZNSt23_Sp_counted_ptr_inplaceI10raccoonAppSaIS0_ELN9__gnu_cxx12_Lock_policyE2EE10_M_destroyEv
FNDA:0,_ZNSt23_Sp_counted_ptr_inplaceI10raccoonAppSaIS0_ELN9__gnu_cxx12_Lock_policyE2EE10_M_destroyEv
FN:578,_ZNSt23_Sp_counted_ptr_inplaceI10raccoonAppSaIS0_ELN9__gnu_cxx12_Lock_policyE2EE14_M_get_deleterERKSt9type_info
FNDA:0,_ZNSt23_Sp_counted_ptr_inplaceI10raccoonAppSaIS0_ELN9__gnu_cxx12_Lock_policyE2EE14_M_get_deleterERKSt9type_info
FN:675,_ZNSt14__shared_countILN9__gnu_cxx12_Lock_policyE2EEC2I10raccoonAppSaIS4_EJRK15InputParametersEEERPT_St20_Sp_alloc_shared_tagIT0_EDpOT1_
FNDA:0,_ZNSt14__shared_countILN9__gnu_cxx12_Lock_policyE2EEC2I10raccoonAppSaIS4_EJRK15InputParametersEEERPT_St20_Sp_alloc_shared_tagIT0_EDpOT1_
FNF:6
FNH:0
DA:120,0
DA:121,0
DA:534,0
DA:546,0
DA:547,0
DA:553,0
DA:555,0
DA:555,0
DA:555,0
DA:558,0
DA:561,0
DA:565,0
DA:568,0
DA:570,0
DA:578,0
DA:586,0
DA:588,0
DA:593,0
DA:675,0
DA:680,0
DA:682,0
DA:685,0
DA:686,0
DA:687,0
DA:761,0
DA:763,0
DA:1199,0
DA:1370,0
DA:1371,0
LF:29
LH:0
end_of_record
SF:/usr/share/miniconda/envs/moose/x86_64-conda-linux-gnu/include/c++/10.3.0/initializer_list
DA:71,116
DA:79,116
LF:2
LH:2
end_of_record
SF:/usr/share/miniconda/envs/moose/x86_64-conda-linux-gnu/include/c++/10.3.0/tuple
FN:1689,_ZNSt4pairIKNSt7__cxx1112basic_stringIcSt11char_traitsIcESaIcEEEN15InputParameters8MetadataEEC2IJRS6_EJLm0EEJEJEEERSt5tupleIJDpT_EERSC_IJDpT1_EESt12_Index_tupleIJXspT0_EEESL_IJXspT2_EEE
FNDA:0,_ZNSt4pairIKNSt7__cxx1112basic_stringIcSt11char_traitsIcESaIcEEEN15InputParameters8MetadataEEC2IJRS6_EJLm0EEJEJEEERSt5tupleIJDpT_EERSC_IJDpT1_EESt12_Index_tupleIJXspT0_EEESL_IJXspT2_EEE
FNF:1
FNH:0
DA:124,0
DA:129,0
DA:130,0
DA:166,0
DA:520,0
DA:1677,0
DA:1682,0
DA:1689,0
DA:1693,0
DA:1694,0
LF:10
LH:0
end_of_record
SF:/usr/share/miniconda/envs/moose/x86_64-conda-linux-gnu/include/c++/10.3.0/iostream
LF:0
LH:0
end_of_record
SF:/usr/share/miniconda/envs/moose/x86_64-conda-linux-gnu/include/c++/10.3.0/bits/stl_pair.h
DA:211,0
LF:1
LH:0
end_of_record
SF:/usr/share/miniconda/envs/moose/x86_64-conda-linux-gnu/include/c++/10.3.0/bits/stl_function.h
DA:1156,0
LF:1
LH:0
end_of_record
SF:/usr/share/miniconda/envs/moose/x86_64-conda-linux-gnu/include/c++/10.3.0/typeinfo
FN:120,_ZNKSt9type_infoeqERKS_
FNDA:0,_ZNKSt9type_infoeqERKS_
FNF:1
FNH:0
DA:100,0
DA:120,0
DA:122,0
DA:123,0
DA:124,0
LF:5
LH:0
end_of_record
SF:/usr/share/miniconda/envs/moose/x86_64-conda-linux-gnu/include/c++/10.3.0/bits/char_traits.h
DA:329,568
DA:371,452
LF:2
LH:2
end_of_record
SF:/usr/share/miniconda/envs/moose/x86_64-conda-linux-gnu/include/c++/10.3.0/bits/stl_iterator.h
DA:981,0
DA:985,0
LF:2
LH:0
end_of_record
SF:/usr/share/miniconda/envs/moose/x86_64-conda-linux-gnu/include/c++/10.3.0/streambuf
LF:0
LH:0
end_of_record
SF:/home/runner/work/raccoon/raccoon/moose/framework/build/header_symlinks/AppFactory.h
FN:130,_ZN10AppFactory8buildAppI10raccoonAppEESt10shared_ptrI8MooseAppERK15InputParameters
FNDA:0,_ZN10AppFactory8buildAppI10raccoonAppEESt10shared_ptrI8MooseAppERK15InputParameters
FN:138,_ZN10AppFactory3regI10raccoonAppEEvRKNSt7__cxx1112basic_stringIcSt11char_traitsIcESaIcEEE
FNDA:0,_ZN10AppFactory3regI10raccoonAppEEvRKNSt7__cxx1112basic_stringIcSt11char_traitsIcESaIcEEE
FNF:2
FNH:0
DA:106,0
DA:130,0
DA:132,0
DA:138,0
DA:140,0
DA:143,0
DA:144,0
LF:7
LH:0
end_of_record
SF:/usr/share/miniconda/envs/moose/libmesh/include/timpi/message_tag.h
LF:0
LH:0
end_of_record
SF:/usr/share/miniconda/envs/moose/x86_64-conda-linux-gnu/include/c++/10.3.0/bits/shared_ptr.h
FN:407,_ZNSt10shared_ptrI10raccoonAppEC2ISaIS0_EJRK15InputParametersEEESt20_Sp_alloc_shared_tagIT_EDpOT0_
FNDA:0,_ZNSt10shared_ptrI10raccoonAppEC2ISaIS0_EJRK15InputParametersEEESt20_Sp_alloc_shared_tagIT_EDpOT0_
FNF:1
FNH:0
DA:121,0
DA:407,0
DA:408,0
DA:409,0
DA:860,0
DA:875,0
LF:6
LH:0
end_of_record
SF:/home/runner/work/raccoon/raccoon/moose/framework/build/header_symlinks/MooseApp.h
FN:104,_ZNK8MooseApp16getPrintableNameB5cxx11Ev
FNDA:0,_ZNK8MooseApp16getPrintableNameB5cxx11Ev
FN:106,_ZNK8MooseApp13appBinaryNameB5cxx11Ev
FNDA:0,_ZNK8MooseApp13appBinaryNameB5cxx11Ev
FN:897,_ZNK8MooseApp34errorOnJacobianNonzeroReallocationEv
FNDA:0,_ZNK8MooseApp34errorOnJacobianNonzeroReallocationEv
FNF:3
FNH:0
DA:104,0
DA:106,0
DA:108,0
DA:109,0
DA:110,0
DA:111,0
DA:112,0
DA:897,0
LF:8
LH:0
end_of_record
SF:/usr/share/miniconda/envs/moose/x86_64-conda-linux-gnu/include/c++/10.3.0/bits/stl_vector.h
FN:333,_ZNSt12_Vector_baseISt5tupleIJNSt7__cxx1112basic_stringIcSt11char_traitsIcESaIcEEEN5Moose23RelationshipManagerTypeESt8functionIFvRK15InputParametersRSA_EEEESaISG_EED2Ev
FNDA:0,_ZNSt12_Vector_baseISt5tupleIJNSt7__cxx1112basic_stringIcSt11char_traitsIcESaIcEEEN5Moose23RelationshipManagerTypeESt8functionIFvRK15InputParametersRSA_EEEESaISG_EED2Ev
FN:333,_ZNSt12_Vector_baseIdSaIdEED2Ev
FNDA:0,_ZNSt12_Vector_baseIdSaIdEED2Ev
FN:333,_ZNSt12_Vector_baseINSt7__cxx1112basic_stringIcSt11char_traitsIcESaIcEEESaIS5_EED2Ev
FNDA:0,_ZNSt12_Vector_baseINSt7__cxx1112basic_stringIcSt11char_traitsIcESaIcEEESaIS5_EED2Ev
FN:625,_ZNSt6vectorIdSaIdEEC2ESt16initializer_listIdERKS0_
FNDA:0,_ZNSt6vectorIdSaIdEEC2ESt16initializer_listIdERKS0_
FN:678,_ZNSt6vectorISt5tupleIJNSt7__cxx1112basic_stringIcSt11char_traitsIcESaIcEEEN5Moose23RelationshipManagerTypeESt8functionIFvRK15InputParametersRSA_EEEESaISG_EED2Ev
FNDA:0,_ZNSt6vectorISt5tupleIJNSt7__cxx1112basic_stringIcSt11char_traitsIcESaIcEEEN5Moose23RelationshipManagerTypeESt8functionIFvRK15InputParametersRSA_EEEESaISG_EED2Ev
FN:678,_ZNSt6vectorINSt7__cxx1112basic_stringIcSt11char_traitsIcESaIcEEESaIS5_EED2Ev
FNDA:0,_ZNSt6vectorINSt7__cxx1112basic_stringIcSt11char_traitsIcESaIcEEESaIS5_EED2Ev
FN:1577,_ZNSt6vectorIdSaIdEE19_M_range_initializeIPKdEEvT_S5_St20forward_iterator_tag
FNDA:0,_ZNSt6vectorIdSaIdEE19_M_range_initializeIPKdEEvT_S5_St20forward_iterator_tag
FNF:7
FNH:0
DA:97,0
DA:98,0
DA:277,0
DA:333,0
DA:336,0
DA:337,0
DA:333,0
DA:336,0
DA:337,0
DA:333,0
DA:336,0
DA:337,0
DA:346,0
DA:353,0
DA:625,0
DA:627,0
DA:629,0
DA:631,0
DA:678,0
DA:680,0
DA:683,0
DA:678,0
DA:680,0
DA:683,0
DA:1577,0
DA:1580,0
DA:1582,0
DA:1583,0
DA:1584,0
DA:1588,0
DA:1769,0
DA:1770,0
LF:32
LH:0
end_of_record
SF:/usr/share/miniconda/envs/moose/x86_64-conda-linux-gnu/include/c++/10.3.0/ext/new_allocator.h
FN:148,_ZN9__gnu_cxx13new_allocatorI10raccoonAppE9constructIS1_JRK15InputParametersEEEvPT_DpOT0_
FNDA:0,_ZN9__gnu_cxx13new_allocatorI10raccoonAppE9constructIS1_JRK15InputParametersEEEvPT_DpOT0_
FN:148,_ZN9__gnu_cxx13new_allocatorISt13_Rb_tree_nodeISt4pairIKNSt7__cxx1112basic_stringIcSt11char_traitsIcESaIcEEEN15InputParameters8MetadataEEEE9constructISC_JRKSt21piecewise_construct_tSt5tupleIJRS9_EESJ_IJEEEEEvPT_DpOT0_
FNDA:0,_ZN9__gnu_cxx13new_allocatorISt13_Rb_tree_nodeISt4pairIKNSt7__cxx1112basic_stringIcSt11char_traitsIcESaIcEEEN15InputParameters8MetadataEEEE9constructISC_JRKSt21piecewise_construct_tSt5tupleIJRS9_EESJ_IJEEEEEvPT_DpOT0_
FNF:2
FNH:0
DA:105,0
DA:106,0
DA:115,116
DA:133,116
DA:148,0
DA:150,0
DA:148,0
DA:150,0
DA:150,116
DA:156,0
LF:10
LH:3
end_of_record
SF:/usr/share/miniconda/envs/moose/x86_64-conda-linux-gnu/include/c++/10.3.0/bits/hashtable.h
FN:411,_ZNSt10_HashtableINSt7__cxx1112basic_stringIcSt11char_traitsIcESaIcEEESt4pairIKS5_S5_ESaIS8_ENSt8__detail10_Select1stESt8equal_toIS5_ESt4hashIS5_ENSA_18_Mod_range_hashingENSA_20_Default_ranged_hashENSA_20_Prime_rehash_policyENSA_17_Hashtable_traitsILb1ELb0ELb1EEEE21_M_deallocate_bucketsEv
FNDA:0,_ZNSt10_HashtableINSt7__cxx1112basic_stringIcSt11char_traitsIcESaIcEEESt4pairIKS5_S5_ESaIS8_ENSt8__detail10_Select1stESt8equal_toIS5_ESt4hashIS5_ENSA_18_Mod_range_hashingENSA_20_Default_ranged_hashENSA_20_Prime_rehash_policyENSA_17_Hashtable_traitsILb1ELb0ELb1EEEE21_M_deallocate_bucketsEv
FN:2026,_ZNSt10_HashtableINSt7__cxx1112basic_stringIcSt11char_traitsIcESaIcEEESt4pairIKS5_S5_ESaIS8_ENSt8__detail10_Select1stESt8equal_toIS5_ESt4hashIS5_ENSA_18_Mod_range_hashingENSA_20_Default_ranged_hashENSA_20_Prime_rehash_policyENSA_17_Hashtable_traitsILb1ELb0ELb1EEEE5clearEv
FNDA:0,_ZNSt10_HashtableINSt7__cxx1112basic_stringIcSt11char_traitsIcESaIcEEESt4pairIKS5_S5_ESaIS8_ENSt8__detail10_Select1stESt8equal_toIS5_ESt4hashIS5_ENSA_18_Mod_range_hashingENSA_20_Default_ranged_hashENSA_20_Prime_rehash_policyENSA_17_Hashtable_traitsILb1ELb0ELb1EEEE5clearEv
FNF:2
FNH:0
DA:380,0
DA:404,0
DA:411,0
DA:412,0
DA:421,0
DA:1387,0
DA:1388,0
DA:2026,0
DA:2031,0
DA:2032,0
DA:2033,0
DA:2034,0
LF:12
LH:0
end_of_record
SF:/usr/share/miniconda/envs/moose/x86_64-conda-linux-gnu/include/c++/10.3.0/bits/stl_tree.h
FN:613,_ZNSt8_Rb_treeINSt7__cxx1112basic_stringIcSt11char_traitsIcESaIcEEESt4pairIKS5_N15InputParameters8MetadataEESt10_Select1stISA_ESt4lessIS5_ESaISA_EE17_M_construct_nodeIJRKSt21piecewise_construct_tSt5tupleIJRS7_EESL_IJEEEEEvPSt13_Rb_tree_nodeISA_EDpOT_
FNDA:0,_ZNSt8_Rb_treeINSt7__cxx1112basic_stringIcSt11char_traitsIcESaIcEEESt4pairIKS5_N15InputParameters8MetadataEESt10_Select1stISA_ESt4lessIS5_ESaISA_EE17_M_construct_nodeIJRKSt21piecewise_construct_tSt5tupleIJRS7_EESL_IJEEEEEvPSt13_Rb_tree_nodeISA_EDpOT_
FN:613,_ZNSt8_Rb_treeINSt7__cxx1112basic_stringIcSt11char_traitsIcESaIcEEESt4pairIKS5_PN7libMesh10Parameters5ValueEESt10_Select1stISC_ESt4lessIS5_ESaISC_EE17_M_construct_nodeIJRKSt21piecewise_construct_tSt5tupleIJRS7_EESN_IJEEEEEvPSt13_Rb_tree_nodeISC_EDpOT_
FNDA:0,_ZNSt8_Rb_treeINSt7__cxx1112basic_stringIcSt11char_traitsIcESaIcEEESt4pairIKS5_PN7libMesh10Parameters5ValueEESt10_Select1stISC_ESt4lessIS5_ESaISC_EE17_M_construct_nodeIJRKSt21piecewise_construct_tSt5tupleIJRS7_EESN_IJEEEEEvPSt13_Rb_tree_nodeISC_EDpOT_
FN:613,_ZNSt8_Rb_treeINSt7__cxx1112basic_stringIcSt11char_traitsIcESaIcEEES5_St9_IdentityIS5_ESt4lessIS5_ESaIS5_EE17_M_construct_nodeIJRKS5_EEEvPSt13_Rb_tree_nodeIS5_EDpOT_
FNDA:116,_ZNSt8_Rb_treeINSt7__cxx1112basic_stringIcSt11char_traitsIcESaIcEEES5_St9_IdentityIS5_ESt4lessIS5_ESaIS5_EE17_M_construct_nodeIJRKS5_EEEvPSt13_Rb_tree_nodeIS5_EDpOT_
FN:613,_ZNSt8_Rb_treeINSt7__cxx1112basic_stringIcSt11char_traitsIcESaIcEEESt4pairIKS5_PF15InputParametersvEESt10_Select1stISB_ESt4lessIS5_ESaISB_EE17_M_construct_nodeIJRKSt21piecewise_construct_tSt5tupleIJRS7_EESM_IJEEEEEvPSt13_Rb_tree_nodeISB_EDpOT_
FNDA:0,_ZNSt8_Rb_treeINSt7__cxx1112basic_stringIcSt11char_traitsIcESaIcEEESt4pairIKS5_PF15InputParametersvEESt10_Select1stISB_ESt4lessIS5_ESaISB_EE17_M_construct_nodeIJRKSt21piecewise_construct_tSt5tupleIJRS7_EESM_IJEEEEEvPSt13_Rb_tree_nodeISB_EDpOT_
FN:613,_ZNSt8_Rb_treeINSt7__cxx1112basic_stringIcSt11char_traitsIcESaIcEEESt4pairIKS5_PFSt10shared_ptrI8MooseAppERK15InputParametersEESt10_Select1stISG_ESt4lessIS5_ESaISG_EE17_M_construct_nodeIJRKSt21piecewise_construct_tSt5tupleIJRS7_EESR_IJEEEEEvPSt13_Rb_tree_nodeISG_EDpOT_
FNDA:0,_ZNSt8_Rb_treeINSt7__cxx1112basic_stringIcSt11char_traitsIcESaIcEEESt4pairIKS5_PFSt10shared_ptrI8MooseAppERK15InputParametersEESt10_Select1stISG_ESt4lessIS5_ESaISG_EE17_M_construct_nodeIJRKSt21piecewise_construct_tSt5tupleIJRS7_EESR_IJEEEEEvPSt13_Rb_tree_nodeISG_EDpOT_
FN:632,_ZNSt8_Rb_treeINSt7__cxx1112basic_stringIcSt11char_traitsIcESaIcEEESt4pairIKS5_PFSt10shared_ptrI8MooseAppERK15InputParametersEESt10_Select1stISG_ESt4lessIS5_ESaISG_EE14_M_create_nodeIJRKSt21piecewise_construct_tSt5tupleIJRS7_EESR_IJEEEEEPSt13_Rb_tree_nodeISG_EDpOT_
FNDA:0,_ZNSt8_Rb_treeINSt7__cxx1112basic_stringIcSt11char_traitsIcESaIcEEESt4pairIKS5_PFSt10shared_ptrI8MooseAppERK15InputParametersEESt10_Select1stISG_ESt4lessIS5_ESaISG_EE14_M_create_nodeIJRKSt21piecewise_construct_tSt5tupleIJRS7_EESR_IJEEEEEPSt13_Rb_tree_nodeISG_EDpOT_
FN:632,_ZNSt8_Rb_treeINSt7__cxx1112basic_stringIcSt11char_traitsIcESaIcEEESt4pairIKS5_PF15InputParametersvEESt10_Select1stISB_ESt4lessIS5_ESaISB_EE14_M_create_nodeIJRKSt21piecewise_construct_tSt5tupleIJRS7_EESM_IJEEEEEPSt13_Rb_tree_nodeISB_EDpOT_
FNDA:0,_ZNSt8_Rb_treeINSt7__cxx1112basic_stringIcSt11char_traitsIcESaIcEEESt4pairIKS5_PF15InputParametersvEESt10_Select1stISB_ESt4lessIS5_ESaISB_EE14_M_create_nodeIJRKSt21piecewise_construct_tSt5tupleIJRS7_EESM_IJEEEEEPSt13_Rb_tree_nodeISB_EDpOT_
FN:632,_ZNSt8_Rb_treeINSt7__cxx1112basic_stringIcSt11char_traitsIcESaIcEEESt4pairIKS5_N15InputParameters8MetadataEESt10_Select1stISA_ESt4lessIS5_ESaISA_EE14_M_create_nodeIJRKSt21piecewise_construct_tSt5tupleIJRS7_EESL_IJEEEEEPSt13_Rb_tree_nodeISA_EDpOT_
FNDA:0,_ZNSt8_Rb_treeINSt7__cxx1112basic_stringIcSt11char_traitsIcESaIcEEESt4pairIKS5_N15InputParameters8MetadataEESt10_Select1stISA_ESt4lessIS5_ESaISA_EE14_M_create_nodeIJRKSt21piecewise_construct_tSt5tupleIJRS7_EESL_IJEEEEEPSt13_Rb_tree_nodeISA_EDpOT_
FN:632,_ZNSt8_Rb_treeINSt7__cxx1112basic_stringIcSt11char_traitsIcESaIcEEESt4pairIKS5_PN7libMesh10Parameters5ValueEESt10_Select1stISC_ESt4lessIS5_ESaISC_EE14_M_create_nodeIJRKSt21piecewise_construct_tSt5tupleIJRS7_EESN_IJEEEEEPSt13_Rb_tree_nodeISC_EDpOT_
FNDA:0,_ZNSt8_Rb_treeINSt7__cxx1112basic_stringIcSt11char_traitsIcESaIcEEESt4pairIKS5_PN7libMesh10Parameters5ValueEESt10_Select1stISC_ESt4lessIS5_ESaISC_EE14_M_create_nodeIJRKSt21piecewise_construct_tSt5tupleIJRS7_EESN_IJEEEEEPSt13_Rb_tree_nodeISC_EDpOT_
FN:632,_ZNSt8_Rb_treeINSt7__cxx1112basic_stringIcSt11char_traitsIcESaIcEEES5_St9_IdentityIS5_ESt4lessIS5_ESaIS5_EE14_M_create_nodeIJRKS5_EEEPSt13_Rb_tree_nodeIS5_EDpOT_
FNDA:116,_ZNSt8_Rb_treeINSt7__cxx1112basic_stringIcSt11char_traitsIcESaIcEEES5_St9_IdentityIS5_ESt4lessIS5_ESaIS5_EE14_M_create_nodeIJRKS5_EEEPSt13_Rb_tree_nodeIS5_EDpOT_
FN:652,_ZNSt8_Rb_treeI13MooseEnumItemS0_St9_IdentityIS0_ESt4lessIS0_ESaIS0_EE12_M_drop_nodeEPSt13_Rb_tree_nodeIS0_E
FNDA:0,_ZNSt8_Rb_treeI13MooseEnumItemS0_St9_IdentityIS0_ESt4lessIS0_ESaIS0_EE12_M_drop_nodeEPSt13_Rb_tree_nodeIS0_E
FN:652,_ZNSt8_Rb_treeINSt7__cxx1112basic_stringIcSt11char_traitsIcESaIcEEESt4pairIKS5_N15InputParameters8MetadataEESt10_Select1stISA_ESt4lessIS5_ESaISA_EE12_M_drop_nodeEPSt13_Rb_tree_nodeISA_E
FNDA:0,_ZNSt8_Rb_treeINSt7__cxx1112basic_stringIcSt11char_traitsIcESaIcEEESt4pairIKS5_N15InputParameters8MetadataEESt10_Select1stISA_ESt4lessIS5_ESaISA_EE12_M_drop_nodeEPSt13_Rb_tree_nodeISA_E
FN:1105,_ZNSt8_Rb_treeINSt7__cxx1112basic_stringIcSt11char_traitsIcESaIcEEES5_St9_IdentityIS5_ESt4lessIS5_ESaIS5_EE22_M_insert_range_uniqueIPKS5_EENSt9enable_ifIXsrSt7is_sameIS5_NSt15iterator_traitsIT_E10value_typeEE5valueEvE4typeESI_SI_
FNDA:116,_ZNSt8_Rb_treeINSt7__cxx1112basic_stringIcSt11char_traitsIcESaIcEEES5_St9_IdentityIS5_ESt4lessIS5_ESaIS5_EE22_M_insert_range_uniqueIPKS5_EENSt9enable_ifIXsrSt7is_sameIS5_NSt15iterator_traitsIT_E10value_typeEE5valueEvE4typeESI_SI_
FN:1211,_ZNSt8_Rb_treeINSt7__cxx1112basic_stringIcSt11char_traitsIcESaIcEEESt4pairIKS5_PN7libMesh10Parameters5ValueEESt10_Select1stISC_ESt4lessIS5_ESaISC_EE5eraseB5cxx11ESt17_Rb_tree_iteratorISC_E
FNDA:0,_ZNSt8_Rb_treeINSt7__cxx1112basic_stringIcSt11char_traitsIcESaIcEEESt4pairIKS5_PN7libMesh10Parameters5ValueEESt10_Select1stISC_ESt4lessIS5_ESaISC_EE5eraseB5cxx11ESt17_Rb_tree_iteratorISC_E
FN:1803,_ZNSt8_Rb_treeINSt7__cxx1112basic_stringIcSt11char_traitsIcESaIcEEES5_St9_IdentityIS5_ESt4lessIS5_ESaIS5_EE10_M_insert_IRKS5_NSB_11_Alloc_nodeEEESt17_Rb_tree_iteratorIS5_EPSt18_Rb_tree_node_baseSJ_OT_RT0_
FNDA:116,_ZNSt8_Rb_treeINSt7__cxx1112basic_stringIcSt11char_traitsIcESaIcEEES5_St9_IdentityIS5_ESt4lessIS5_ESaIS5_EE10_M_insert_IRKS5_NSB_11_Alloc_nodeEEESt17_Rb_tree_iteratorIS5_EPSt18_Rb_tree_node_baseSJ_OT_RT0_
FN:1913,_ZNSt8_Rb_treeINSt7__cxx1112basic_stringIcSt11char_traitsIcESaIcEEES5_St9_IdentityIS5_ESt4lessIS5_ESaIS5_EE8_M_eraseEPSt13_Rb_tree_nodeIS5_E
FNDA:232,_ZNSt8_Rb_treeINSt7__cxx1112basic_stringIcSt11char_traitsIcESaIcEEES5_St9_IdentityIS5_ESt4lessIS5_ESaIS5_EE8_M_eraseEPSt13_Rb_tree_nodeIS5_E
FN:1913,_ZNSt8_Rb_treeIssSt9_IdentityIsESt4lessIsESaIsEE8_M_eraseEPSt13_Rb_tree_nodeIsE
FNDA:0,_ZNSt8_Rb_treeIssSt9_IdentityIsESt4lessIsESaIsEE8_M_eraseEPSt13_Rb_tree_nodeIsE
FN:1913,_ZNSt8_Rb_treeIttSt9_IdentityItESt4lessItESaItEE8_M_eraseEPSt13_Rb_tree_nodeItE
FNDA:0,_ZNSt8_Rb_treeIttSt9_IdentityItESt4lessItESaItEE8_M_eraseEPSt13_Rb_tree_nodeItE
FN:1913,_ZNSt8_Rb_treeINSt7__cxx1112basic_stringIcSt11char_traitsIcESaIcEEESt4pairIKS5_N15InputParameters8MetadataEESt10_Select1stISA_ESt4lessIS5_ESaISA_EE8_M_eraseEPSt13_Rb_tree_nodeISA_E
FNDA:0,_ZNSt8_Rb_treeINSt7__cxx1112basic_stringIcSt11char_traitsIcESaIcEEESt4pairIKS5_N15InputParameters8MetadataEESt10_Select1stISA_ESt4lessIS5_ESaISA_EE8_M_eraseEPSt13_Rb_tree_nodeISA_E
FN:1913,_ZNSt8_Rb_treeINSt7__cxx1112basic_stringIcSt11char_traitsIcESaIcEEESt4pairIKS5_PN7libMesh10Parameters5ValueEESt10_Select1stISC_ESt4lessIS5_ESaISC_EE8_M_eraseEPSt13_Rb_tree_nodeISC_E
FNDA:0,_ZNSt8_Rb_treeINSt7__cxx1112basic_stringIcSt11char_traitsIcESaIcEEESt4pairIKS5_PN7libMesh10Parameters5ValueEESt10_Select1stISC_ESt4lessIS5_ESaISC_EE8_M_eraseEPSt13_Rb_tree_nodeISC_E
FN:1913,_ZNSt8_Rb_treeI13MooseEnumItemS0_St9_IdentityIS0_ESt4lessIS0_ESaIS0_EE8_M_eraseEPSt13_Rb_tree_nodeIS0_E
FNDA:0,_ZNSt8_Rb_treeI13MooseEnumItemS0_St9_IdentityIS0_ESt4lessIS0_ESaIS0_EE8_M_eraseEPSt13_Rb_tree_nodeIS0_E
FN:1930,_ZNSt8_Rb_treeINSt7__cxx1112basic_stringIcSt11char_traitsIcESaIcEEESt4pairIKS5_PN7libMesh10Parameters5ValueEESt10_Select1stISC_ESt4lessIS5_ESaISC_EE14_M_lower_boundEPSt13_Rb_tree_nodeISC_EPSt18_Rb_tree_node_baseRS7_
FNDA:0,_ZNSt8_Rb_treeINSt7__cxx1112basic_stringIcSt11char_traitsIcESaIcEEESt4pairIKS5_PN7libMesh10Parameters5ValueEESt10_Select1stISC_ESt4lessIS5_ESaISC_EE14_M_lower_boundEPSt13_Rb_tree_nodeISC_EPSt18_Rb_tree_node_baseRS7_
FN:1930,_ZNSt8_Rb_treeINSt7__cxx1112basic_stringIcSt11char_traitsIcESaIcEEESt4pairIKS5_PFSt10shared_ptrI8MooseAppERK15InputParametersEESt10_Select1stISG_ESt4lessIS5_ESaISG_EE14_M_lower_boundEPSt13_Rb_tree_nodeISG_EPSt18_Rb_tree_node_baseRS7_
FNDA:0,_ZNSt8_Rb_treeINSt7__cxx1112basic_stringIcSt11char_traitsIcESaIcEEESt4pairIKS5_PFSt10shared_ptrI8MooseAppERK15InputParametersEESt10_Select1stISG_ESt4lessIS5_ESaISG_EE14_M_lower_boundEPSt13_Rb_tree_nodeISG_EPSt18_Rb_tree_node_baseRS7_
FN:1930,_ZNSt8_Rb_treeINSt7__cxx1112basic_stringIcSt11char_traitsIcESaIcEEESt4pairIKS5_PF15InputParametersvEESt10_Select1stISB_ESt4lessIS5_ESaISB_EE14_M_lower_boundEPSt13_Rb_tree_nodeISB_EPSt18_Rb_tree_node_baseRS7_
FNDA:0,_ZNSt8_Rb_treeINSt7__cxx1112basic_stringIcSt11char_traitsIcESaIcEEESt4pairIKS5_PF15InputParametersvEESt10_Select1stISB_ESt4lessIS5_ESaISB_EE14_M_lower_boundEPSt13_Rb_tree_nodeISB_EPSt18_Rb_tree_node_baseRS7_
FN:1930,_ZNSt8_Rb_treeINSt7__cxx1112basic_stringIcSt11char_traitsIcESaIcEEESt4pairIKS5_N15InputParameters8MetadataEESt10_Select1stISA_ESt4lessIS5_ESaISA_EE14_M_lower_boundEPSt13_Rb_tree_nodeISA_EPSt18_Rb_tree_node_baseRS7_
FNDA:0,_ZNSt8_Rb_treeINSt7__cxx1112basic_stringIcSt11char_traitsIcESaIcEEESt4pairIKS5_N15InputParameters8MetadataEESt10_Select1stISA_ESt4lessIS5_ESaISA_EE14_M_lower_boundEPSt13_Rb_tree_nodeISA_EPSt18_Rb_tree_node_baseRS7_
FN:1946,_ZNKSt8_Rb_treeINSt7__cxx1112basic_stringIcSt11char_traitsIcESaIcEEESt4pairIKS5_PF15InputParametersvEESt10_Select1stISB_ESt4lessIS5_ESaISB_EE14_M_lower_boundEPKSt13_Rb_tree_nodeISB_EPKSt18_Rb_tree_node_baseRS7_
FNDA:0,_ZNKSt8_Rb_treeINSt7__cxx1112basic_stringIcSt11char_traitsIcESaIcEEESt4pairIKS5_PF15InputParametersvEESt10_Select1stISB_ESt4lessIS5_ESaISB_EE14_M_lower_boundEPKSt13_Rb_tree_nodeISB_EPKSt18_Rb_tree_node_baseRS7_
FN:1946,_ZNKSt8_Rb_treeINSt7__cxx1112basic_stringIcSt11char_traitsIcESaIcEEESt4pairIKS5_PN7libMesh10Parameters5ValueEESt10_Select1stISC_ESt4lessIS5_ESaISC_EE14_M_lower_boundEPKSt13_Rb_tree_nodeISC_EPKSt18_Rb_tree_node_baseRS7_
FNDA:0,_ZNKSt8_Rb_treeINSt7__cxx1112basic_stringIcSt11char_traitsIcESaIcEEESt4pairIKS5_PN7libMesh10Parameters5ValueEESt10_Select1stISC_ESt4lessIS5_ESaISC_EE14_M_lower_boundEPKSt13_Rb_tree_nodeISC_EPKSt18_Rb_tree_node_baseRS7_
FN:2091,_ZNSt8_Rb_treeINSt7__cxx1112basic_stringIcSt11char_traitsIcESaIcEEESt4pairIKS5_PF15InputParametersvEESt10_Select1stISB_ESt4lessIS5_ESaISB_EE24_M_get_insert_unique_posERS7_
FNDA:0,_ZNSt8_Rb_treeINSt7__cxx1112basic_stringIcSt11char_traitsIcESaIcEEESt4pairIKS5_PF15InputParametersvEESt10_Select1stISB_ESt4lessIS5_ESaISB_EE24_M_get_insert_unique_posERS7_
FN:2091,_ZNSt8_Rb_treeINSt7__cxx1112basic_stringIcSt11char_traitsIcESaIcEEESt4pairIKS5_PN7libMesh10Parameters5ValueEESt10_Select1stISC_ESt4lessIS5_ESaISC_EE24_M_get_insert_unique_posERS7_
FNDA:0,_ZNSt8_Rb_treeINSt7__cxx1112basic_stringIcSt11char_traitsIcESaIcEEESt4pairIKS5_PN7libMesh10Parameters5ValueEESt10_Select1stISC_ESt4lessIS5_ESaISC_EE24_M_get_insert_unique_posERS7_
FN:2091,_ZNSt8_Rb_treeINSt7__cxx1112basic_stringIcSt11char_traitsIcESaIcEEES5_St9_IdentityIS5_ESt4lessIS5_ESaIS5_EE24_M_get_insert_unique_posERKS5_
FNDA:0,_ZNSt8_Rb_treeINSt7__cxx1112basic_stringIcSt11char_traitsIcESaIcEEES5_St9_IdentityIS5_ESt4lessIS5_ESaIS5_EE24_M_get_insert_unique_posERKS5_
FN:2091,_ZNSt8_Rb_treeINSt7__cxx1112basic_stringIcSt11char_traitsIcESaIcEEESt4pairIKS5_PFSt10shared_ptrI8MooseAppERK15InputParametersEESt10_Select1stISG_ESt4lessIS5_ESaISG_EE24_M_get_insert_unique_posERS7_
FNDA:0,_ZNSt8_Rb_treeINSt7__cxx1112basic_stringIcSt11char_traitsIcESaIcEEESt4pairIKS5_PFSt10shared_ptrI8MooseAppERK15InputParametersEESt10_Select1stISG_ESt4lessIS5_ESaISG_EE24_M_get_insert_unique_posERS7_
FN:2091,_ZNSt8_Rb_treeINSt7__cxx1112basic_stringIcSt11char_traitsIcESaIcEEESt4pairIKS5_N15InputParameters8MetadataEESt10_Select1stISA_ESt4lessIS5_ESaISA_EE24_M_get_insert_unique_posERS7_
FNDA:0,_ZNSt8_Rb_treeINSt7__cxx1112basic_stringIcSt11char_traitsIcESaIcEEESt4pairIKS5_N15InputParameters8MetadataEESt10_Select1stISA_ESt4lessIS5_ESaISA_EE24_M_get_insert_unique_posERS7_
FN:2193,_ZNSt8_Rb_treeINSt7__cxx1112basic_stringIcSt11char_traitsIcESaIcEEES5_St9_IdentityIS5_ESt4lessIS5_ESaIS5_EE29_M_get_insert_hint_unique_posESt23_Rb_tree_const_iteratorIS5_ERKS5_
FNDA:0,_ZNSt8_Rb_treeINSt7__cxx1112basic_stringIcSt11char_traitsIcESaIcEEES5_St9_IdentityIS5_ESt4lessIS5_ESaIS5_EE29_M_get_insert_hint_unique_posESt23_Rb_tree_const_iteratorIS5_ERKS5_
FN:2193,_ZNSt8_Rb_treeINSt7__cxx1112basic_stringIcSt11char_traitsIcESaIcEEESt4pairIKS5_PFSt10shared_ptrI8MooseAppERK15InputParametersEESt10_Select1stISG_ESt4lessIS5_ESaISG_EE29_M_get_insert_hint_unique_posESt23_Rb_tree_const_iteratorISG_ERS7_
FNDA:0,_ZNSt8_Rb_treeINSt7__cxx1112basic_stringIcSt11char_traitsIcESaIcEEESt4pairIKS5_PFSt10shared_ptrI8MooseAppERK15InputParametersEESt10_Select1stISG_ESt4lessIS5_ESaISG_EE29_M_get_insert_hint_unique_posESt23_Rb_tree_const_iteratorISG_ERS7_
FN:2193,_ZNSt8_Rb_treeINSt7__cxx1112basic_stringIcSt11char_traitsIcESaIcEEESt4pairIKS5_N15InputParameters8MetadataEESt10_Select1stISA_ESt4lessIS5_ESaISA_EE29_M_get_insert_hint_unique_posESt23_Rb_tree_const_iteratorISA_ERS7_
FNDA:0,_ZNSt8_Rb_treeINSt7__cxx1112basic_stringIcSt11char_traitsIcESaIcEEESt4pairIKS5_N15InputParameters8MetadataEESt10_Select1stISA_ESt4lessIS5_ESaISA_EE29_M_get_insert_hint_unique_posESt23_Rb_tree_const_iteratorISA_ERS7_
FN:2193,_ZNSt8_Rb_treeINSt7__cxx1112basic_stringIcSt11char_traitsIcESaIcEEESt4pairIKS5_PF15InputParametersvEESt10_Select1stISB_ESt4lessIS5_ESaISB_EE29_M_get_insert_hint_unique_posESt23_Rb_tree_const_iteratorISB_ERS7_
FNDA:0,_ZNSt8_Rb_treeINSt7__cxx1112basic_stringIcSt11char_traitsIcESaIcEEESt4pairIKS5_PF15InputParametersvEESt10_Select1stISB_ESt4lessIS5_ESaISB_EE29_M_get_insert_hint_unique_posESt23_Rb_tree_const_iteratorISB_ERS7_
FN:2193,_ZNSt8_Rb_treeINSt7__cxx1112basic_stringIcSt11char_traitsIcESaIcEEESt4pairIKS5_PN7libMesh10Parameters5ValueEESt10_Select1stISC_ESt4lessIS5_ESaISC_EE29_M_get_insert_hint_unique_posESt23_Rb_tree_const_iteratorISC_ERS7_
FNDA:0,_ZNSt8_Rb_treeINSt7__cxx1112basic_stringIcSt11char_traitsIcESaIcEEESt4pairIKS5_PN7libMesh10Parameters5ValueEESt10_Select1stISC_ESt4lessIS5_ESaISC_EE29_M_get_insert_hint_unique_posESt23_Rb_tree_const_iteratorISC_ERS7_
FN:2254,_ZNSt8_Rb_treeINSt7__cxx1112basic_stringIcSt11char_traitsIcESaIcEEES5_St9_IdentityIS5_ESt4lessIS5_ESaIS5_EE17_M_insert_unique_IRKS5_NSB_11_Alloc_nodeEEESt17_Rb_tree_iteratorIS5_ESt23_Rb_tree_const_iteratorIS5_EOT_RT0_
FNDA:116,_ZNSt8_Rb_treeINSt7__cxx1112basic_stringIcSt11char_traitsIcESaIcEEES5_St9_IdentityIS5_ESt4lessIS5_ESaIS5_EE17_M_insert_unique_IRKS5_NSB_11_Alloc_nodeEEESt17_Rb_tree_iteratorIS5_ESt23_Rb_tree_const_iteratorIS5_EOT_RT0_
FN:2360,_ZNSt8_Rb_treeINSt7__cxx1112basic_stringIcSt11char_traitsIcESaIcEEESt4pairIKS5_PN7libMesh10Parameters5ValueEESt10_Select1stISC_ESt4lessIS5_ESaISC_EE14_M_insert_nodeEPSt18_Rb_tree_node_baseSK_PSt13_Rb_tree_nodeISC_E
FNDA:0,_ZNSt8_Rb_treeINSt7__cxx1112basic_stringIcSt11char_traitsIcESaIcEEESt4pairIKS5_PN7libMesh10Parameters5ValueEESt10_Select1stISC_ESt4lessIS5_ESaISC_EE14_M_insert_nodeEPSt18_Rb_tree_node_baseSK_PSt13_Rb_tree_nodeISC_E
FN:2360,_ZNSt8_Rb_treeINSt7__cxx1112basic_stringIcSt11char_traitsIcESaIcEEESt4pairIKS5_PF15InputParametersvEESt10_Select1stISB_ESt4lessIS5_ESaISB_EE14_M_insert_nodeEPSt18_Rb_tree_node_baseSJ_PSt13_Rb_tree_nodeISB_E
FNDA:0,_ZNSt8_Rb_treeINSt7__cxx1112basic_stringIcSt11char_traitsIcESaIcEEESt4pairIKS5_PF15InputParametersvEESt10_Select1stISB_ESt4lessIS5_ESaISB_EE14_M_insert_nodeEPSt18_Rb_tree_node_baseSJ_PSt13_Rb_tree_nodeISB_E
FN:2360,_ZNSt8_Rb_treeINSt7__cxx1112basic_stringIcSt11char_traitsIcESaIcEEESt4pairIKS5_N15InputParameters8MetadataEESt10_Select1stISA_ESt4lessIS5_ESaISA_EE14_M_insert_nodeEPSt18_Rb_tree_node_baseSI_PSt13_Rb_tree_nodeISA_E
FNDA:0,_ZNSt8_Rb_treeINSt7__cxx1112basic_stringIcSt11char_traitsIcESaIcEEESt4pairIKS5_N15InputParameters8MetadataEESt10_Select1stISA_ESt4lessIS5_ESaISA_EE14_M_insert_nodeEPSt18_Rb_tree_node_baseSI_PSt13_Rb_tree_nodeISA_E
FN:2360,_ZNSt8_Rb_treeINSt7__cxx1112basic_stringIcSt11char_traitsIcESaIcEEESt4pairIKS5_PFSt10shared_ptrI8MooseAppERK15InputParametersEESt10_Select1stISG_ESt4lessIS5_ESaISG_EE14_M_insert_nodeEPSt18_Rb_tree_node_baseSO_PSt13_Rb_tree_nodeISG_E
FNDA:0,_ZNSt8_Rb_treeINSt7__cxx1112basic_stringIcSt11char_traitsIcESaIcEEESt4pairIKS5_PFSt10shared_ptrI8MooseAppERK15InputParametersEESt10_Select1stISG_ESt4lessIS5_ESaISG_EE14_M_insert_nodeEPSt18_Rb_tree_node_baseSO_PSt13_Rb_tree_nodeISG_E
FN:2458,_ZNSt8_Rb_treeINSt7__cxx1112basic_stringIcSt11char_traitsIcESaIcEEESt4pairIKS5_N15InputParameters8MetadataEESt10_Select1stISA_ESt4lessIS5_ESaISA_EE22_M_emplace_hint_uniqueIJRKSt21piecewise_construct_tSt5tupleIJRS7_EESL_IJEEEEESt17_Rb_tree_iteratorISA_ESt23_Rb_tree_const_iteratorISA_EDpOT_
FNDA:0,_ZNSt8_Rb_treeINSt7__cxx1112basic_stringIcSt11char_traitsIcESaIcEEESt4pairIKS5_N15InputParameters8MetadataEESt10_Select1stISA_ESt4lessIS5_ESaISA_EE22_M_emplace_hint_uniqueIJRKSt21piecewise_construct_tSt5tupleIJRS7_EESL_IJEEEEESt17_Rb_tree_iteratorISA_ESt23_Rb_tree_const_iteratorISA_EDpOT_
FN:2458,_ZNSt8_Rb_treeINSt7__cxx1112basic_stringIcSt11char_traitsIcESaIcEEESt4pairIKS5_PFSt10shared_ptrI8MooseAppERK15InputParametersEESt10_Select1stISG_ESt4lessIS5_ESaISG_EE22_M_emplace_hint_uniqueIJRKSt21piecewise_construct_tSt5tupleIJRS7_EESR_IJEEEEESt17_Rb_tree_iteratorISG_ESt23_Rb_tree_const_iteratorISG_EDpOT_
FNDA:0,_ZNSt8_Rb_treeINSt7__cxx1112basic_stringIcSt11char_traitsIcESaIcEEESt4pairIKS5_PFSt10shared_ptrI8MooseAppERK15InputParametersEESt10_Select1stISG_ESt4lessIS5_ESaISG_EE22_M_emplace_hint_uniqueIJRKSt21piecewise_construct_tSt5tupleIJRS7_EESR_IJEEEEESt17_Rb_tree_iteratorISG_ESt23_Rb_tree_const_iteratorISG_EDpOT_
FN:2458,_ZNSt8_Rb_treeINSt7__cxx1112basic_stringIcSt11char_traitsIcESaIcEEESt4pairIKS5_PN7libMesh10Parameters5ValueEESt10_Select1stISC_ESt4lessIS5_ESaISC_EE22_M_emplace_hint_uniqueIJRKSt21piecewise_construct_tSt5tupleIJRS7_EESN_IJEEEEESt17_Rb_tree_iteratorISC_ESt23_Rb_tree_const_iteratorISC_EDpOT_
FNDA:0,_ZNSt8_Rb_treeINSt7__cxx1112basic_stringIcSt11char_traitsIcESaIcEEESt4pairIKS5_PN7libMesh10Parameters5ValueEESt10_Select1stISC_ESt4lessIS5_ESaISC_EE22_M_emplace_hint_uniqueIJRKSt21piecewise_construct_tSt5tupleIJRS7_EESN_IJEEEEESt17_Rb_tree_iteratorISC_ESt23_Rb_tree_const_iteratorISC_EDpOT_
FN:2458,_ZNSt8_Rb_treeINSt7__cxx1112basic_stringIcSt11char_traitsIcESaIcEEESt4pairIKS5_PF15InputParametersvEESt10_Select1stISB_ESt4lessIS5_ESaISB_EE22_M_emplace_hint_uniqueIJRKSt21piecewise_construct_tSt5tupleIJRS7_EESM_IJEEEEESt17_Rb_tree_iteratorISB_ESt23_Rb_tree_const_iteratorISB_EDpOT_
FNDA:0,_ZNSt8_Rb_treeINSt7__cxx1112basic_stringIcSt11char_traitsIcESaIcEEESt4pairIKS5_PF15InputParametersvEESt10_Select1stISB_ESt4lessIS5_ESaISB_EE22_M_emplace_hint_uniqueIJRKSt21piecewise_construct_tSt5tupleIJRS7_EESM_IJEEEEESt17_Rb_tree_iteratorISB_ESt23_Rb_tree_const_iteratorISB_EDpOT_
FN:2510,_ZNSt8_Rb_treeINSt7__cxx1112basic_stringIcSt11char_traitsIcESaIcEEESt4pairIKS5_PN7libMesh10Parameters5ValueEESt10_Select1stISC_ESt4lessIS5_ESaISC_EE12_M_erase_auxESt23_Rb_tree_const_iteratorISC_E
FNDA:0,_ZNSt8_Rb_treeINSt7__cxx1112basic_stringIcSt11char_traitsIcESaIcEEESt4pairIKS5_PN7libMesh10Parameters5ValueEESt10_Select1stISC_ESt4lessIS5_ESaISC_EE12_M_erase_auxESt23_Rb_tree_const_iteratorISC_E
FN:2550,_ZNSt8_Rb_treeINSt7__cxx1112basic_stringIcSt11char_traitsIcESaIcEEESt4pairIKS5_PN7libMesh10Parameters5ValueEESt10_Select1stISC_ESt4lessIS5_ESaISC_EE4findERS7_
FNDA:0,_ZNSt8_Rb_treeINSt7__cxx1112basic_stringIcSt11char_traitsIcESaIcEEESt4pairIKS5_PN7libMesh10Parameters5ValueEESt10_Select1stISC_ESt4lessIS5_ESaISC_EE4findERS7_
FN:2563,_ZNKSt8_Rb_treeINSt7__cxx1112basic_stringIcSt11char_traitsIcESaIcEEESt4pairIKS5_PF15InputParametersvEESt10_Select1stISB_ESt4lessIS5_ESaISB_EE4findERS7_
FNDA:0,_ZNKSt8_Rb_treeINSt7__cxx1112basic_stringIcSt11char_traitsIcESaIcEEESt4pairIKS5_PF15InputParametersvEESt10_Select1stISB_ESt4lessIS5_ESaISB_EE4findERS7_
FN:2563,_ZNKSt8_Rb_treeINSt7__cxx1112basic_stringIcSt11char_traitsIcESaIcEEESt4pairIKS5_PN7libMesh10Parameters5ValueEESt10_Select1stISC_ESt4lessIS5_ESaISC_EE4findERS7_
FNDA:0,_ZNKSt8_Rb_treeINSt7__cxx1112basic_stringIcSt11char_traitsIcESaIcEEESt4pairIKS5_PN7libMesh10Parameters5ValueEESt10_Select1stISC_ESt4lessIS5_ESaISC_EE4findERS7_
FNF:50
FNH:6
DA:152,116
DA:174,116
DA:175,116
DA:208,116
DA:209,116
DA:210,116
DA:211,116
DA:287,0
DA:302,0
DA:303,0
DA:350,116
DA:351,0
DA:355,0
DA:368,0
DA:369,0
DA:397,0
DA:542,116
DA:543,116
DA:552,116
DA:571,0
DA:613,116
DA:622,0
DA:624,0
DA:626,0
DA:628,116
DA:613,0
DA:622,0
DA:624,0
DA:626,0
DA:628,0
DA:613,0
DA:622,0
DA:624,0
DA:626,0
DA:628,0
DA:613,0
DA:622,0
DA:624,0
DA:626,0
DA:628,0
DA:613,0
DA:622,0
DA:624,0
DA:626,0
DA:628,0
DA:632,116
DA:635,116
DA:636,116
DA:632,0
DA:635,0
DA:636,0
DA:632,0
DA:635,0
DA:636,0
DA:632,0
DA:635,0
DA:636,0
DA:632,0
DA:635,0
DA:636,0
DA:647,116
DA:652,0
DA:656,0
DA:652,0
DA:656,0
DA:714,116
DA:749,116
DA:755,0
DA:760,116
DA:764,0
DA:790,116
DA:794,0
DA:798,0
DA:802,0
DA:991,116
DA:1003,0
DA:1007,0
DA:1011,0
DA:1015,0
DA:1035,0
DA:1039,0
DA:1105,116
DA:1108,232
DA:1109,116
DA:1110,116
DA:1211,0
DA:1214,0
DA:1216,0
DA:1217,0
DA:1277,0
DA:1803,116
DA:1812,116
DA:1813,116
DA:1818,116
DA:1819,116
DA:1820,116
DA:1821,116
DA:1913,0
DA:1917,0
DA:1919,0
DA:1921,0
DA:1924,0
DA:1913,0
DA:1917,0
DA:1919,0
DA:1921,0
DA:1924,0
DA:1913,232
DA:1917,348
DA:1919,116
DA:1924,232
DA:1913,0
DA:1917,0
DA:1919,0
DA:1924,0
DA:1913,0
DA:1917,0
DA:1919,0
DA:1924,0
DA:1913,0
DA:1917,0
DA:1919,0
DA:1924,0
DA:1930,0
DA:1934,0
DA:1935,0
DA:1939,0
DA:1930,0
DA:1934,0
DA:1935,0
DA:1939,0
DA:1930,0
DA:1934,0
DA:1935,0
DA:1939,0
DA:1930,0
DA:1934,0
DA:1935,0
DA:1939,0
DA:1946,0
DA:1950,0
DA:1951,0
DA:1955,0
DA:1946,0
DA:1950,0
DA:1951,0
DA:1955,0
DA:2091,0
DA:2098,0
DA:2102,0
DA:2105,0
DA:2107,0
DA:2108,0
DA:2112,0
DA:2113,0
DA:2114,0
DA:2091,0
DA:2098,0
DA:2102,0
DA:2105,0
DA:2107,0
DA:2108,0
DA:2112,0
DA:2113,0
DA:2114,0
DA:2091,0
DA:2098,0
DA:2102,0
DA:2105,0
DA:2107,0
DA:2108,0
DA:2112,0
DA:2113,0
DA:2114,0
DA:2091,0
DA:2098,0
DA:2102,0
DA:2105,0
DA:2107,0
DA:2108,0
DA:2112,0
DA:2113,0
DA:2114,0
DA:2091,0
DA:2098,0
DA:2102,0
DA:2105,0
DA:2107,0
DA:2108,0
DA:2112,0
DA:2113,0
DA:2114,0
DA:2193,0
DA:2201,0
DA:2204,0
DA:2205,0
DA:2207,0
DA:2209,0
DA:2213,0
DA:2214,0
DA:2215,0
DA:2217,0
DA:2218,0
DA:2220,0
DA:2223,0
DA:2225,0
DA:2229,0
DA:2230,0
DA:2231,0
DA:2233,0
DA:2234,0
DA:2236,0
DA:2239,0
DA:2243,0
DA:2193,0
DA:2201,0
DA:2204,0
DA:2205,0
DA:2207,0
DA:2209,0
DA:2213,0
DA:2214,0
DA:2215,0
DA:2217,0
DA:2218,0
DA:2220,0
DA:2223,0
DA:2225,0
DA:2229,0
DA:2230,0
DA:2231,0
DA:2233,0
DA:2234,0
DA:2236,0
DA:2239,0
DA:2243,0
DA:2193,0
DA:2201,0
DA:2204,0
DA:2205,0
DA:2207,0
DA:2209,0
DA:2213,0
DA:2214,0
DA:2215,0
DA:2217,0
DA:2218,0
DA:2220,0
DA:2223,0
DA:2225,0
DA:2229,0
DA:2230,0
DA:2231,0
DA:2233,0
DA:2234,0
DA:2236,0
DA:2239,0
DA:2243,0
DA:2193,0
DA:2201,0
DA:2204,0
DA:2205,0
DA:2207,0
DA:2209,0
DA:2213,0
DA:2214,0
DA:2215,0
DA:2217,0
DA:2218,0
DA:2220,0
DA:2223,0
DA:2225,0
DA:2229,0
DA:2230,0
DA:2231,0
DA:2233,0
DA:2234,0
DA:2236,0
DA:2239,0
DA:2243,0
DA:2193,0
DA:2201,0
DA:2204,0
DA:2205,0
DA:2207,0
DA:2209,0
DA:2213,0
DA:2214,0
DA:2215,0
DA:2217,0
DA:2218,0
DA:2220,0
DA:2223,0
DA:2225,0
DA:2229,0
DA:2230,0
DA:2231,0
DA:2233,0
DA:2234,0
DA:2236,0
DA:2239,0
DA:2243,0
DA:2254,116
DA:2264,116
DA:2266,116
DA:2267,116
DA:2270,0
DA:2360,0
DA:2363,0
DA:2364,0
DA:2367,0
DA:2368,0
DA:2369,0
DA:2370,0
DA:2360,0
DA:2363,0
DA:2364,0
DA:2367,0
DA:2368,0
DA:2369,0
DA:2370,0
DA:2360,0
DA:2363,0
DA:2364,0
DA:2367,0
DA:2368,0
DA:2369,0
DA:2370,0
DA:2360,0
DA:2363,0
DA:2364,0
DA:2367,0
DA:2368,0
DA:2369,0
DA:2370,0
DA:2458,0
DA:2461,0
DA:2465,0
DA:2467,0
DA:2468,0
DA:2471,0
DA:2458,0
DA:2461,0
DA:2465,0
DA:2467,0
DA:2468,0
DA:2471,0
DA:2458,0
DA:2461,0
DA:2465,0
DA:2467,0
DA:2468,0
DA:2470,0
DA:2471,0
DA:2458,0
DA:2461,0
DA:2465,0
DA:2467,0
DA:2468,0
DA:2471,0
DA:2510,0
DA:2515,0
DA:2516,0
DA:2518,0
DA:2519,0
DA:2550,0
DA:2553,0
DA:2555,0
DA:2556,0
DA:2563,0
DA:2566,0
DA:2568,0
DA:2569,0
DA:2563,0
DA:2566,0
DA:2568,0
DA:2569,0
LF:377
LH:41
end_of_record
SF:/usr/share/miniconda/envs/moose/x86_64-conda-linux-gnu/include/c++/10.3.0/bits/stl_map.h
FN:492,_ZNSt3mapINSt7__cxx1112basic_stringIcSt11char_traitsIcESaIcEEEPF15InputParametersvESt4lessIS5_ESaISt4pairIKS5_S8_EEEixERSC_
FNDA:0,_ZNSt3mapINSt7__cxx1112basic_stringIcSt11char_traitsIcESaIcEEEPF15InputParametersvESt4lessIS5_ESaISt4pairIKS5_S8_EEEixERSC_
FN:492,_ZNSt3mapINSt7__cxx1112basic_stringIcSt11char_traitsIcESaIcEEEPFSt10shared_ptrI8MooseAppERK15InputParametersESt4lessIS5_ESaISt4pairIKS5_SD_EEEixERSH_
FNDA:0,_ZNSt3mapINSt7__cxx1112basic_stringIcSt11char_traitsIcESaIcEEEPFSt10shared_ptrI8MooseAppERK15InputParametersESt4lessIS5_ESaISt4pairIKS5_SD_EEEixERSH_
FN:492,_ZNSt3mapINSt7__cxx1112basic_stringIcSt11char_traitsIcESaIcEEEN15InputParameters8MetadataESt4lessIS5_ESaISt4pairIKS5_S7_EEEixERSB_
FNDA:0,_ZNSt3mapINSt7__cxx1112basic_stringIcSt11char_traitsIcESaIcEEEN15InputParameters8MetadataESt4lessIS5_ESaISt4pairIKS5_S7_EEEixERSB_
FN:492,_ZNSt3mapINSt7__cxx1112basic_stringIcSt11char_traitsIcESaIcEEEPN7libMesh10Parameters5ValueESt4lessIS5_ESaISt4pairIKS5_S9_EEEixERSD_
FNDA:0,_ZNSt3mapINSt7__cxx1112basic_stringIcSt11char_traitsIcESaIcEEEPN7libMesh10Parameters5ValueESt4lessIS5_ESaISt4pairIKS5_S9_EEEixERSD_
FN:1258,_ZNSt3mapINSt7__cxx1112basic_stringIcSt11char_traitsIcESaIcEEEPF15InputParametersvESt4lessIS5_ESaISt4pairIKS5_S8_EEE11lower_boundERSC_
FNDA:0,_ZNSt3mapINSt7__cxx1112basic_stringIcSt11char_traitsIcESaIcEEEPF15InputParametersvESt4lessIS5_ESaISt4pairIKS5_S8_EEE11lower_boundERSC_
FN:1258,_ZNSt3mapINSt7__cxx1112basic_stringIcSt11char_traitsIcESaIcEEEPFSt10shared_ptrI8MooseAppERK15InputParametersESt4lessIS5_ESaISt4pairIKS5_SD_EEE11lower_boundERSH_
FNDA:0,_ZNSt3mapINSt7__cxx1112basic_stringIcSt11char_traitsIcESaIcEEEPFSt10shared_ptrI8MooseAppERK15InputParametersESt4lessIS5_ESaISt4pairIKS5_SD_EEE11lower_boundERSH_
FN:1258,_ZNSt3mapINSt7__cxx1112basic_stringIcSt11char_traitsIcESaIcEEEN15InputParameters8MetadataESt4lessIS5_ESaISt4pairIKS5_S7_EEE11lower_boundERSB_
FNDA:0,_ZNSt3mapINSt7__cxx1112basic_stringIcSt11char_traitsIcESaIcEEEN15InputParameters8MetadataESt4lessIS5_ESaISt4pairIKS5_S7_EEE11lower_boundERSB_
FN:1258,_ZNSt3mapINSt7__cxx1112basic_stringIcSt11char_traitsIcESaIcEEEPN7libMesh10Parameters5ValueESt4lessIS5_ESaISt4pairIKS5_S9_EEE11lower_boundERSD_
FNDA:0,_ZNSt3mapINSt7__cxx1112basic_stringIcSt11char_traitsIcESaIcEEEPN7libMesh10Parameters5ValueESt4lessIS5_ESaISt4pairIKS5_S9_EEE11lower_boundERSD_
FNF:8
FNH:0
DA:302,0
DA:492,0
DA:497,0
DA:499,0
DA:501,0
DA:502,0
DA:503,0
DA:507,0
DA:492,0
DA:497,0
DA:499,0
DA:501,0
DA:502,0
DA:503,0
DA:507,0
DA:492,0
DA:497,0
DA:499,0
DA:501,0
DA:502,0
DA:503,0
DA:507,0
DA:492,0
DA:497,0
DA:499,0
DA:501,0
DA:502,0
DA:503,0
DA:507,0
DA:1038,0
DA:1170,0
DA:1195,0
DA:1216,0
DA:1258,0
DA:1259,0
DA:1258,0
DA:1259,0
DA:1258,0
DA:1259,0
DA:1258,0
DA:1259,0
LF:41
LH:0
end_of_record
SF:/home/runner/work/raccoon/raccoon/build/header_symlinks/raccoonApp.h
LF:0
LH:0
end_of_record
TN:
SF:/home/runner/work/raccoon/raccoon/src/ics/CohesiveDamageIC.C
FN:10,_ZN16CohesiveDamageIC11validParamsEv
FNDA:155,_ZN16CohesiveDamageIC11validParamsEv
FN:20,_ZN16CohesiveDamageICC2ERK15InputParameters
FNDA:0,_ZN16CohesiveDamageICC2ERK15InputParameters
FN:23,_ZN16CohesiveDamageIC5valueERKN7libMesh5PointE
FNDA:0,_ZN16CohesiveDamageIC5valueERKN7libMesh5PointE
FNF:3
FNH:1
DA:10,155
DA:12,155
DA:13,155
DA:17,155
DA:20,0
DA:23,0
DA:25,0
DA:27,0
DA:28,0
DA:29,0
DA:31,0
DA:33,0
LF:12
LH:4
end_of_record
SF:/home/runner/work/raccoon/raccoon/build/header_symlinks/CohesiveDamageIC.h
LF:0
LH:0
end_of_record
SF:/usr/share/miniconda/envs/moose/libmesh/include/timpi/message_tag.h
LF:0
LH:0
end_of_record
SF:/usr/share/miniconda/envs/moose/x86_64-conda-linux-gnu/include/c++/10.3.0/bits/shared_ptr.h
FN:407,_ZNSt10shared_ptrI16CohesiveDamageICEC2ISaIS0_EJRK15InputParametersEEESt20_Sp_alloc_shared_tagIT_EDpOT0_
FNDA:0,_ZNSt10shared_ptrI16CohesiveDamageICEC2ISaIS0_EJRK15InputParametersEEESt20_Sp_alloc_shared_tagIT_EDpOT0_
FN:407,_ZNSt10shared_ptrI15BrittleDamageICEC2ISaIS0_EJRK15InputParametersEEESt20_Sp_alloc_shared_tagIT_EDpOT0_
FNDA:0,_ZNSt10shared_ptrI15BrittleDamageICEC2ISaIS0_EJRK15InputParametersEEESt20_Sp_alloc_shared_tagIT_EDpOT0_
FNF:2
FNH:0
DA:121,0
DA:407,0
DA:408,0
DA:409,0
DA:407,0
DA:408,0
DA:409,0
DA:860,0
DA:875,0
LF:9
LH:0
end_of_record
SF:/usr/share/miniconda/envs/moose/x86_64-conda-linux-gnu/include/c++/10.3.0/bits/stl_vector.h
FN:333,_ZNSt12_Vector_baseISt5tupleIJNSt7__cxx1112basic_stringIcSt11char_traitsIcESaIcEEEN5Moose23RelationshipManagerTypeESt8functionIFvRK15InputParametersRSA_EEEESaISG_EED2Ev
FNDA:0,_ZNSt12_Vector_baseISt5tupleIJNSt7__cxx1112basic_stringIcSt11char_traitsIcESaIcEEEN5Moose23RelationshipManagerTypeESt8functionIFvRK15InputParametersRSA_EEEESaISG_EED2Ev
FN:333,_ZNSt12_Vector_baseINSt7__cxx1112basic_stringIcSt11char_traitsIcESaIcEEESaIS5_EED2Ev
FNDA:0,_ZNSt12_Vector_baseINSt7__cxx1112basic_stringIcSt11char_traitsIcESaIcEEESaIS5_EED2Ev
FN:333,_ZNSt12_Vector_baseISt6vectorIS0_IS0_ISt4pairIhhESaIS2_EESaIS4_EESaIS6_EESaIS8_EED2Ev
FNDA:0,_ZNSt12_Vector_baseISt6vectorIS0_IS0_ISt4pairIhhESaIS2_EESaIS4_EESaIS6_EESaIS8_EED2Ev
FN:333,_ZNSt12_Vector_baseISt6vectorIS0_IaSaIaEESaIS2_EESaIS4_EED2Ev
FNDA:0,_ZNSt12_Vector_baseISt6vectorIS0_IaSaIaEESaIS2_EESaIS4_EED2Ev
FN:333,_ZNSt12_Vector_baseIdSaIdEED2Ev
FNDA:55864,_ZNSt12_Vector_baseIdSaIdEED2Ev
FN:333,_ZNSt12_Vector_baseISt6vectorIS0_ISt4pairIhhESaIS2_EESaIS4_EESaIS6_EED2Ev
FNDA:0,_ZNSt12_Vector_baseISt6vectorIS0_ISt4pairIhhESaIS2_EESaIS4_EESaIS6_EED2Ev
FN:333,_ZNSt12_Vector_baseISt6vectorIaSaIaEESaIS2_EED2Ev
FNDA:0,_ZNSt12_Vector_baseISt6vectorIaSaIaEESaIS2_EED2Ev
FN:333,_ZNSt12_Vector_baseISt6vectorISt4pairIhhESaIS2_EESaIS4_EED2Ev
FNDA:0,_ZNSt12_Vector_baseISt6vectorISt4pairIhhESaIS2_EESaIS4_EED2Ev
FN:333,_ZNSt12_Vector_baseIaSaIaEED2Ev
FNDA:0,_ZNSt12_Vector_baseIaSaIaEED2Ev
FN:333,_ZNSt12_Vector_baseISt4pairIhhESaIS1_EED2Ev
FNDA:0,_ZNSt12_Vector_baseISt4pairIhhESaIS1_EED2Ev
FN:359,_ZNSt12_Vector_baseIdSaIdEE17_M_create_storageEm
FNDA:0,_ZNSt12_Vector_baseIdSaIdEE17_M_create_storageEm
FN:553,_ZNSt6vectorIdSaIdEEC2ERKS1_
FNDA:0,_ZNSt6vectorIdSaIdEEC2ERKS1_
FN:625,_ZNSt6vectorIdSaIdEEC2ESt16initializer_listIdERKS0_
FNDA:0,_ZNSt6vectorIdSaIdEEC2ESt16initializer_listIdERKS0_
FN:678,_ZNSt6vectorIS_ISt4pairIhhESaIS1_EESaIS3_EED2Ev
FNDA:0,_ZNSt6vectorIS_ISt4pairIhhESaIS1_EESaIS3_EED2Ev
FN:678,_ZNSt6vectorIS_IaSaIaEESaIS1_EED2Ev
FNDA:0,_ZNSt6vectorIS_IaSaIaEESaIS1_EED2Ev
FN:678,_ZNSt6vectorIS_IS_ISt4pairIhhESaIS1_EESaIS3_EESaIS5_EED2Ev
FNDA:0,_ZNSt6vectorIS_IS_ISt4pairIhhESaIS1_EESaIS3_EESaIS5_EED2Ev
FN:678,_ZNSt6vectorIS_IS_IaSaIaEESaIS1_EESaIS3_EED2Ev
FNDA:0,_ZNSt6vectorIS_IS_IaSaIaEESaIS1_EESaIS3_EED2Ev
FN:678,_ZNSt6vectorIS_IS_IS_ISt4pairIhhESaIS1_EESaIS3_EESaIS5_EESaIS7_EED2Ev
FNDA:0,_ZNSt6vectorIS_IS_IS_ISt4pairIhhESaIS1_EESaIS3_EESaIS5_EESaIS7_EED2Ev
FN:678,_ZNSt6vectorISt5tupleIJNSt7__cxx1112basic_stringIcSt11char_traitsIcESaIcEEEN5Moose23RelationshipManagerTypeESt8functionIFvRK15InputParametersRSA_EEEESaISG_EED2Ev
FNDA:0,_ZNSt6vectorISt5tupleIJNSt7__cxx1112basic_stringIcSt11char_traitsIcESaIcEEEN5Moose23RelationshipManagerTypeESt8functionIFvRK15InputParametersRSA_EEEESaISG_EED2Ev
FN:678,_ZNSt6vectorINSt7__cxx1112basic_stringIcSt11char_traitsIcESaIcEEESaIS5_EED2Ev
FNDA:0,_ZNSt6vectorINSt7__cxx1112basic_stringIcSt11char_traitsIcESaIcEEESaIS5_EED2Ev
FN:1508,_ZNSt6vectorIdSaIdEE20_M_allocate_and_copyIN9__gnu_cxx17__normal_iteratorIPKdS1_EEEEPdmT_S9_
FNDA:3305,_ZNSt6vectorIdSaIdEE20_M_allocate_and_copyIN9__gnu_cxx17__normal_iteratorIPKdS1_EEEEPdmT_S9_
FN:1577,_ZNSt6vectorIdSaIdEE19_M_range_initializeIPKdEEvT_S5_St20forward_iterator_tag
FNDA:0,_ZNSt6vectorIdSaIdEE19_M_range_initializeIPKdEEvT_S5_St20forward_iterator_tag
FNF:22
FNH:2
DA:97,28496
DA:98,28496
DA:277,0
DA:305,0
DA:333,0
DA:336,0
DA:337,0
DA:333,0
DA:336,0
DA:337,0
DA:333,0
DA:335,0
DA:336,0
DA:337,0
DA:333,0
DA:336,0
DA:337,0
DA:333,0
DA:336,0
DA:337,0
DA:333,0
DA:336,0
DA:337,0
DA:333,55864
DA:336,55864
DA:337,55864
DA:333,0
DA:336,0
DA:337,0
DA:333,0
DA:336,0
DA:337,0
DA:333,0
DA:336,0
DA:337,0
DA:346,3305
DA:353,59169
DA:359,0
DA:361,0
DA:362,0
DA:363,0
DA:364,0
DA:553,0
DA:555,0
DA:557,0
DA:558,0
DA:561,0
DA:625,0
DA:627,0
DA:629,0
DA:631,0
DA:678,0
DA:680,0
DA:683,0
DA:678,0
DA:680,0
DA:683,0
DA:678,0
DA:680,0
DA:683,0
DA:678,0
DA:680,0
DA:683,0
DA:678,0
DA:680,0
DA:683,0
DA:678,0
DA:680,0
DA:683,0
DA:678,0
DA:680,0
DA:683,0
DA:683,0
DA:919,18005
DA:999,21310
DA:1000,21310
DA:1046,0
DA:1508,3305
DA:1516,3305
DA:1577,0
DA:1580,0
DA:1582,0
DA:1583,0
DA:1584,0
DA:1588,0
DA:1769,0
DA:1770,0
LF:87
LH:12
end_of_record
SF:/usr/share/miniconda/envs/moose/x86_64-conda-linux-gnu/include/c++/10.3.0/ext/new_allocator.h
FN:148,_ZN9__gnu_cxx13new_allocatorISt13_Rb_tree_nodeISt4pairIKNSt7__cxx1112basic_stringIcSt11char_traitsIcESaIcEEEN15InputParameters8MetadataEEEE9constructISC_JRKSt21piecewise_construct_tSt5tupleIJRS9_EESJ_IJEEEEEvPT_DpOT0_
FNDA:0,_ZN9__gnu_cxx13new_allocatorISt13_Rb_tree_nodeISt4pairIKNSt7__cxx1112basic_stringIcSt11char_traitsIcESaIcEEEN15InputParameters8MetadataEEEE9constructISC_JRKSt21piecewise_construct_tSt5tupleIJRS9_EESJ_IJEEEEEvPT_DpOT0_
FNF:1
FNH:0
DA:105,3305
DA:106,0
DA:115,21193
DA:133,2231
DA:148,0
DA:150,0
DA:156,0
LF:7
LH:3
end_of_record
SF:/usr/share/miniconda/envs/moose/x86_64-conda-linux-gnu/include/c++/10.3.0/bits/stl_tree.h
FN:613,_ZNSt8_Rb_treeINSt7__cxx1112basic_stringIcSt11char_traitsIcESaIcEEESt4pairIKS5_PN7libMesh10Parameters5ValueEESt10_Select1stISC_ESt4lessIS5_ESaISC_EE17_M_construct_nodeIJRKSt21piecewise_construct_tSt5tupleIJRS7_EESN_IJEEEEEvPSt13_Rb_tree_nodeISC_EDpOT_
FNDA:17888,_ZNSt8_Rb_treeINSt7__cxx1112basic_stringIcSt11char_traitsIcESaIcEEESt4pairIKS5_PN7libMesh10Parameters5ValueEESt10_Select1stISC_ESt4lessIS5_ESaISC_EE17_M_construct_nodeIJRKSt21piecewise_construct_tSt5tupleIJRS7_EESN_IJEEEEEvPSt13_Rb_tree_nodeISC_EDpOT_
FN:613,_ZNSt8_Rb_treeINSt7__cxx1112basic_stringIcSt11char_traitsIcESaIcEEESt4pairIKS5_N15InputParameters8MetadataEESt10_Select1stISA_ESt4lessIS5_ESaISA_EE17_M_construct_nodeIJRKSt21piecewise_construct_tSt5tupleIJRS7_EESL_IJEEEEEvPSt13_Rb_tree_nodeISA_EDpOT_
FNDA:0,_ZNSt8_Rb_treeINSt7__cxx1112basic_stringIcSt11char_traitsIcESaIcEEESt4pairIKS5_N15InputParameters8MetadataEESt10_Select1stISA_ESt4lessIS5_ESaISA_EE17_M_construct_nodeIJRKSt21piecewise_construct_tSt5tupleIJRS7_EESL_IJEEEEEvPSt13_Rb_tree_nodeISA_EDpOT_
FN:632,_ZNSt8_Rb_treeINSt7__cxx1112basic_stringIcSt11char_traitsIcESaIcEEESt4pairIKS5_PN7libMesh10Parameters5ValueEESt10_Select1stISC_ESt4lessIS5_ESaISC_EE14_M_create_nodeIJRKSt21piecewise_construct_tSt5tupleIJRS7_EESN_IJEEEEEPSt13_Rb_tree_nodeISC_EDpOT_
FNDA:17888,_ZNSt8_Rb_treeINSt7__cxx1112basic_stringIcSt11char_traitsIcESaIcEEESt4pairIKS5_PN7libMesh10Parameters5ValueEESt10_Select1stISC_ESt4lessIS5_ESaISC_EE14_M_create_nodeIJRKSt21piecewise_construct_tSt5tupleIJRS7_EESN_IJEEEEEPSt13_Rb_tree_nodeISC_EDpOT_
FN:632,_ZNSt8_Rb_treeINSt7__cxx1112basic_stringIcSt11char_traitsIcESaIcEEESt4pairIKS5_N15InputParameters8MetadataEESt10_Select1stISA_ESt4lessIS5_ESaISA_EE14_M_create_nodeIJRKSt21piecewise_construct_tSt5tupleIJRS7_EESL_IJEEEEEPSt13_Rb_tree_nodeISA_EDpOT_
FNDA:0,_ZNSt8_Rb_treeINSt7__cxx1112basic_stringIcSt11char_traitsIcESaIcEEESt4pairIKS5_N15InputParameters8MetadataEESt10_Select1stISA_ESt4lessIS5_ESaISA_EE14_M_create_nodeIJRKSt21piecewise_construct_tSt5tupleIJRS7_EESL_IJEEEEEPSt13_Rb_tree_nodeISA_EDpOT_
FN:652,_ZNSt8_Rb_treeI13MooseEnumItemS0_St9_IdentityIS0_ESt4lessIS0_ESaIS0_EE12_M_drop_nodeEPSt13_Rb_tree_nodeIS0_E
FNDA:0,_ZNSt8_Rb_treeI13MooseEnumItemS0_St9_IdentityIS0_ESt4lessIS0_ESaIS0_EE12_M_drop_nodeEPSt13_Rb_tree_nodeIS0_E
FN:652,_ZNSt8_Rb_treeINSt7__cxx1112basic_stringIcSt11char_traitsIcESaIcEEESt4pairIKS5_N15InputParameters8MetadataEESt10_Select1stISA_ESt4lessIS5_ESaISA_EE12_M_drop_nodeEPSt13_Rb_tree_nodeISA_E
FNDA:0,_ZNSt8_Rb_treeINSt7__cxx1112basic_stringIcSt11char_traitsIcESaIcEEESt4pairIKS5_N15InputParameters8MetadataEESt10_Select1stISA_ESt4lessIS5_ESaISA_EE12_M_drop_nodeEPSt13_Rb_tree_nodeISA_E
FN:1211,_ZNSt8_Rb_treeINSt7__cxx1112basic_stringIcSt11char_traitsIcESaIcEEESt4pairIKS5_PN7libMesh10Parameters5ValueEESt10_Select1stISC_ESt4lessIS5_ESaISC_EE5eraseB5cxx11ESt17_Rb_tree_iteratorISC_E
FNDA:0,_ZNSt8_Rb_treeINSt7__cxx1112basic_stringIcSt11char_traitsIcESaIcEEESt4pairIKS5_PN7libMesh10Parameters5ValueEESt10_Select1stISC_ESt4lessIS5_ESaISC_EE5eraseB5cxx11ESt17_Rb_tree_iteratorISC_E
FN:1913,_ZNSt8_Rb_treeINSt7__cxx1112basic_stringIcSt11char_traitsIcESaIcEEESt4pairIKS5_N15InputParameters8MetadataEESt10_Select1stISA_ESt4lessIS5_ESaISA_EE8_M_eraseEPSt13_Rb_tree_nodeISA_E
FNDA:0,_ZNSt8_Rb_treeINSt7__cxx1112basic_stringIcSt11char_traitsIcESaIcEEESt4pairIKS5_N15InputParameters8MetadataEESt10_Select1stISA_ESt4lessIS5_ESaISA_EE8_M_eraseEPSt13_Rb_tree_nodeISA_E
FN:1913,_ZNSt8_Rb_treeINSt7__cxx1112basic_stringIcSt11char_traitsIcESaIcEEESt4pairIKS5_PN7libMesh10Parameters5ValueEESt10_Select1stISC_ESt4lessIS5_ESaISC_EE8_M_eraseEPSt13_Rb_tree_nodeISC_E
FNDA:0,_ZNSt8_Rb_treeINSt7__cxx1112basic_stringIcSt11char_traitsIcESaIcEEESt4pairIKS5_PN7libMesh10Parameters5ValueEESt10_Select1stISC_ESt4lessIS5_ESaISC_EE8_M_eraseEPSt13_Rb_tree_nodeISC_E
FN:1913,_ZNSt8_Rb_treeIttSt9_IdentityItESt4lessItESaItEE8_M_eraseEPSt13_Rb_tree_nodeItE
FNDA:0,_ZNSt8_Rb_treeIttSt9_IdentityItESt4lessItESaItEE8_M_eraseEPSt13_Rb_tree_nodeItE
FN:1913,_ZNSt8_Rb_treeIssSt9_IdentityIsESt4lessIsESaIsEE8_M_eraseEPSt13_Rb_tree_nodeIsE
FNDA:0,_ZNSt8_Rb_treeIssSt9_IdentityIsESt4lessIsESaIsEE8_M_eraseEPSt13_Rb_tree_nodeIsE
FN:1913,_ZNSt8_Rb_treeINSt7__cxx1112basic_stringIcSt11char_traitsIcESaIcEEES5_St9_IdentityIS5_ESt4lessIS5_ESaIS5_EE8_M_eraseEPSt13_Rb_tree_nodeIS5_E
FNDA:0,_ZNSt8_Rb_treeINSt7__cxx1112basic_stringIcSt11char_traitsIcESaIcEEES5_St9_IdentityIS5_ESt4lessIS5_ESaIS5_EE8_M_eraseEPSt13_Rb_tree_nodeIS5_E
FN:1913,_ZNSt8_Rb_treeI13MooseEnumItemS0_St9_IdentityIS0_ESt4lessIS0_ESaIS0_EE8_M_eraseEPSt13_Rb_tree_nodeIS0_E
FNDA:0,_ZNSt8_Rb_treeI13MooseEnumItemS0_St9_IdentityIS0_ESt4lessIS0_ESaIS0_EE8_M_eraseEPSt13_Rb_tree_nodeIS0_E
FN:1930,_ZNSt8_Rb_treeINSt7__cxx1112basic_stringIcSt11char_traitsIcESaIcEEESt4pairIKS5_PN7libMesh10Parameters5ValueEESt10_Select1stISC_ESt4lessIS5_ESaISC_EE14_M_lower_boundEPSt13_Rb_tree_nodeISC_EPSt18_Rb_tree_node_baseRS7_
FNDA:17888,_ZNSt8_Rb_treeINSt7__cxx1112basic_stringIcSt11char_traitsIcESaIcEEESt4pairIKS5_PN7libMesh10Parameters5ValueEESt10_Select1stISC_ESt4lessIS5_ESaISC_EE14_M_lower_boundEPSt13_Rb_tree_nodeISC_EPSt18_Rb_tree_node_baseRS7_
FN:1930,_ZNSt8_Rb_treeINSt7__cxx1112basic_stringIcSt11char_traitsIcESaIcEEESt4pairIKS5_N15InputParameters8MetadataEESt10_Select1stISA_ESt4lessIS5_ESaISA_EE14_M_lower_boundEPSt13_Rb_tree_nodeISA_EPSt18_Rb_tree_node_baseRS7_
FNDA:0,_ZNSt8_Rb_treeINSt7__cxx1112basic_stringIcSt11char_traitsIcESaIcEEESt4pairIKS5_N15InputParameters8MetadataEESt10_Select1stISA_ESt4lessIS5_ESaISA_EE14_M_lower_boundEPSt13_Rb_tree_nodeISA_EPSt18_Rb_tree_node_baseRS7_
FN:1946,_ZNKSt8_Rb_treeINSt7__cxx1112basic_stringIcSt11char_traitsIcESaIcEEESt4pairIKS5_PN7libMesh10Parameters5ValueEESt10_Select1stISC_ESt4lessIS5_ESaISC_EE14_M_lower_boundEPKSt13_Rb_tree_nodeISC_EPKSt18_Rb_tree_node_baseRS7_
FNDA:0,_ZNKSt8_Rb_treeINSt7__cxx1112basic_stringIcSt11char_traitsIcESaIcEEESt4pairIKS5_PN7libMesh10Parameters5ValueEESt10_Select1stISC_ESt4lessIS5_ESaISC_EE14_M_lower_boundEPKSt13_Rb_tree_nodeISC_EPKSt18_Rb_tree_node_baseRS7_
FN:2091,_ZNSt8_Rb_treeINSt7__cxx1112basic_stringIcSt11char_traitsIcESaIcEEESt4pairIKS5_N15InputParameters8MetadataEESt10_Select1stISA_ESt4lessIS5_ESaISA_EE24_M_get_insert_unique_posERS7_
FNDA:0,_ZNSt8_Rb_treeINSt7__cxx1112basic_stringIcSt11char_traitsIcESaIcEEESt4pairIKS5_N15InputParameters8MetadataEESt10_Select1stISA_ESt4lessIS5_ESaISA_EE24_M_get_insert_unique_posERS7_
FN:2091,_ZNSt8_Rb_treeINSt7__cxx1112basic_stringIcSt11char_traitsIcESaIcEEESt4pairIKS5_PN7libMesh10Parameters5ValueEESt10_Select1stISC_ESt4lessIS5_ESaISC_EE24_M_get_insert_unique_posERS7_
FNDA:0,_ZNSt8_Rb_treeINSt7__cxx1112basic_stringIcSt11char_traitsIcESaIcEEESt4pairIKS5_PN7libMesh10Parameters5ValueEESt10_Select1stISC_ESt4lessIS5_ESaISC_EE24_M_get_insert_unique_posERS7_
FN:2193,_ZNSt8_Rb_treeINSt7__cxx1112basic_stringIcSt11char_traitsIcESaIcEEESt4pairIKS5_N15InputParameters8MetadataEESt10_Select1stISA_ESt4lessIS5_ESaISA_EE29_M_get_insert_hint_unique_posESt23_Rb_tree_const_iteratorISA_ERS7_
FNDA:0,_ZNSt8_Rb_treeINSt7__cxx1112basic_stringIcSt11char_traitsIcESaIcEEESt4pairIKS5_N15InputParameters8MetadataEESt10_Select1stISA_ESt4lessIS5_ESaISA_EE29_M_get_insert_hint_unique_posESt23_Rb_tree_const_iteratorISA_ERS7_
FN:2193,_ZNSt8_Rb_treeINSt7__cxx1112basic_stringIcSt11char_traitsIcESaIcEEESt4pairIKS5_PN7libMesh10Parameters5ValueEESt10_Select1stISC_ESt4lessIS5_ESaISC_EE29_M_get_insert_hint_unique_posESt23_Rb_tree_const_iteratorISC_ERS7_
FNDA:0,_ZNSt8_Rb_treeINSt7__cxx1112basic_stringIcSt11char_traitsIcESaIcEEESt4pairIKS5_PN7libMesh10Parameters5ValueEESt10_Select1stISC_ESt4lessIS5_ESaISC_EE29_M_get_insert_hint_unique_posESt23_Rb_tree_const_iteratorISC_ERS7_
FN:2360,_ZNSt8_Rb_treeINSt7__cxx1112basic_stringIcSt11char_traitsIcESaIcEEESt4pairIKS5_PN7libMesh10Parameters5ValueEESt10_Select1stISC_ESt4lessIS5_ESaISC_EE14_M_insert_nodeEPSt18_Rb_tree_node_baseSK_PSt13_Rb_tree_nodeISC_E
FNDA:17888,_ZNSt8_Rb_treeINSt7__cxx1112basic_stringIcSt11char_traitsIcESaIcEEESt4pairIKS5_PN7libMesh10Parameters5ValueEESt10_Select1stISC_ESt4lessIS5_ESaISC_EE14_M_insert_nodeEPSt18_Rb_tree_node_baseSK_PSt13_Rb_tree_nodeISC_E
FN:2360,_ZNSt8_Rb_treeINSt7__cxx1112basic_stringIcSt11char_traitsIcESaIcEEESt4pairIKS5_N15InputParameters8MetadataEESt10_Select1stISA_ESt4lessIS5_ESaISA_EE14_M_insert_nodeEPSt18_Rb_tree_node_baseSI_PSt13_Rb_tree_nodeISA_E
FNDA:0,_ZNSt8_Rb_treeINSt7__cxx1112basic_stringIcSt11char_traitsIcESaIcEEESt4pairIKS5_N15InputParameters8MetadataEESt10_Select1stISA_ESt4lessIS5_ESaISA_EE14_M_insert_nodeEPSt18_Rb_tree_node_baseSI_PSt13_Rb_tree_nodeISA_E
FN:2458,_ZNSt8_Rb_treeINSt7__cxx1112basic_stringIcSt11char_traitsIcESaIcEEESt4pairIKS5_N15InputParameters8MetadataEESt10_Select1stISA_ESt4lessIS5_ESaISA_EE22_M_emplace_hint_uniqueIJRKSt21piecewise_construct_tSt5tupleIJRS7_EESL_IJEEEEESt17_Rb_tree_iteratorISA_ESt23_Rb_tree_const_iteratorISA_EDpOT_
FNDA:0,_ZNSt8_Rb_treeINSt7__cxx1112basic_stringIcSt11char_traitsIcESaIcEEESt4pairIKS5_N15InputParameters8MetadataEESt10_Select1stISA_ESt4lessIS5_ESaISA_EE22_M_emplace_hint_uniqueIJRKSt21piecewise_construct_tSt5tupleIJRS7_EESL_IJEEEEESt17_Rb_tree_iteratorISA_ESt23_Rb_tree_const_iteratorISA_EDpOT_
FN:2458,_ZNSt8_Rb_treeINSt7__cxx1112basic_stringIcSt11char_traitsIcESaIcEEESt4pairIKS5_PN7libMesh10Parameters5ValueEESt10_Select1stISC_ESt4lessIS5_ESaISC_EE22_M_emplace_hint_uniqueIJRKSt21piecewise_construct_tSt5tupleIJRS7_EESN_IJEEEEESt17_Rb_tree_iteratorISC_ESt23_Rb_tree_const_iteratorISC_EDpOT_
FNDA:17888,_ZNSt8_Rb_treeINSt7__cxx1112basic_stringIcSt11char_traitsIcESaIcEEESt4pairIKS5_PN7libMesh10Parameters5ValueEESt10_Select1stISC_ESt4lessIS5_ESaISC_EE22_M_emplace_hint_uniqueIJRKSt21piecewise_construct_tSt5tupleIJRS7_EESN_IJEEEEESt17_Rb_tree_iteratorISC_ESt23_Rb_tree_const_iteratorISC_EDpOT_
FN:2510,_ZNSt8_Rb_treeINSt7__cxx1112basic_stringIcSt11char_traitsIcESaIcEEESt4pairIKS5_PN7libMesh10Parameters5ValueEESt10_Select1stISC_ESt4lessIS5_ESaISC_EE12_M_erase_auxESt23_Rb_tree_const_iteratorISC_E
FNDA:0,_ZNSt8_Rb_treeINSt7__cxx1112basic_stringIcSt11char_traitsIcESaIcEEESt4pairIKS5_PN7libMesh10Parameters5ValueEESt10_Select1stISC_ESt4lessIS5_ESaISC_EE12_M_erase_auxESt23_Rb_tree_const_iteratorISC_E
FN:2550,_ZNSt8_Rb_treeINSt7__cxx1112basic_stringIcSt11char_traitsIcESaIcEEESt4pairIKS5_PN7libMesh10Parameters5ValueEESt10_Select1stISC_ESt4lessIS5_ESaISC_EE4findERS7_
FNDA:0,_ZNSt8_Rb_treeINSt7__cxx1112basic_stringIcSt11char_traitsIcESaIcEEESt4pairIKS5_PN7libMesh10Parameters5ValueEESt10_Select1stISC_ESt4lessIS5_ESaISC_EE4findERS7_
FN:2563,_ZNKSt8_Rb_treeINSt7__cxx1112basic_stringIcSt11char_traitsIcESaIcEEESt4pairIKS5_PN7libMesh10Parameters5ValueEESt10_Select1stISC_ESt4lessIS5_ESaISC_EE4findERS7_
FNDA:0,_ZNKSt8_Rb_treeINSt7__cxx1112basic_stringIcSt11char_traitsIcESaIcEEESt4pairIKS5_PN7libMesh10Parameters5ValueEESt10_Select1stISC_ESt4lessIS5_ESaISC_EE4findERS7_
FNF:27
FNH:5
DA:287,0
DA:302,0
DA:303,0
DA:350,17888
DA:351,17888
DA:355,0
DA:368,0
DA:369,0
DA:571,0
DA:613,0
DA:622,0
DA:624,0
DA:626,0
DA:628,0
DA:613,17888
DA:622,0
DA:624,0
DA:626,0
DA:628,17888
DA:632,0
DA:635,0
DA:636,0
DA:632,17888
DA:635,17888
DA:636,17888
DA:647,0
DA:652,0
DA:656,0
DA:652,0
DA:656,0
DA:749,17888
DA:755,0
DA:760,27406
DA:764,0
DA:790,29998
DA:794,0
DA:798,62285
DA:802,0
DA:991,0
DA:1003,0
DA:1007,0
DA:1011,17888
DA:1015,67628
DA:1035,0
DA:1039,0
DA:1211,0
DA:1214,0
DA:1216,0
DA:1217,0
DA:1277,17888
DA:1913,0
DA:1917,0
DA:1919,0
DA:1921,0
DA:1924,0
DA:1913,0
DA:1917,0
DA:1919,0
DA:1921,0
DA:1924,0
DA:1913,0
DA:1917,0
DA:1919,0
DA:1924,0
DA:1913,0
DA:1917,0
DA:1919,0
DA:1924,0
DA:1913,0
DA:1917,0
DA:1919,0
DA:1924,0
DA:1913,0
DA:1917,0
DA:1919,0
DA:1924,0
DA:1930,0
DA:1934,0
DA:1935,0
DA:1939,0
DA:1930,17888
DA:1934,110171
DA:1935,92283
DA:1939,17888
DA:1946,0
DA:1950,0
DA:1951,0
DA:1955,0
DA:2091,0
DA:2098,0
DA:2102,0
DA:2105,0
DA:2107,0
DA:2108,0
DA:2112,0
DA:2113,0
DA:2114,0
DA:2091,0
DA:2098,0
DA:2102,0
DA:2105,0
DA:2107,0
DA:2108,0
DA:2112,0
DA:2113,0
DA:2114,0
DA:2193,0
DA:2201,0
DA:2204,0
DA:2205,0
DA:2207,0
DA:2209,0
DA:2213,0
DA:2214,0
DA:2215,0
DA:2217,0
DA:2218,0
DA:2220,0
DA:2223,0
DA:2225,0
DA:2229,0
DA:2230,0
DA:2231,0
DA:2233,0
DA:2234,0
DA:2236,0
DA:2239,0
DA:2243,0
DA:2193,0
DA:2201,0
DA:2204,0
DA:2205,0
DA:2207,0
DA:2209,0
DA:2213,0
DA:2214,0
DA:2215,0
DA:2217,0
DA:2218,0
DA:2220,0
DA:2223,0
DA:2225,0
DA:2229,0
DA:2230,0
DA:2231,0
DA:2233,0
DA:2234,0
DA:2236,0
DA:2239,0
DA:2243,0
DA:2360,0
DA:2363,0
DA:2364,0
DA:2367,0
DA:2368,0
DA:2369,0
DA:2370,0
DA:2360,17888
DA:2363,9518
DA:2364,27406
DA:2367,17888
DA:2368,17888
DA:2369,17888
DA:2370,17888
DA:2458,0
DA:2461,0
DA:2465,0
DA:2467,0
DA:2468,0
DA:2470,0
DA:2471,0
DA:2458,17888
DA:2461,17888
DA:2465,17888
DA:2467,17888
DA:2468,17888
DA:2471,0
DA:2510,0
DA:2515,0
DA:2516,0
DA:2518,0
DA:2519,0
DA:2550,0
DA:2553,0
DA:2555,0
DA:2556,0
DA:2563,0
DA:2566,0
DA:2568,0
DA:2569,0
LF:190
LH:30
end_of_record
SF:/usr/share/miniconda/envs/moose/x86_64-conda-linux-gnu/include/c++/10.3.0/bits/hashtable.h
FN:411,_ZNSt10_HashtableINSt7__cxx1112basic_stringIcSt11char_traitsIcESaIcEEESt4pairIKS5_S5_ESaIS8_ENSt8__detail10_Select1stESt8equal_toIS5_ESt4hashIS5_ENSA_18_Mod_range_hashingENSA_20_Default_ranged_hashENSA_20_Prime_rehash_policyENSA_17_Hashtable_traitsILb1ELb0ELb1EEEE21_M_deallocate_bucketsEv
FNDA:0,_ZNSt10_HashtableINSt7__cxx1112basic_stringIcSt11char_traitsIcESaIcEEESt4pairIKS5_S5_ESaIS8_ENSt8__detail10_Select1stESt8equal_toIS5_ESt4hashIS5_ENSA_18_Mod_range_hashingENSA_20_Default_ranged_hashENSA_20_Prime_rehash_policyENSA_17_Hashtable_traitsILb1ELb0ELb1EEEE21_M_deallocate_bucketsEv
FN:2026,_ZNSt10_HashtableINSt7__cxx1112basic_stringIcSt11char_traitsIcESaIcEEESt4pairIKS5_S5_ESaIS8_ENSt8__detail10_Select1stESt8equal_toIS5_ESt4hashIS5_ENSA_18_Mod_range_hashingENSA_20_Default_ranged_hashENSA_20_Prime_rehash_policyENSA_17_Hashtable_traitsILb1ELb0ELb1EEEE5clearEv
FNDA:0,_ZNSt10_HashtableINSt7__cxx1112basic_stringIcSt11char_traitsIcESaIcEEESt4pairIKS5_S5_ESaIS8_ENSt8__detail10_Select1stESt8equal_toIS5_ESt4hashIS5_ENSA_18_Mod_range_hashingENSA_20_Default_ranged_hashENSA_20_Prime_rehash_policyENSA_17_Hashtable_traitsILb1ELb0ELb1EEEE5clearEv
FNF:2
FNH:0
DA:380,0
DA:404,0
DA:411,0
DA:412,0
DA:421,0
DA:1387,0
DA:1388,0
DA:2026,0
DA:2031,0
DA:2032,0
DA:2033,0
DA:2034,0
LF:12
LH:0
end_of_record
SF:/usr/share/miniconda/envs/moose/x86_64-conda-linux-gnu/include/c++/10.3.0/bits/stl_map.h
FN:492,_ZNSt3mapINSt7__cxx1112basic_stringIcSt11char_traitsIcESaIcEEEN15InputParameters8MetadataESt4lessIS5_ESaISt4pairIKS5_S7_EEEixERSB_
FNDA:0,_ZNSt3mapINSt7__cxx1112basic_stringIcSt11char_traitsIcESaIcEEEN15InputParameters8MetadataESt4lessIS5_ESaISt4pairIKS5_S7_EEEixERSB_
FN:492,_ZNSt3mapINSt7__cxx1112basic_stringIcSt11char_traitsIcESaIcEEEPN7libMesh10Parameters5ValueESt4lessIS5_ESaISt4pairIKS5_S9_EEEixERSD_
FNDA:17888,_ZNSt3mapINSt7__cxx1112basic_stringIcSt11char_traitsIcESaIcEEEPN7libMesh10Parameters5ValueESt4lessIS5_ESaISt4pairIKS5_S9_EEEixERSD_
FN:1258,_ZNSt3mapINSt7__cxx1112basic_stringIcSt11char_traitsIcESaIcEEEN15InputParameters8MetadataESt4lessIS5_ESaISt4pairIKS5_S7_EEE11lower_boundERSB_
FNDA:0,_ZNSt3mapINSt7__cxx1112basic_stringIcSt11char_traitsIcESaIcEEEN15InputParameters8MetadataESt4lessIS5_ESaISt4pairIKS5_S7_EEE11lower_boundERSB_
FN:1258,_ZNSt3mapINSt7__cxx1112basic_stringIcSt11char_traitsIcESaIcEEEPN7libMesh10Parameters5ValueESt4lessIS5_ESaISt4pairIKS5_S9_EEE11lower_boundERSD_
FNDA:17888,_ZNSt3mapINSt7__cxx1112basic_stringIcSt11char_traitsIcESaIcEEEPN7libMesh10Parameters5ValueESt4lessIS5_ESaISt4pairIKS5_S9_EEE11lower_boundERSD_
FNF:4
FNH:2
DA:302,0
DA:492,0
DA:497,0
DA:499,0
DA:501,0
DA:502,0
DA:503,0
DA:507,0
DA:492,17888
DA:497,17888
DA:499,17888
DA:501,17888
DA:502,17888
DA:503,17888
DA:507,17888
DA:1038,0
DA:1170,0
DA:1195,67628
DA:1258,0
DA:1259,0
DA:1258,17888
DA:1259,17888
LF:22
LH:10
end_of_record
SF:/usr/share/miniconda/envs/moose/libmesh/include/libmesh/tensor_tools.h
DA:87,0
LF:1
LH:0
end_of_record
SF:/usr/share/miniconda/envs/moose/x86_64-conda-linux-gnu/include/c++/10.3.0/complex
DA:1869,0
LF:1
LH:0
end_of_record
SF:/usr/share/miniconda/envs/moose/libmesh/include/libmesh/point.h
DA:61,0
DA:62,0
LF:2
LH:0
end_of_record
SF:/usr/share/miniconda/envs/moose/x86_64-conda-linux-gnu/include/c++/10.3.0/bits/std_function.h
FN:242,_ZNSt14_Function_baseD2Ev
FNDA:0,_ZNSt14_Function_baseD2Ev
FNF:1
FNH:0
DA:242,0
DA:243,0
DA:244,0
DA:245,0
DA:246,0
DA:303,0
LF:6
LH:0
end_of_record
SF:/usr/share/miniconda/envs/moose/x86_64-conda-linux-gnu/include/c++/10.3.0/bits/shared_ptr_base.h
FN:555,_ZNSt23_Sp_counted_ptr_inplaceI15BrittleDamageICSaIS0_ELN9__gnu_cxx12_Lock_policyE2EED0Ev
FNDA:0,_ZNSt23_Sp_counted_ptr_inplaceI15BrittleDamageICSaIS0_ELN9__gnu_cxx12_Lock_policyE2EED0Ev
FN:555,_ZNSt23_Sp_counted_ptr_inplaceI15BrittleDamageICSaIS0_ELN9__gnu_cxx12_Lock_policyE2EED2Ev
FNDA:0,_ZNSt23_Sp_counted_ptr_inplaceI15BrittleDamageICSaIS0_ELN9__gnu_cxx12_Lock_policyE2EED2Ev
FN:555,_ZNSt23_Sp_counted_ptr_inplaceI16CohesiveDamageICSaIS0_ELN9__gnu_cxx12_Lock_policyE2EED0Ev
FNDA:0,_ZNSt23_Sp_counted_ptr_inplaceI16CohesiveDamageICSaIS0_ELN9__gnu_cxx12_Lock_policyE2EED0Ev
FN:555,_ZNSt23_Sp_counted_ptr_inplaceI16CohesiveDamageICSaIS0_ELN9__gnu_cxx12_Lock_policyE2EED2Ev
FNDA:0,_ZNSt23_Sp_counted_ptr_inplaceI16CohesiveDamageICSaIS0_ELN9__gnu_cxx12_Lock_policyE2EED2Ev
FN:558,_ZNSt23_Sp_counted_ptr_inplaceI15BrittleDamageICSaIS0_ELN9__gnu_cxx12_Lock_policyE2EE10_M_disposeEv
FNDA:0,_ZNSt23_Sp_counted_ptr_inplaceI15BrittleDamageICSaIS0_ELN9__gnu_cxx12_Lock_policyE2EE10_M_disposeEv
FN:558,_ZNSt23_Sp_counted_ptr_inplaceI16CohesiveDamageICSaIS0_ELN9__gnu_cxx12_Lock_policyE2EE10_M_disposeEv
FNDA:0,_ZNSt23_Sp_counted_ptr_inplaceI16CohesiveDamageICSaIS0_ELN9__gnu_cxx12_Lock_policyE2EE10_M_disposeEv
FN:565,_ZNSt23_Sp_counted_ptr_inplaceI15BrittleDamageICSaIS0_ELN9__gnu_cxx12_Lock_policyE2EE10_M_destroyEv
FNDA:0,_ZNSt23_Sp_counted_ptr_inplaceI15BrittleDamageICSaIS0_ELN9__gnu_cxx12_Lock_policyE2EE10_M_destroyEv
FN:565,_ZNSt23_Sp_counted_ptr_inplaceI16CohesiveDamageICSaIS0_ELN9__gnu_cxx12_Lock_policyE2EE10_M_destroyEv
FNDA:0,_ZNSt23_Sp_counted_ptr_inplaceI16CohesiveDamageICSaIS0_ELN9__gnu_cxx12_Lock_policyE2EE10_M_destroyEv
FN:578,_ZNSt23_Sp_counted_ptr_inplaceI15BrittleDamageICSaIS0_ELN9__gnu_cxx12_Lock_policyE2EE14_M_get_deleterERKSt9type_info
FNDA:0,_ZNSt23_Sp_counted_ptr_inplaceI15BrittleDamageICSaIS0_ELN9__gnu_cxx12_Lock_policyE2EE14_M_get_deleterERKSt9type_info
FN:578,_ZNSt23_Sp_counted_ptr_inplaceI16CohesiveDamageICSaIS0_ELN9__gnu_cxx12_Lock_policyE2EE14_M_get_deleterERKSt9type_info
FNDA:0,_ZNSt23_Sp_counted_ptr_inplaceI16CohesiveDamageICSaIS0_ELN9__gnu_cxx12_Lock_policyE2EE14_M_get_deleterERKSt9type_info
FN:675,_ZNSt14__shared_countILN9__gnu_cxx12_Lock_policyE2EEC2I16CohesiveDamageICSaIS4_EJRK15InputParametersEEERPT_St20_Sp_alloc_shared_tagIT0_EDpOT1_
FNDA:0,_ZNSt14__shared_countILN9__gnu_cxx12_Lock_policyE2EEC2I16CohesiveDamageICSaIS4_EJRK15InputParametersEEERPT_St20_Sp_alloc_shared_tagIT0_EDpOT1_
FN:675,_ZNSt14__shared_countILN9__gnu_cxx12_Lock_policyE2EEC2I15BrittleDamageICSaIS4_EJRK15InputParametersEEERPT_St20_Sp_alloc_shared_tagIT0_EDpOT1_
FNDA:0,_ZNSt14__shared_countILN9__gnu_cxx12_Lock_policyE2EEC2I15BrittleDamageICSaIS4_EJRK15InputParametersEEERPT_St20_Sp_alloc_shared_tagIT0_EDpOT1_
FNF:12
FNH:0
DA:120,0
DA:121,0
DA:534,0
DA:546,0
DA:547,0
DA:553,0
DA:555,0
DA:555,0
DA:555,0
DA:555,0
DA:555,0
DA:558,0
DA:561,0
DA:558,0
DA:561,0
DA:565,0
DA:568,0
DA:570,0
DA:565,0
DA:568,0
DA:570,0
DA:578,0
DA:586,0
DA:588,0
DA:593,0
DA:578,0
DA:586,0
DA:588,0
DA:593,0
DA:675,0
DA:680,0
DA:685,0
DA:686,0
DA:687,0
DA:675,0
DA:680,0
DA:685,0
DA:686,0
DA:687,0
DA:761,0
DA:763,0
DA:1199,0
DA:1370,0
DA:1371,0
LF:44
LH:0
end_of_record
SF:/usr/share/miniconda/envs/moose/x86_64-conda-linux-gnu/include/c++/10.3.0/bits/locale_facets.h
FN:872,_ZNKSt5ctypeIcE5widenEc
FNDA:0,_ZNKSt5ctypeIcE5widenEc
FN:1084,_ZNKSt5ctypeIcE8do_widenEc
FNDA:0,_ZNKSt5ctypeIcE8do_widenEc
FNF:2
FNH:0
DA:872,0
DA:874,0
DA:875,0
DA:876,0
DA:877,0
DA:1084,0
DA:1085,0
LF:7
LH:0
end_of_record
SF:/usr/share/miniconda/envs/moose/libmesh/include/libmesh/type_vector.h
FN:919,_ZNK7libMesh10TypeVectorIdE5crossIdEENS0_INS_12CompareTypesIdT_E9supertypeEEERKNS0_IS4_EE
FNDA:0,_ZNK7libMesh10TypeVectorIdE5crossIdEENS0_INS_12CompareTypesIdT_E9supertypeEEERKNS0_IS4_EE
FN:942,_ZNK7libMesh10TypeVectorIdE4normEv
FNDA:0,_ZNK7libMesh10TypeVectorIdE4normEv
FNF:2
FNH:0
DA:464,0
DA:466,0
DA:469,0
DA:473,0
DA:481,0
DA:485,0
DA:488,0
DA:495,0
DA:703,0
DA:704,0
DA:705,0
DA:763,0
DA:899,0
DA:900,0
DA:901,0
DA:919,0
DA:929,0
DA:930,0
DA:931,0
DA:942,0
DA:944,0
DA:973,0
DA:975,0
LF:23
LH:0
end_of_record
SF:/usr/share/miniconda/envs/moose/x86_64-conda-linux-gnu/include/c++/10.3.0/initializer_list
DA:71,0
DA:79,0
LF:2
LH:0
end_of_record
SF:/usr/share/miniconda/envs/moose/x86_64-conda-linux-gnu/include/c++/10.3.0/bits/stl_pair.h
DA:211,0
LF:1
LH:0
end_of_record
SF:/usr/share/miniconda/envs/moose/x86_64-conda-linux-gnu/include/c++/10.3.0/tuple
FN:1689,_ZNSt4pairIKNSt7__cxx1112basic_stringIcSt11char_traitsIcESaIcEEEN15InputParameters8MetadataEEC2IJRS6_EJLm0EEJEJEEERSt5tupleIJDpT_EERSC_IJDpT1_EESt12_Index_tupleIJXspT0_EEESL_IJXspT2_EEE
FNDA:0,_ZNSt4pairIKNSt7__cxx1112basic_stringIcSt11char_traitsIcESaIcEEEN15InputParameters8MetadataEEC2IJRS6_EJLm0EEJEJEEERSt5tupleIJDpT_EERSC_IJDpT1_EESt12_Index_tupleIJXspT0_EEESL_IJXspT2_EEE
FNF:1
FNH:0
DA:124,0
DA:129,17888
DA:130,17888
DA:166,17888
DA:520,0
DA:1677,0
DA:1682,0
DA:1689,17888
DA:1693,17888
DA:1694,0
LF:10
LH:5
end_of_record
SF:/usr/share/miniconda/envs/moose/x86_64-conda-linux-gnu/include/c++/10.3.0/iostream
LF:0
LH:0
end_of_record
SF:/home/runner/work/raccoon/raccoon/moose/framework/build/header_symlinks/Coupleable.h
FN:114,_ZNK10Coupleable15coupledCallbackERKNSt7__cxx1112basic_stringIcSt11char_traitsIcESaIcEEEb
FNDA:0,_ZNK10Coupleable15coupledCallbackERKNSt7__cxx1112basic_stringIcSt11char_traitsIcESaIcEEEb
FNF:1
FNH:0
DA:114,0
LF:1
LH:0
end_of_record
SF:/home/runner/work/raccoon/raccoon/src/ics/DamageICBase.C
FN:8,_ZN12DamageICBase11validParamsEv
FNDA:310,_ZN12DamageICBase11validParamsEv
FN:22,_ZN12DamageICBaseC2ERK15InputParameters
FNDA:0,_ZN12DamageICBaseC2ERK15InputParameters
FN:41,_ZN12DamageICBase4distERKN7libMesh5PointE
FNDA:0,_ZN12DamageICBase4distERKN7libMesh5PointE
FNF:3
FNH:1
DA:8,310
DA:11,620
DA:12,620
DA:13,620
DA:14,620
DA:15,620
DA:16,620
DA:17,620
DA:18,620
DA:19,310
DA:22,0
DA:30,0
DA:31,0
DA:38,0
DA:41,0
DA:44,0
DA:49,0
DA:54,0
DA:55,0
DA:56,0
DA:63,0
DA:64,0
DA:65,0
DA:67,0
DA:68,0
DA:72,0
DA:73,0
DA:74,0
DA:79,0
DA:83,0
LF:30
LH:10
end_of_record
SF:/usr/share/miniconda/envs/moose/libmesh/include/libmesh/libmesh_exceptions.h
DA:42,0
DA:54,0
LF:2
LH:0
end_of_record
SF:/usr/share/miniconda/envs/moose/x86_64-conda-linux-gnu/include/c++/10.3.0/bits/stl_function.h
DA:1156,119689
LF:1
LH:1
end_of_record
SF:/usr/share/miniconda/envs/moose/x86_64-conda-linux-gnu/include/c++/10.3.0/typeinfo
FN:120,_ZNKSt9type_infoeqERKS_
FNDA:0,_ZNKSt9type_infoeqERKS_
FNF:1
FNH:0
DA:100,0
DA:120,0
DA:122,0
DA:123,0
DA:124,0
LF:5
LH:0
end_of_record
SF:/usr/share/miniconda/envs/moose/x86_64-conda-linux-gnu/include/c++/10.3.0/bits/char_traits.h
DA:329,24023
DA:371,6135
LF:2
LH:2
end_of_record
SF:/usr/share/miniconda/envs/moose/x86_64-conda-linux-gnu/include/c++/10.3.0/streambuf
LF:0
LH:0
end_of_record
SF:/usr/share/miniconda/envs/moose/x86_64-conda-linux-gnu/include/c++/10.3.0/bits/stl_iterator.h
DA:976,149
DA:981,0
DA:985,0
DA:1002,204
DA:1003,204
LF:5
LH:3
end_of_record
SF:/usr/share/miniconda/envs/moose/libmesh/include/libmesh/elem.h
FN:564,_ZNK7libMesh4Elem9is_remoteEv
FNDA:0,_ZNK7libMesh4Elem9is_remoteEv
FN:622,_ZNK7libMesh4Elem16n_nodes_in_childEj
FNDA:0,_ZNK7libMesh4Elem16n_nodes_in_childEj
FN:708,_ZNK7libMesh4Elem18is_vertex_on_childEjj
FNDA:0,_ZNK7libMesh4Elem18is_vertex_on_childEjj
FN:906,_ZNK7libMesh4Elem18default_side_orderEv
FNDA:0,_ZNK7libMesh4Elem18default_side_orderEv
FN:950,_ZNK7libMesh4Elem17quasicircumcenterEv
FNDA:0,_ZNK7libMesh4Elem17quasicircumcenterEv
FN:994,_ZNK7libMesh4Elem11qual_boundsENS_11ElemQualityE
FNDA:0,_ZNK7libMesh4Elem11qual_boundsENS_11ElemQualityE
FN:1034,_ZNK7libMesh4Elem14has_affine_mapEv
FNDA:0,_ZNK7libMesh4Elem14has_affine_mapEv
FN:1050,_ZNK7libMesh4Elem9is_linearEv
FNDA:0,_ZNK7libMesh4Elem9is_linearEv
FN:1654,_ZNK7libMesh4Elem19local_singular_nodeERKNS_5PointEd
FNDA:0,_ZNK7libMesh4Elem19local_singular_nodeERKNS_5PointEd
FN:1661,_ZNK7libMesh4Elem16is_singular_nodeEj
FNDA:0,_ZNK7libMesh4Elem16is_singular_nodeEj
FN:1821,_ZNK7libMesh4Elem24embedding_matrix_versionEv
FNDA:0,_ZNK7libMesh4Elem24embedding_matrix_versionEv
FN:1968,_ZNK7libMesh4Elem26_get_bracketing_node_cacheEv
FNDA:0,_ZNK7libMesh4Elem26_get_bracketing_node_cacheEv
FN:1982,_ZNK7libMesh4Elem25_get_parent_indices_cacheEv
FNDA:0,_ZNK7libMesh4Elem25_get_parent_indices_cacheEv
FN:2320,_ZN7libMesh4Elem8set_nodeEj
FNDA:0,_ZN7libMesh4Elem8set_nodeEj
FNF:14
FNH:0
DA:564,0
DA:565,0
DA:622,0
DA:623,0
DA:708,0
DA:710,0
DA:906,0
DA:950,0
DA:951,0
DA:994,0
DA:995,0
DA:1034,0
DA:1050,0
DA:1654,0
DA:1655,0
DA:1661,0
DA:1821,0
DA:1968,0
DA:1970,0
DA:1971,0
DA:1982,0
DA:1984,0
DA:1985,0
DA:2320,0
DA:2324,0
LF:25
LH:0
end_of_record
SF:/usr/share/miniconda/envs/moose/x86_64-conda-linux-gnu/include/c++/10.3.0/bits/basic_string.h
FN:525,_ZNSt7__cxx1112basic_stringIcSt11char_traitsIcESaIcEEC2IS3_EEPKcRKS3_
FNDA:6135,_ZNSt7__cxx1112basic_stringIcSt11char_traitsIcESaIcEEC2IS3_EEPKcRKS3_
FN:1470,_ZNSt7__cxx1112basic_stringIcSt11char_traitsIcESaIcEE6assignIPcvEERS4_T_S8_
FNDA:0,_ZNSt7__cxx1112basic_stringIcSt11char_traitsIcESaIcEE6assignIPcvEERS4_T_S8_
FNF:2
FNH:1
DA:156,6135
DA:157,6135
DA:179,5071
DA:183,24023
DA:187,48046
DA:193,6135
DA:211,5071
DA:217,24023
DA:247,6135
DA:393,17888
DA:398,6135
DA:525,6135
DA:527,6135
DA:658,2945
DA:814,0
DA:902,0
DA:1366,49357
DA:1470,0
DA:1471,0
DA:6280,117054
DA:6473,0
LF:21
LH:16
end_of_record
SF:/usr/share/miniconda/envs/moose/libmesh/include/libmesh/reference_counter.h
DA:152,28496
LF:1
LH:1
end_of_record
SF:/usr/share/miniconda/envs/moose/x86_64-conda-linux-gnu/include/c++/10.3.0/ext/aligned_buffer.h
DA:65,0
DA:104,0
LF:2
LH:0
end_of_record
SF:/home/runner/work/raccoon/raccoon/build/header_symlinks/BrittleDamageIC.h
LF:0
LH:0
end_of_record
SF:/home/runner/work/raccoon/raccoon/src/ics/BrittleDamageIC.C
FN:10,_ZN15BrittleDamageIC11validParamsEv
FNDA:155,_ZN15BrittleDamageIC11validParamsEv
FN:22,_ZN15BrittleDamageICC2ERK15InputParameters
FNDA:0,_ZN15BrittleDamageICC2ERK15InputParameters
FN:28,_ZN15BrittleDamageIC5valueERKN7libMesh5PointE
FNDA:0,_ZN15BrittleDamageIC5valueERKN7libMesh5PointE
FNF:3
FNH:1
DA:10,155
DA:12,155
DA:13,155
DA:17,310
DA:18,310
DA:19,155
DA:22,0
DA:23,0
DA:25,0
DA:28,0
DA:30,0
DA:32,0
DA:33,0
DA:34,0
DA:36,0
DA:38,0
LF:16
LH:6
end_of_record
SF:/usr/share/miniconda/envs/moose/x86_64-conda-linux-gnu/include/c++/10.3.0/bits/unordered_map.h
DA:102,0
LF:1
LH:0
end_of_record
SF:/usr/share/miniconda/envs/moose/libmesh/include/libmesh/threads_pthread.h
FN:524,_ZN7libMesh7Threads6atomicIjEppEv
FNDA:28496,_ZN7libMesh7Threads6atomicIjEppEv
FN:538,_ZN7libMesh7Threads6atomicIjEmmEv
FNDA:55864,_ZN7libMesh7Threads6atomicIjEmmEv
FNF:2
FNH:2
DA:149,84360
DA:150,84360
DA:524,28496
DA:527,28496
DA:528,28496
DA:538,55864
DA:541,55864
DA:542,55864
LF:8
LH:8
end_of_record
SF:/usr/share/miniconda/envs/moose/libmesh/include/libmesh/remote_elem.h
FN:119,_ZNK7libMesh10RemoteElem7n_nodesEv
FNDA:0,_ZNK7libMesh10RemoteElem7n_nodesEv
FN:137,_ZNK7libMesh10RemoteElem9is_vertexEj
FNDA:0,_ZNK7libMesh10RemoteElem9is_vertexEj
FN:204,_ZNK7libMesh10RemoteElem13default_orderEv
FNDA:0,_ZNK7libMesh10RemoteElem13default_orderEv
FNF:3
FNH:0
DA:119,0
DA:120,0
DA:137,0
DA:138,0
DA:204,0
DA:205,0
LF:6
LH:0
end_of_record
SF:/usr/share/miniconda/envs/moose/x86_64-conda-linux-gnu/include/c++/10.3.0/bits/hashtable_policy.h
FN:2051,_ZNSt8__detail16_Hashtable_allocISaINS_10_Hash_nodeISt4pairIKNSt7__cxx1112basic_stringIcSt11char_traitsIcESaIcEEES8_ELb1EEEEE18_M_deallocate_nodeEPSB_
FNDA:0,_ZNSt8__detail16_Hashtable_allocISaINS_10_Hash_nodeISt4pairIKNSt7__cxx1112basic_stringIcSt11char_traitsIcESaIcEEES8_ELb1EEEEE18_M_deallocate_nodeEPSB_
FNF:1
FNH:0
DA:270,0
DA:2051,0
DA:2055,0
DA:2063,0
DA:2071,0
DA:2075,0
DA:2100,0
LF:7
LH:0
end_of_record
SF:/usr/share/miniconda/envs/moose/x86_64-conda-linux-gnu/include/c++/10.3.0/bits/stl_iterator_base_funcs.h
DA:104,24023
LF:1
LH:1
end_of_record
SF:/home/runner/work/raccoon/raccoon/moose/framework/build/header_symlinks/MooseObject.h
FN:63,_ZNK11MooseObject4nameB5cxx11Ev
FNDA:0,_ZNK11MooseObject4nameB5cxx11Ev
FN:116,_ZNK11MooseObject7enabledEv
FNDA:0,_ZNK11MooseObject7enabledEv
FNF:2
FNH:0
DA:63,0
DA:116,0
DA:257,0
LF:3
LH:0
end_of_record
SF:/home/runner/work/raccoon/raccoon/moose/framework/build/header_symlinks/InitialConditionBase.h
FN:88,_ZN20InitialConditionBase12initialSetupEv
FNDA:0,_ZN20InitialConditionBase12initialSetupEv
FNF:1
FNH:0
DA:88,0
LF:1
LH:0
end_of_record
SF:/usr/share/miniconda/envs/moose/libmesh/include/libmesh/parameters.h
FN:132,_ZN7libMesh10Parameters14set_attributesERKNSt7__cxx1112basic_stringIcSt11char_traitsIcESaIcEEEb
FNDA:0,_ZN7libMesh10Parameters14set_attributesERKNSt7__cxx1112basic_stringIcSt11char_traitsIcESaIcEEEb
FN:285,_ZNK7libMesh10Parameters9ParameterIP13FEProblemBaseE4typeB5cxx11Ev
FNDA:0,_ZNK7libMesh10Parameters9ParameterIP13FEProblemBaseE4typeB5cxx11Ev
FN:285,_ZNK7libMesh10Parameters9ParameterISt6vectorIdSaIdEEE4typeB5cxx11Ev
FNDA:3903,_ZNK7libMesh10Parameters9ParameterISt6vectorIdSaIdEEE4typeB5cxx11Ev
FN:285,_ZNK7libMesh10Parameters9ParameterIdE4typeB5cxx11Ev
FNDA:0,_ZNK7libMesh10Parameters9ParameterIdE4typeB5cxx11Ev
FN:293,_ZNK7libMesh10Parameters9ParameterIP13FEProblemBaseE5printERSo
FNDA:0,_ZNK7libMesh10Parameters9ParameterIP13FEProblemBaseE5printERSo
FN:293,_ZNK7libMesh10Parameters9ParameterIdE5printERSo
FNDA:0,_ZNK7libMesh10Parameters9ParameterIdE5printERSo
FN:293,_ZNK7libMesh10Parameters9ParameterISt6vectorIdSaIdEEE5printERSo
FNDA:149,_ZNK7libMesh10Parameters9ParameterISt6vectorIdSaIdEEE5printERSo
FN:301,_ZNK7libMesh10Parameters9ParameterIP13FEProblemBaseE5cloneEv
FNDA:0,_ZNK7libMesh10Parameters9ParameterIP13FEProblemBaseE5cloneEv
FN:301,_ZNK7libMesh10Parameters9ParameterISt6vectorIdSaIdEEE5cloneEv
FNDA:10608,_ZNK7libMesh10Parameters9ParameterISt6vectorIdSaIdEEE5cloneEv
FN:301,_ZNK7libMesh10Parameters9ParameterIdE5cloneEv
FNDA:0,_ZNK7libMesh10Parameters9ParameterIdE5cloneEv
FN:316,_ZN7libMesh10Parameters5clearEv
FNDA:0,_ZN7libMesh10Parameters5clearEv
FN:332,_ZN7libMesh10ParametersaSERKS0_
FNDA:0,_ZN7libMesh10ParametersaSERKS0_
FN:341,_ZN7libMesh10ParameterspLERKS0_
FNDA:0,_ZN7libMesh10ParameterspLERKS0_
FN:362,_ZN7libMesh10ParametersD0Ev
FNDA:0,_ZN7libMesh10ParametersD0Ev
FN:362,_ZN7libMesh10ParametersD2Ev
FNDA:0,_ZN7libMesh10ParametersD2Ev
FN:370,_ZNK7libMesh10Parameters5printERSo
FNDA:0,_ZNK7libMesh10Parameters5printERSo
FN:405,_ZNK7libMesh10Parameters14have_parameterISt6vectorIdSaIdEEEEbRKNSt7__cxx1112basic_stringIcSt11char_traitsIcESaIcEEE
FNDA:17888,_ZNK7libMesh10Parameters14have_parameterISt6vectorIdSaIdEEEEbRKNSt7__cxx1112basic_stringIcSt11char_traitsIcESaIcEEE
FN:405,_ZNK7libMesh10Parameters14have_parameterIdEEbRKNSt7__cxx1112basic_stringIcSt11char_traitsIcESaIcEEE
FNDA:0,_ZNK7libMesh10Parameters14have_parameterIdEEbRKNSt7__cxx1112basic_stringIcSt11char_traitsIcESaIcEEE
FN:424,_ZNK7libMesh10Parameters3getISt6vectorIdSaIdEEEERKT_RKNSt7__cxx1112basic_stringIcSt11char_traitsIcESaIcEEE
FNDA:0,_ZNK7libMesh10Parameters3getISt6vectorIdSaIdEEEERKT_RKNSt7__cxx1112basic_stringIcSt11char_traitsIcESaIcEEE
FN:424,_ZNK7libMesh10Parameters3getIdEERKT_RKNSt7__cxx1112basic_stringIcSt11char_traitsIcESaIcEEE
FNDA:0,_ZNK7libMesh10Parameters3getIdEERKT_RKNSt7__cxx1112basic_stringIcSt11char_traitsIcESaIcEEE
FN:452,_ZN7libMesh10Parameters6insertISt6vectorIdSaIdEEEEvRKNSt7__cxx1112basic_stringIcSt11char_traitsIcESaIcEEE
FNDA:17888,_ZN7libMesh10Parameters6insertISt6vectorIdSaIdEEEEvRKNSt7__cxx1112basic_stringIcSt11char_traitsIcESaIcEEE
FN:452,_ZN7libMesh10Parameters6insertIdEEvRKNSt7__cxx1112basic_stringIcSt11char_traitsIcESaIcEEE
FNDA:0,_ZN7libMesh10Parameters6insertIdEEvRKNSt7__cxx1112basic_stringIcSt11char_traitsIcESaIcEEE
FN:556,_ZN7libMesh12print_helperIdEEvRSoPKSt6vectorIT_SaIS3_EE
FNDA:149,_ZN7libMesh12print_helperIdEEvRSoPKSt6vectorIT_SaIS3_EE
FNF:23
FNH:6
DA:132,0
DA:200,28496
DA:207,0
DA:212,0
DA:285,0
DA:287,0
DA:285,0
DA:287,0
DA:285,3903
DA:287,3903
DA:293,0
DA:297,0
DA:293,0
DA:297,0
DA:293,149
DA:296,149
DA:297,149
DA:301,0
DA:303,0
DA:307,0
DA:309,0
DA:301,0
DA:303,0
DA:307,0
DA:309,0
DA:301,10608
DA:303,10608
DA:307,10608
DA:309,10608
DA:316,0
DA:318,0
DA:322,0
DA:323,0
DA:325,0
DA:327,0
DA:332,0
DA:334,0
DA:335,0
DA:337,0
DA:341,0
DA:343,0
DA:345,0
DA:346,0
DA:347,0
DA:350,0
DA:362,0
DA:365,0
DA:362,0
DA:364,0
DA:365,0
DA:370,0
DA:375,0
DA:376,0
DA:380,0
DA:382,0
DA:383,0
DA:387,0
DA:397,0
DA:398,0
DA:405,17888
DA:409,17888
DA:411,0
DA:415,0
DA:405,0
DA:409,0
DA:411,0
DA:415,0
DA:424,0
DA:426,0
DA:428,0
DA:430,0
DA:432,0
DA:436,0
DA:439,0
DA:447,0
DA:424,0
DA:426,0
DA:428,0
DA:430,0
DA:432,0
DA:436,0
DA:439,0
DA:447,0
DA:452,17888
DA:454,17888
DA:455,35776
DA:457,17888
DA:458,17888
DA:452,0
DA:454,0
DA:455,0
DA:457,0
DA:458,0
DA:535,0
DA:556,149
DA:558,353
DA:559,204
DA:560,149
LF:98
LH:21
end_of_record
SF:/usr/share/miniconda/envs/moose/x86_64-conda-linux-gnu/include/c++/10.3.0/sstream
DA:678,0
DA:832,0
LF:2
LH:0
end_of_record
SF:/home/runner/work/raccoon/raccoon/moose/framework/build/header_symlinks/InputParameters.h
FN:52,_ZN15InputParametersD0Ev
FNDA:0,_ZN15InputParametersD0Ev
FN:52,_ZN15InputParametersD2Ev
FNDA:0,_ZN15InputParametersD2Ev
FN:1029,_ZN15InputParameters3setIdEERT_RKNSt7__cxx1112basic_stringIcSt11char_traitsIcESaIcEEEb
FNDA:0,_ZN15InputParameters3setIdEERT_RKNSt7__cxx1112basic_stringIcSt11char_traitsIcESaIcEEEb
FN:1228,_ZN15InputParameters16addRequiredParamISt6vectorIdSaIdEEEEvRKNSt7__cxx1112basic_stringIcSt11char_traitsIcESaIcEEESB_
FNDA:17888,_ZN15InputParameters16addRequiredParamISt6vectorIdSaIdEEEEvRKNSt7__cxx1112basic_stringIcSt11char_traitsIcESaIcEEESB_
FN:1228,_ZN15InputParameters16addRequiredParamIdEEvRKNSt7__cxx1112basic_stringIcSt11char_traitsIcESaIcEEES8_
FNDA:0,_ZN15InputParameters16addRequiredParamIdEEvRKNSt7__cxx1112basic_stringIcSt11char_traitsIcESaIcEEES8_
FN:1250,_ZN15InputParameters8addParamIdiEEvRKNSt7__cxx1112basic_stringIcSt11char_traitsIcESaIcEEERKT0_S8_
FNDA:31469,_ZN15InputParameters8addParamIdiEEvRKNSt7__cxx1112basic_stringIcSt11char_traitsIcESaIcEEERKT0_S8_
FN:1403,_ZNK15InputParameters19checkConsistentTypeISt6vectorIdSaIdEEEEvRKNSt7__cxx1112basic_stringIcSt11char_traitsIcESaIcEEE
FNDA:49740,_ZNK15InputParameters19checkConsistentTypeISt6vectorIdSaIdEEEEvRKNSt7__cxx1112basic_stringIcSt11char_traitsIcESaIcEEE
FN:1403,_ZNK15InputParameters19checkConsistentTypeIdEEvRKNSt7__cxx1112basic_stringIcSt11char_traitsIcESaIcEEE
FNDA:0,_ZNK15InputParameters19checkConsistentTypeIdEEvRKNSt7__cxx1112basic_stringIcSt11char_traitsIcESaIcEEE
FN:1578,_ZN15InputParameters14getParamHelperIdEERKT_RKNSt7__cxx1112basic_stringIcSt11char_traitsIcESaIcEEERKS_PS2_
FNDA:0,_ZN15InputParameters14getParamHelperIdEERKT_RKNSt7__cxx1112basic_stringIcSt11char_traitsIcESaIcEEERKS_PS2_
FN:1685,_ZN5moose8internal15callValidParamsI16CohesiveDamageICEE15InputParametersv
FNDA:155,_ZN5moose8internal15callValidParamsI16CohesiveDamageICEE15InputParametersv
FN:1685,_ZN5moose8internal15callValidParamsI15BrittleDamageICEE15InputParametersv
FNDA:155,_ZN5moose8internal15callValidParamsI15BrittleDamageICEE15InputParametersv
FNF:11
FNH:5
DA:52,0
DA:52,0
DA:1029,0
DA:1031,0
DA:1032,0
DA:1034,0
DA:1035,0
DA:1037,0
DA:1039,0
DA:1040,0
DA:1044,0
DA:1228,17888
DA:1230,17888
DA:1231,17888
DA:1233,17888
DA:1234,17888
DA:1235,17888
DA:1236,17888
DA:1228,0
DA:1230,0
DA:1231,0
DA:1233,0
DA:1234,0
DA:1235,0
DA:1236,0
DA:1250,31469
DA:1252,31469
DA:1253,31469
DA:1255,31469
DA:1256,31469
DA:1264,62938
DA:1265,31469
DA:1282,31469
DA:1403,49740
DA:1407,49740
DA:1408,0
DA:1413,0
DA:1415,49740
DA:1403,0
DA:1407,0
DA:1408,0
DA:1413,0
DA:1415,0
DA:1578,0
DA:1580,0
DA:1581,0
DA:1583,0
DA:1605,0
DA:1660,310
DA:1665,310
DA:1685,155
DA:1687,155
DA:1685,155
DA:1687,155
LF:54
LH:24
end_of_record
SF:/home/runner/work/raccoon/raccoon/moose/framework/build/header_symlinks/MooseError.h
FN:154,_ZN5moose8internal14mooseStreamAllINSt7__cxx1112basic_stringIcSt11char_traitsIcESaIcEEEJRA2_KcEEEvRNS2_19basic_ostringstreamIcS5_S6_EEOT_DpOT0_
FNDA:0,_ZN5moose8internal14mooseStreamAllINSt7__cxx1112basic_stringIcSt11char_traitsIcESaIcEEEJRA2_KcEEEvRNS2_19basic_ostringstreamIcS5_S6_EEOT_DpOT0_
FN:154,_ZN5moose8internal14mooseStreamAllINSt7__cxx1112basic_stringIcSt11char_traitsIcESaIcEEEJRA45_KcS7_RA2_S8_EEEvRNS2_19basic_ostringstreamIcS5_S6_EEOT_DpOT0_
FNDA:0,_ZN5moose8internal14mooseStreamAllINSt7__cxx1112basic_stringIcSt11char_traitsIcESaIcEEEJRA45_KcS7_RA2_S8_EEEvRNS2_19basic_ostringstreamIcS5_S6_EEOT_DpOT0_
FN:154,_ZN5moose8internal14mooseStreamAllIRKNSt7__cxx1112basic_stringIcSt11char_traitsIcESaIcEEEJRA40_KcEEEvRNS2_19basic_ostringstreamIcS5_S6_EEOT_DpOT0_
FNDA:0,_ZN5moose8internal14mooseStreamAllIRKNSt7__cxx1112basic_stringIcSt11char_traitsIcESaIcEEEJRA40_KcEEEvRNS2_19basic_ostringstreamIcS5_S6_EEOT_DpOT0_
FN:154,_ZN5moose8internal14mooseStreamAllIRKNSt7__cxx1112basic_stringIcSt11char_traitsIcESaIcEEEJRA14_KcS7_RA45_SA_S7_RA2_SA_EEEvRNS2_19basic_ostringstreamIcS5_S6_EEOT_DpOT0_
FNDA:0,_ZN5moose8internal14mooseStreamAllIRKNSt7__cxx1112basic_stringIcSt11char_traitsIcESaIcEEEJRA14_KcS7_RA45_SA_S7_RA2_SA_EEEvRNS2_19basic_ostringstreamIcS5_S6_EEOT_DpOT0_
FN:238,_Z10mooseErrorIJRA16_KcRKNSt7__cxx1112basic_stringIcSt11char_traitsIcESaIcEEERA40_S0_EEvDpOT_
FNDA:0,_Z10mooseErrorIJRA16_KcRKNSt7__cxx1112basic_stringIcSt11char_traitsIcESaIcEEERA40_S0_EEvDpOT_
FN:238,_Z10mooseErrorIJRA30_KcRKNSt7__cxx1112basic_stringIcSt11char_traitsIcESaIcEEERA14_S0_S8_RA45_S0_S8_RA2_S0_EEvDpOT_
FNDA:0,_Z10mooseErrorIJRA30_KcRKNSt7__cxx1112basic_stringIcSt11char_traitsIcESaIcEEERA14_S0_S8_RA45_S0_S8_RA2_S0_EEvDpOT_
FNF:6
FNH:0
DA:154,0
DA:156,0
DA:157,0
DA:158,0
DA:154,0
DA:156,0
DA:157,0
DA:158,0
DA:154,0
DA:156,0
DA:157,0
DA:158,0
DA:154,0
DA:156,0
DA:157,0
DA:158,0
DA:156,0
DA:157,0
DA:158,0
DA:238,0
DA:240,0
DA:242,0
DA:238,0
DA:240,0
DA:242,0
LF:25
LH:0
end_of_record
SF:/usr/share/miniconda/envs/moose/x86_64-conda-linux-gnu/include/c++/10.3.0/ostream
DA:113,0
DA:221,204
DA:246,0
DA:518,0
LF:4
LH:1
end_of_record
SF:/usr/share/miniconda/envs/moose/x86_64-conda-linux-gnu/include/c++/10.3.0/bits/stl_set.h
FN:281,_ZNSt3setIsSt4lessIsESaIsEED2Ev
FNDA:0,_ZNSt3setIsSt4lessIsESaIsEED2Ev
FN:281,_ZNSt3setItSt4lessItESaItEED2Ev
FNDA:0,_ZNSt3setItSt4lessItESaItEED2Ev
FNF:2
FNH:0
DA:281,0
DA:281,0
DA:281,0
LF:3
LH:0
end_of_record
SF:/usr/share/miniconda/envs/moose/x86_64-conda-linux-gnu/include/c++/10.3.0/bits/basic_string.tcc
FN:206,_ZNSt7__cxx1112basic_stringIcSt11char_traitsIcESaIcEE12_M_constructIPcEEvT_S7_St20forward_iterator_tag
FNDA:17888,_ZNSt7__cxx1112basic_stringIcSt11char_traitsIcESaIcEE12_M_constructIPcEEvT_S7_St20forward_iterator_tag
FN:206,_ZNSt7__cxx1112basic_stringIcSt11char_traitsIcESaIcEE12_M_constructIPKcEEvT_S8_St20forward_iterator_tag
FNDA:6135,_ZNSt7__cxx1112basic_stringIcSt11char_traitsIcESaIcEE12_M_constructIPKcEEvT_S8_St20forward_iterator_tag
FNF:2
FNH:2
DA:206,17888
DA:211,17888
DA:212,0
DA:215,17888
DA:217,17888
DA:219,2170
DA:220,2170
DA:232,17888
DA:233,17888
DA:206,6135
DA:211,6135
DA:212,0
DA:215,6135
DA:217,6135
DA:219,2901
DA:220,2901
DA:232,6135
DA:233,6135
LF:18
LH:16
end_of_record
SF:/usr/share/miniconda/envs/moose/x86_64-conda-linux-gnu/include/c++/10.3.0/bits/alloc_traits.h
FN:459,_ZNSt16allocator_traitsISaIdEE8allocateERS0_m
FNDA:3305,_ZNSt16allocator_traitsISaIdEE8allocateERS0_m
FNF:1
FNH:1
DA:459,3305
DA:460,3305
DA:492,2231
DA:512,0
DA:516,0
LF:5
LH:3
end_of_record
SF:/usr/share/miniconda/envs/moose/x86_64-conda-linux-gnu/include/c++/10.3.0/bits/vector.tcc
FN:198,_ZNSt6vectorIdSaIdEEaSERKS1_
FNDA:21310,_ZNSt6vectorIdSaIdEEaSERKS1_
FNF:1
FNH:1
DA:198,21310
DA:201,21310
DA:224,21310
DA:226,3305
DA:228,3305
DA:231,3305
DA:232,3305
DA:233,3305
DA:234,3305
DA:236,18005
DA:238,18005
DA:243,0
DA:245,0
DA:246,0
DA:250,21310
DA:252,21310
LF:16
LH:13
end_of_record
SF:/usr/share/miniconda/envs/moose/x86_64-conda-linux-gnu/include/c++/10.3.0/bits/stl_construct.h
FN:149,_ZNSt12_Destroy_auxILb0EE9__destroyIPSt5tupleIJNSt7__cxx1112basic_stringIcSt11char_traitsIcESaIcEEEN5Moose23RelationshipManagerTypeESt8functionIFvRK15InputParametersRSC_EEEEEEvT_SK_
FNDA:0,_ZNSt12_Destroy_auxILb0EE9__destroyIPSt5tupleIJNSt7__cxx1112basic_stringIcSt11char_traitsIcESaIcEEEN5Moose23RelationshipManagerTypeESt8functionIFvRK15InputParametersRSC_EEEEEEvT_SK_
FNF:1
FNH:0
DA:140,0
DA:149,0
DA:151,0
DA:153,0
DA:185,0
LF:5
LH:0
end_of_record
SF:/usr/share/miniconda/envs/moose/x86_64-conda-linux-gnu/include/c++/10.3.0/bits/allocated_ptr.h
FN:70,_ZNSt15__allocated_ptrISaISt23_Sp_counted_ptr_inplaceI16CohesiveDamageICSaIS1_ELN9__gnu_cxx12_Lock_policyE2EEEED2Ev
FNDA:0,_ZNSt15__allocated_ptrISaISt23_Sp_counted_ptr_inplaceI16CohesiveDamageICSaIS1_ELN9__gnu_cxx12_Lock_policyE2EEEED2Ev
FN:70,_ZNSt15__allocated_ptrISaISt23_Sp_counted_ptr_inplaceI15BrittleDamageICSaIS1_ELN9__gnu_cxx12_Lock_policyE2EEEED2Ev
FNDA:0,_ZNSt15__allocated_ptrISaISt23_Sp_counted_ptr_inplaceI15BrittleDamageICSaIS1_ELN9__gnu_cxx12_Lock_policyE2EEEED2Ev
FNF:2
FNH:0
DA:52,0
DA:53,0
DA:70,0
DA:72,0
DA:74,0
DA:70,0
DA:72,0
DA:74,0
DA:80,0
LF:9
LH:0
end_of_record
SF:/home/runner/work/raccoon/raccoon/moose/framework/build/header_symlinks/InitialConditionTempl.h
FN:50,_ZN21InitialConditionTemplIdE8variableEv
FNDA:0,_ZN21InitialConditionTemplIdE8variableEv
FN:69,_ZN21InitialConditionTemplIdE8gradientERKN7libMesh5PointE
FNDA:0,_ZN21InitialConditionTemplIdE8gradientERKN7libMesh5PointE
FNF:2
FNH:0
DA:50,0
DA:69,0
DA:193,310
LF:3
LH:1
end_of_record
SF:/usr/share/miniconda/envs/moose/x86_64-conda-linux-gnu/include/c++/10.3.0/bits/stl_algobase.h
FN:511,_ZSt13__copy_move_aILb0EN9__gnu_cxx17__normal_iteratorIPKdSt6vectorIdSaIdEEEENS1_IPdS6_EEET1_T0_SB_SA_
FNDA:18005,_ZSt13__copy_move_aILb0EN9__gnu_cxx17__normal_iteratorIPKdSt6vectorIdSaIdEEEENS1_IPdS6_EEET1_T0_SB_SA_
FN:560,_ZSt4copyIPdS0_ET0_T_S2_S1_
FNDA:0,_ZSt4copyIPdS0_ET0_T_S2_S1_
FNF:2
FNH:1
DA:235,0
DA:236,0
DA:424,21310
DA:425,3305
DA:426,8293
DA:427,18005
DA:511,18005
DA:516,18005
DA:560,0
DA:569,18005
LF:10
LH:7
end_of_record
SF:/home/runner/work/raccoon/raccoon/moose/framework/build/header_symlinks/Registry.h
FN:160,_ZN8Registry3addI16CohesiveDamageICEEcRK13RegistryEntry
FNDA:37,_ZN8Registry3addI16CohesiveDamageICEEcRK13RegistryEntry
FN:160,_ZN8Registry3addI15BrittleDamageICEEcRK13RegistryEntry
FNDA:37,_ZN8Registry3addI15BrittleDamageICEEcRK13RegistryEntry
FN:221,_ZN8Registry5buildI16CohesiveDamageIC11MooseObjectEESt10shared_ptrIT0_ERK15InputParameters
FNDA:0,_ZN8Registry5buildI16CohesiveDamageIC11MooseObjectEESt10shared_ptrIT0_ERK15InputParameters
FN:221,_ZN8Registry5buildI15BrittleDamageIC11MooseObjectEESt10shared_ptrIT0_ERK15InputParameters
FNDA:0,_ZN8Registry5buildI15BrittleDamageIC11MooseObjectEESt10shared_ptrIT0_ERK15InputParameters
FNF:4
FNH:2
DA:160,37
DA:162,74
DA:163,37
DA:164,37
DA:165,37
DA:166,37
DA:160,37
DA:162,74
DA:163,37
DA:164,37
DA:165,37
DA:166,37
DA:221,0
DA:223,0
DA:221,0
DA:223,0
LF:16
LH:12
end_of_record
SF:/home/runner/work/raccoon/raccoon/moose/framework/build/header_symlinks/MooseEnumItem.h
DA:24,0
LF:1
LH:0
end_of_record
SF:/home/runner/work/raccoon/raccoon/moose/framework/contrib/hit/parse.h
LF:0
LH:0
end_of_record
SF:/usr/share/miniconda/envs/moose/libmesh/include/libmesh/ostream_proxy.h
DA:116,0
DA:123,0
LF:2
LH:0
end_of_record
SF:/home/runner/work/raccoon/raccoon/build/header_symlinks/DamageICBase.h
LF:0
LH:0
end_of_record
SF:/home/runner/work/raccoon/raccoon/moose/framework/build/header_symlinks/MooseTypes.h
LF:0
LH:0
end_of_record
SF:/usr/share/miniconda/envs/moose/x86_64-conda-linux-gnu/include/c++/10.3.0/bits/stl_uninitialized.h
DA:325,0
LF:1
LH:0
end_of_record
TN:
SF:/usr/share/miniconda/envs/moose/libmesh/include/libmesh/ostream_proxy.h
DA:116,0
DA:123,0
LF:2
LH:0
end_of_record
SF:/home/runner/work/raccoon/raccoon/build/header_symlinks/BaseNameInterface.h
FN:15,_ZN17BaseNameInterfaceD0Ev
FNDA:0,_ZN17BaseNameInterfaceD0Ev
FN:15,_ZN17BaseNameInterfaceD2Ev
FNDA:0,_ZN17BaseNameInterfaceD2Ev
FNF:2
FNH:0
DA:15,0
DA:15,0
LF:2
LH:0
end_of_record
SF:/usr/share/miniconda/envs/moose/x86_64-conda-linux-gnu/include/c++/10.3.0/bits/stl_uninitialized.h
FN:968,_ZSt19__relocate_object_aI20MaterialPropertyNameS0_SaIS0_EEvPT_PT0_RT1_
FNDA:0,_ZSt19__relocate_object_aI20MaterialPropertyNameS0_SaIS0_EEvPT_PT0_RT1_
FNF:1
FNH:0
DA:968,0
DA:978,0
DA:1013,0
DA:1014,0
LF:4
LH:0
end_of_record
SF:/home/runner/work/raccoon/raccoon/moose/framework/build/header_symlinks/MooseTypes.h
DA:883,1274
LF:1
LH:1
end_of_record
SF:/usr/share/miniconda/envs/moose/x86_64-conda-linux-gnu/include/c++/10.3.0/bits/stl_construct.h
FN:149,_ZNSt12_Destroy_auxILb0EE9__destroyIPSt5tupleIJNSt7__cxx1112basic_stringIcSt11char_traitsIcESaIcEEEN5Moose23RelationshipManagerTypeESt8functionIFvRK15InputParametersRSC_EEEEEEvT_SK_
FNDA:0,_ZNSt12_Destroy_auxILb0EE9__destroyIPSt5tupleIJNSt7__cxx1112basic_stringIcSt11char_traitsIcESaIcEEEN5Moose23RelationshipManagerTypeESt8functionIFvRK15InputParametersRSC_EEEEEEvT_SK_
FNF:1
FNH:0
DA:149,0
DA:151,0
DA:153,0
DA:185,0
LF:4
LH:0
end_of_record
SF:/usr/share/miniconda/envs/moose/x86_64-conda-linux-gnu/include/c++/10.3.0/bits/vector.tcc
FN:426,_ZNSt6vectorI20MaterialPropertyNameSaIS0_EE17_M_realloc_insertIJRKS0_EEEvN9__gnu_cxx17__normal_iteratorIPS0_S2_EEDpOT_
FNDA:0,_ZNSt6vectorI20MaterialPropertyNameSaIS0_EE17_M_realloc_insertIJRKS0_EEEvN9__gnu_cxx17__normal_iteratorIPS0_S2_EEDpOT_
FNF:1
FNH:0
DA:426,0
DA:436,0
DA:437,0
DA:438,0
DA:449,0
DA:450,0
DA:464,0
DA:485,0
DA:487,0
DA:493,0
DA:501,0
DA:502,0
DA:503,0
DA:504,0
DA:505,0
LF:15
LH:0
end_of_record
SF:/usr/share/miniconda/envs/moose/x86_64-conda-linux-gnu/include/c++/10.3.0/bits/alloc_traits.h
FN:459,_ZNSt16allocator_traitsISaI20MaterialPropertyNameEE8allocateERS1_m
FNDA:0,_ZNSt16allocator_traitsISaI20MaterialPropertyNameEE8allocateERS1_m
FN:459,_ZNSt16allocator_traitsISaIdEE8allocateERS0_m
FNDA:0,_ZNSt16allocator_traitsISaIdEE8allocateERS0_m
FNF:2
FNH:0
DA:459,0
DA:460,0
DA:459,0
DA:460,0
DA:492,0
DA:512,49658
DA:516,49658
DA:535,0
LF:8
LH:2
end_of_record
SF:/usr/share/miniconda/envs/moose/x86_64-conda-linux-gnu/include/c++/10.3.0/bits/basic_string.tcc
FN:206,_ZNSt7__cxx1112basic_stringIcSt11char_traitsIcESaIcEE12_M_constructIPcEEvT_S7_St20forward_iterator_tag
FNDA:100590,_ZNSt7__cxx1112basic_stringIcSt11char_traitsIcESaIcEE12_M_constructIPcEEvT_S7_St20forward_iterator_tag
FN:206,_ZNSt7__cxx1112basic_stringIcSt11char_traitsIcESaIcEE12_M_constructIPKcEEvT_S8_St20forward_iterator_tag
FNDA:9752,_ZNSt7__cxx1112basic_stringIcSt11char_traitsIcESaIcEE12_M_constructIPKcEEvT_S8_St20forward_iterator_tag
FNF:2
FNH:2
DA:206,100590
DA:211,100590
DA:212,0
DA:215,100590
DA:217,100590
DA:219,14158
DA:220,14158
DA:232,100590
DA:233,100590
DA:206,9752
DA:211,9752
DA:212,0
DA:215,9752
DA:217,9752
DA:219,4522
DA:220,4522
DA:232,9752
DA:233,9752
LF:18
LH:16
end_of_record
SF:/usr/share/miniconda/envs/moose/x86_64-conda-linux-gnu/include/c++/10.3.0/bits/stl_set.h
FN:281,_ZNSt3setIsSt4lessIsESaIsEED2Ev
FNDA:0,_ZNSt3setIsSt4lessIsESaIsEED2Ev
FN:281,_ZNSt3setItSt4lessItESaItEED2Ev
FNDA:0,_ZNSt3setItSt4lessItESaItEED2Ev
FNF:2
FNH:0
DA:281,0
DA:281,0
DA:281,0
LF:3
LH:0
end_of_record
SF:/home/runner/work/raccoon/raccoon/moose/framework/build/header_symlinks/MooseEnumItem.h
DA:24,0
LF:1
LH:0
end_of_record
SF:/home/runner/work/raccoon/raccoon/src/interfaces/BaseNameInterface.C
FN:8,_ZN17BaseNameInterface11validParamsEv
FNDA:4522,_ZN17BaseNameInterface11validParamsEv
FN:18,_ZN17BaseNameInterfaceC2ERK15InputParameters
FNDA:354,_ZN17BaseNameInterfaceC2ERK15InputParameters
FN:25,_ZNK17BaseNameInterface15prependBaseNameE20MaterialPropertyNameb
FNDA:1274,_ZNK17BaseNameInterface15prependBaseNameE20MaterialPropertyNameb
FN:33,_ZNK17BaseNameInterface15prependBaseNameERKSt6vectorI20MaterialPropertyNameSaIS1_EE
FNDA:42,_ZNK17BaseNameInterface15prependBaseNameERKSt6vectorI20MaterialPropertyNameSaIS1_EE
FNF:4
FNH:4
DA:8,4522
DA:10,4522
DA:11,9044
DA:15,4522
DA:18,354
DA:20,354
DA:22,354
DA:25,1274
DA:27,1274
DA:28,1368
DA:29,1180
DA:33,42
DA:36,42
DA:37,0
DA:38,42
LF:15
LH:14
end_of_record
SF:/usr/share/miniconda/envs/moose/x86_64-conda-linux-gnu/include/c++/10.3.0/bits/stl_algobase.h
DA:259,0
DA:260,0
DA:425,0
DA:426,0
LF:4
LH:0
end_of_record
SF:/usr/share/miniconda/envs/moose/x86_64-conda-linux-gnu/include/c++/10.3.0/bits/hashtable_policy.h
FN:2051,_ZNSt8__detail16_Hashtable_allocISaINS_10_Hash_nodeISt4pairIKNSt7__cxx1112basic_stringIcSt11char_traitsIcESaIcEEES8_ELb1EEEEE18_M_deallocate_nodeEPSB_
FNDA:0,_ZNSt8__detail16_Hashtable_allocISaINS_10_Hash_nodeISt4pairIKNSt7__cxx1112basic_stringIcSt11char_traitsIcESaIcEEES8_ELb1EEEEE18_M_deallocate_nodeEPSB_
FNF:1
FNH:0
DA:270,0
DA:2051,0
DA:2055,0
DA:2063,0
DA:2071,0
DA:2075,0
DA:2100,0
LF:7
LH:0
end_of_record
SF:/usr/share/miniconda/envs/moose/libmesh/include/libmesh/threads_pthread.h
FN:524,_ZN7libMesh7Threads6atomicIjEppEv
FNDA:49658,_ZN7libMesh7Threads6atomicIjEppEv
FN:538,_ZN7libMesh7Threads6atomicIjEmmEv
FNDA:0,_ZN7libMesh7Threads6atomicIjEmmEv
FNF:2
FNH:1
DA:149,49658
DA:150,49658
DA:524,49658
DA:527,49658
DA:528,49658
DA:538,0
DA:541,0
DA:542,0
LF:8
LH:5
end_of_record
SF:/usr/share/miniconda/envs/moose/x86_64-conda-linux-gnu/include/c++/10.3.0/bits/stl_iterator_base_funcs.h
DA:104,110342
LF:1
LH:1
end_of_record
SF:/usr/share/miniconda/envs/moose/x86_64-conda-linux-gnu/include/c++/10.3.0/bits/unordered_map.h
DA:102,0
LF:1
LH:0
end_of_record
SF:/usr/share/miniconda/envs/moose/x86_64-conda-linux-gnu/include/c++/10.3.0/ostream
DA:113,0
DA:518,0
LF:2
LH:0
end_of_record
SF:/home/runner/work/raccoon/raccoon/moose/framework/build/header_symlinks/MooseError.h
FN:154,_ZN5moose8internal14mooseStreamAllINSt7__cxx1112basic_stringIcSt11char_traitsIcESaIcEEEJRA2_KcEEEvRNS2_19basic_ostringstreamIcS5_S6_EEOT_DpOT0_
FNDA:0,_ZN5moose8internal14mooseStreamAllINSt7__cxx1112basic_stringIcSt11char_traitsIcESaIcEEEJRA2_KcEEEvRNS2_19basic_ostringstreamIcS5_S6_EEOT_DpOT0_
FN:154,_ZN5moose8internal14mooseStreamAllINSt7__cxx1112basic_stringIcSt11char_traitsIcESaIcEEEJRA45_KcS7_RA2_S8_EEEvRNS2_19basic_ostringstreamIcS5_S6_EEOT_DpOT0_
FNDA:0,_ZN5moose8internal14mooseStreamAllINSt7__cxx1112basic_stringIcSt11char_traitsIcESaIcEEEJRA45_KcS7_RA2_S8_EEEvRNS2_19basic_ostringstreamIcS5_S6_EEOT_DpOT0_
FN:154,_ZN5moose8internal14mooseStreamAllIRKNSt7__cxx1112basic_stringIcSt11char_traitsIcESaIcEEEJRA14_KcS7_RA45_SA_S7_RA2_SA_EEEvRNS2_19basic_ostringstreamIcS5_S6_EEOT_DpOT0_
FNDA:0,_ZN5moose8internal14mooseStreamAllIRKNSt7__cxx1112basic_stringIcSt11char_traitsIcESaIcEEEJRA14_KcS7_RA45_SA_S7_RA2_SA_EEEvRNS2_19basic_ostringstreamIcS5_S6_EEOT_DpOT0_
FN:238,_Z10mooseErrorIJRA30_KcRKNSt7__cxx1112basic_stringIcSt11char_traitsIcESaIcEEERA14_S0_S8_RA45_S0_S8_RA2_S0_EEvDpOT_
FNDA:0,_Z10mooseErrorIJRA30_KcRKNSt7__cxx1112basic_stringIcSt11char_traitsIcESaIcEEERA14_S0_S8_RA45_S0_S8_RA2_S0_EEvDpOT_
FNF:4
FNH:0
DA:154,0
DA:156,0
DA:157,0
DA:158,0
DA:154,0
DA:156,0
DA:157,0
DA:158,0
DA:154,0
DA:156,0
DA:157,0
DA:158,0
DA:156,0
DA:157,0
DA:158,0
DA:238,0
DA:240,0
DA:242,0
LF:18
LH:0
end_of_record
SF:/home/runner/work/raccoon/raccoon/moose/framework/build/header_symlinks/InputParameters.h
FN:52,_ZN15InputParametersD0Ev
FNDA:0,_ZN15InputParametersD0Ev
FN:52,_ZN15InputParametersD2Ev
FNDA:0,_ZN15InputParametersD2Ev
FN:1269,_ZN15InputParameters8addParamINSt7__cxx1112basic_stringIcSt11char_traitsIcESaIcEEEEEvRKS6_S8_
FNDA:49968,_ZN15InputParameters8addParamINSt7__cxx1112basic_stringIcSt11char_traitsIcESaIcEEEEEvRKS6_S8_
FN:1403,_ZNK15InputParameters19checkConsistentTypeINSt7__cxx1112basic_stringIcSt11char_traitsIcESaIcEEEEEvRKS6_
FNDA:0,_ZNK15InputParameters19checkConsistentTypeINSt7__cxx1112basic_stringIcSt11char_traitsIcESaIcEEEEEvRKS6_
FNF:4
FNH:1
DA:52,0
DA:52,0
DA:1269,49968
DA:1271,49968
DA:1272,49968
DA:1274,49968
DA:1275,49968
DA:1276,49968
DA:1403,0
DA:1407,0
DA:1408,0
DA:1413,0
DA:1415,0
LF:13
LH:6
end_of_record
SF:/usr/share/miniconda/envs/moose/x86_64-conda-linux-gnu/include/c++/10.3.0/sstream
DA:678,0
DA:832,0
LF:2
LH:0
end_of_record
SF:/usr/share/miniconda/envs/moose/libmesh/include/libmesh/parameters.h
FN:132,_ZN7libMesh10Parameters14set_attributesERKNSt7__cxx1112basic_stringIcSt11char_traitsIcESaIcEEEb
FNDA:0,_ZN7libMesh10Parameters14set_attributesERKNSt7__cxx1112basic_stringIcSt11char_traitsIcESaIcEEEb
FN:285,_ZNK7libMesh10Parameters9ParameterINSt7__cxx1112basic_stringIcSt11char_traitsIcESaIcEEEE4typeEv
FNDA:0,_ZNK7libMesh10Parameters9ParameterINSt7__cxx1112basic_stringIcSt11char_traitsIcESaIcEEEE4typeEv
FN:293,_ZNK7libMesh10Parameters9ParameterINSt7__cxx1112basic_stringIcSt11char_traitsIcESaIcEEEE5printERSo
FNDA:0,_ZNK7libMesh10Parameters9ParameterINSt7__cxx1112basic_stringIcSt11char_traitsIcESaIcEEEE5printERSo
FN:301,_ZNK7libMesh10Parameters9ParameterINSt7__cxx1112basic_stringIcSt11char_traitsIcESaIcEEEE5cloneEv
FNDA:0,_ZNK7libMesh10Parameters9ParameterINSt7__cxx1112basic_stringIcSt11char_traitsIcESaIcEEEE5cloneEv
FN:316,_ZN7libMesh10Parameters5clearEv
FNDA:0,_ZN7libMesh10Parameters5clearEv
FN:332,_ZN7libMesh10ParametersaSERKS0_
FNDA:0,_ZN7libMesh10ParametersaSERKS0_
FN:341,_ZN7libMesh10ParameterspLERKS0_
FNDA:0,_ZN7libMesh10ParameterspLERKS0_
FN:362,_ZN7libMesh10ParametersD0Ev
FNDA:0,_ZN7libMesh10ParametersD0Ev
FN:362,_ZN7libMesh10ParametersD2Ev
FNDA:0,_ZN7libMesh10ParametersD2Ev
FN:370,_ZNK7libMesh10Parameters5printERSo
FNDA:0,_ZNK7libMesh10Parameters5printERSo
FN:405,_ZNK7libMesh10Parameters14have_parameterI20MaterialPropertyNameEEbRKNSt7__cxx1112basic_stringIcSt11char_traitsIcESaIcEEE
FNDA:0,_ZNK7libMesh10Parameters14have_parameterI20MaterialPropertyNameEEbRKNSt7__cxx1112basic_stringIcSt11char_traitsIcESaIcEEE
FN:405,_ZNK7libMesh10Parameters14have_parameterINSt7__cxx1112basic_stringIcSt11char_traitsIcESaIcEEEEEbRKS7_
FNDA:49968,_ZNK7libMesh10Parameters14have_parameterINSt7__cxx1112basic_stringIcSt11char_traitsIcESaIcEEEEEbRKS7_
FN:424,_ZNK7libMesh10Parameters3getI20MaterialPropertyNameEERKT_RKNSt7__cxx1112basic_stringIcSt11char_traitsIcESaIcEEE
FNDA:0,_ZNK7libMesh10Parameters3getI20MaterialPropertyNameEERKT_RKNSt7__cxx1112basic_stringIcSt11char_traitsIcESaIcEEE
FN:424,_ZNK7libMesh10Parameters3getINSt7__cxx1112basic_stringIcSt11char_traitsIcESaIcEEEEERKT_RKS7_
FNDA:0,_ZNK7libMesh10Parameters3getINSt7__cxx1112basic_stringIcSt11char_traitsIcESaIcEEEEERKT_RKS7_
FN:452,_ZN7libMesh10Parameters6insertINSt7__cxx1112basic_stringIcSt11char_traitsIcESaIcEEEEEvRKS7_
FNDA:49968,_ZN7libMesh10Parameters6insertINSt7__cxx1112basic_stringIcSt11char_traitsIcESaIcEEEEEvRKS7_
FNF:15
FNH:2
DA:132,0
DA:200,49658
DA:207,0
DA:285,0
DA:287,0
DA:293,0
DA:297,0
DA:301,0
DA:303,0
DA:307,0
DA:309,0
DA:316,0
DA:318,0
DA:322,0
DA:323,0
DA:325,0
DA:327,0
DA:332,0
DA:334,0
DA:335,0
DA:337,0
DA:341,0
DA:343,0
DA:345,0
DA:346,0
DA:347,0
DA:350,0
DA:362,0
DA:365,0
DA:362,0
DA:364,0
DA:365,0
DA:370,0
DA:375,0
DA:376,0
DA:380,0
DA:382,0
DA:383,0
DA:387,0
DA:397,0
DA:398,0
DA:405,0
DA:409,0
DA:411,0
DA:415,0
DA:405,49968
DA:409,49968
DA:411,310
DA:415,310
DA:424,0
DA:426,0
DA:428,0
DA:430,0
DA:432,0
DA:436,0
DA:439,0
DA:447,0
DA:424,0
DA:426,0
DA:428,0
DA:430,0
DA:432,0
DA:436,0
DA:439,0
DA:447,0
DA:452,49968
DA:454,49968
DA:455,99316
DA:457,49968
DA:458,49968
LF:70
LH:10
end_of_record
SF:/usr/share/miniconda/envs/moose/x86_64-conda-linux-gnu/include/c++/10.3.0/bits/basic_string.h
FN:525,_ZNSt7__cxx1112basic_stringIcSt11char_traitsIcESaIcEEC2IS3_EEPKcRKS3_
FNDA:9752,_ZNSt7__cxx1112basic_stringIcSt11char_traitsIcESaIcEEC2IS3_EEPKcRKS3_
FN:1470,_ZNSt7__cxx1112basic_stringIcSt11char_traitsIcESaIcEE6assignIPcvEERS4_T_S8_
FNDA:0,_ZNSt7__cxx1112basic_stringIcSt11char_traitsIcESaIcEE6assignIPcvEERS4_T_S8_
FN:6032,_ZStplIcSt11char_traitsIcESaIcEENSt7__cxx1112basic_stringIT_T0_T1_EERKS8_SA_
FNDA:0,_ZStplIcSt11char_traitsIcESaIcEENSt7__cxx1112basic_stringIT_T0_T1_EERKS8_SA_
FN:6069,_ZStplIcSt11char_traitsIcESaIcEENSt7__cxx1112basic_stringIT_T0_T1_EERKS8_PKS5_
FNDA:0,_ZStplIcSt11char_traitsIcESaIcEENSt7__cxx1112basic_stringIT_T0_T1_EERKS8_PKS5_
FNF:4
FNH:1
DA:156,9752
DA:157,9752
DA:159,49658
DA:160,49658
DA:179,18680
DA:183,160000
DA:187,220684
DA:193,59410
DA:203,0
DA:211,18680
DA:217,110342
DA:247,9752
DA:393,100590
DA:398,9752
DA:431,49658
DA:525,9752
DA:527,9752
DA:552,0
DA:555,0
DA:563,0
DA:658,6150
DA:814,0
DA:902,0
DA:908,0
DA:1193,0
DA:1366,49968
DA:1470,0
DA:1471,0
DA:6032,0
DA:6035,0
DA:6037,0
DA:6069,0
DA:6072,0
DA:6073,0
DA:6074,0
DA:6280,577118
DA:6473,0
LF:37
LH:19
end_of_record
SF:/usr/share/miniconda/envs/moose/libmesh/include/libmesh/reference_counter.h
DA:152,49658
LF:1
LH:1
end_of_record
SF:/usr/share/miniconda/envs/moose/x86_64-conda-linux-gnu/include/c++/10.3.0/ext/aligned_buffer.h
DA:65,49658
LF:1
LH:1
end_of_record
SF:/usr/share/miniconda/envs/moose/x86_64-conda-linux-gnu/include/c++/10.3.0/bits/stl_function.h
DA:1156,591868
LF:1
LH:1
end_of_record
SF:/usr/share/miniconda/envs/moose/libmesh/include/libmesh/libmesh_exceptions.h
DA:42,0
LF:1
LH:0
end_of_record
SF:/usr/share/miniconda/envs/moose/x86_64-conda-linux-gnu/include/c++/10.3.0/bits/stl_iterator.h
DA:976,42
DA:981,0
DA:985,0
DA:1002,0
DA:1003,0
DA:1202,0
LF:6
LH:1
end_of_record
SF:/usr/share/miniconda/envs/moose/x86_64-conda-linux-gnu/include/c++/10.3.0/streambuf
LF:0
LH:0
end_of_record
SF:/usr/share/miniconda/envs/moose/x86_64-conda-linux-gnu/include/c++/10.3.0/bits/char_traits.h
DA:329,49658
DA:371,9752
LF:2
LH:2
end_of_record
SF:/usr/share/miniconda/envs/moose/x86_64-conda-linux-gnu/include/c++/10.3.0/bits/locale_facets.h
FN:872,_ZNKSt5ctypeIcE5widenEc
FNDA:0,_ZNKSt5ctypeIcE5widenEc
FN:1084,_ZNKSt5ctypeIcE8do_widenEc
FNDA:0,_ZNKSt5ctypeIcE8do_widenEc
FNF:2
FNH:0
DA:872,0
DA:874,0
DA:875,0
DA:876,0
DA:877,0
DA:1084,0
DA:1085,0
LF:7
LH:0
end_of_record
SF:/usr/share/miniconda/envs/moose/x86_64-conda-linux-gnu/include/c++/10.3.0/bits/std_function.h
FN:242,_ZNSt14_Function_baseD2Ev
FNDA:0,_ZNSt14_Function_baseD2Ev
FNF:1
FNH:0
DA:242,0
DA:243,0
DA:244,0
DA:245,0
DA:246,0
DA:303,0
LF:6
LH:0
end_of_record
SF:/usr/share/miniconda/envs/moose/x86_64-conda-linux-gnu/include/c++/10.3.0/iostream
LF:0
LH:0
end_of_record
SF:/usr/share/miniconda/envs/moose/x86_64-conda-linux-gnu/include/c++/10.3.0/tuple
FN:1689,_ZNSt4pairIKNSt7__cxx1112basic_stringIcSt11char_traitsIcESaIcEEEN15InputParameters8MetadataEEC2IJRS6_EJLm0EEJEJEEERSt5tupleIJDpT_EERSC_IJDpT1_EESt12_Index_tupleIJXspT0_EEESL_IJXspT2_EEE
FNDA:49658,_ZNSt4pairIKNSt7__cxx1112basic_stringIcSt11char_traitsIcESaIcEEEN15InputParameters8MetadataEEC2IJRS6_EJLm0EEJEJEEERSt5tupleIJDpT_EERSC_IJDpT1_EESt12_Index_tupleIJXspT0_EEESL_IJXspT2_EEE
FNF:1
FNH:1
DA:124,0
DA:129,148974
DA:130,99316
DA:166,148974
DA:520,0
DA:1677,49658
DA:1682,49658
DA:1689,99316
DA:1693,99316
DA:1694,49658
LF:10
LH:8
end_of_record
SF:/usr/share/miniconda/envs/moose/x86_64-conda-linux-gnu/include/c++/10.3.0/bits/stl_pair.h
DA:211,0
LF:1
LH:0
end_of_record
SF:/usr/share/miniconda/envs/moose/x86_64-conda-linux-gnu/include/c++/10.3.0/initializer_list
DA:71,0
DA:79,0
LF:2
LH:0
end_of_record
SF:/usr/share/miniconda/envs/moose/x86_64-conda-linux-gnu/include/c++/10.3.0/bits/stl_map.h
FN:492,_ZNSt3mapINSt7__cxx1112basic_stringIcSt11char_traitsIcESaIcEEEN15InputParameters8MetadataESt4lessIS5_ESaISt4pairIKS5_S7_EEEixERSB_
FNDA:49968,_ZNSt3mapINSt7__cxx1112basic_stringIcSt11char_traitsIcESaIcEEEN15InputParameters8MetadataESt4lessIS5_ESaISt4pairIKS5_S7_EEEixERSB_
FN:492,_ZNSt3mapINSt7__cxx1112basic_stringIcSt11char_traitsIcESaIcEEEPN7libMesh10Parameters5ValueESt4lessIS5_ESaISt4pairIKS5_S9_EEEixERSD_
FNDA:49658,_ZNSt3mapINSt7__cxx1112basic_stringIcSt11char_traitsIcESaIcEEEPN7libMesh10Parameters5ValueESt4lessIS5_ESaISt4pairIKS5_S9_EEEixERSD_
FN:1258,_ZNSt3mapINSt7__cxx1112basic_stringIcSt11char_traitsIcESaIcEEEN15InputParameters8MetadataESt4lessIS5_ESaISt4pairIKS5_S7_EEE11lower_boundERSB_
FNDA:49968,_ZNSt3mapINSt7__cxx1112basic_stringIcSt11char_traitsIcESaIcEEEN15InputParameters8MetadataESt4lessIS5_ESaISt4pairIKS5_S7_EEE11lower_boundERSB_
FN:1258,_ZNSt3mapINSt7__cxx1112basic_stringIcSt11char_traitsIcESaIcEEEPN7libMesh10Parameters5ValueESt4lessIS5_ESaISt4pairIKS5_S9_EEE11lower_boundERSD_
FNDA:49658,_ZNSt3mapINSt7__cxx1112basic_stringIcSt11char_traitsIcESaIcEEEPN7libMesh10Parameters5ValueESt4lessIS5_ESaISt4pairIKS5_S9_EEE11lower_boundERSD_
FNF:4
FNH:4
DA:302,0
DA:492,49968
DA:497,49968
DA:499,49968
DA:501,49658
DA:502,49658
DA:503,49658
DA:507,49968
DA:492,49658
DA:497,49658
DA:499,49658
DA:501,49658
DA:502,49658
DA:503,49658
DA:507,49658
DA:1038,0
DA:1170,0
DA:1195,49968
DA:1258,49968
DA:1259,49968
DA:1258,49658
DA:1259,49658
LF:22
LH:19
end_of_record
SF:/usr/share/miniconda/envs/moose/x86_64-conda-linux-gnu/include/c++/10.3.0/bits/hashtable.h
FN:411,_ZNSt10_HashtableINSt7__cxx1112basic_stringIcSt11char_traitsIcESaIcEEESt4pairIKS5_S5_ESaIS8_ENSt8__detail10_Select1stESt8equal_toIS5_ESt4hashIS5_ENSA_18_Mod_range_hashingENSA_20_Default_ranged_hashENSA_20_Prime_rehash_policyENSA_17_Hashtable_traitsILb1ELb0ELb1EEEE21_M_deallocate_bucketsEv
FNDA:0,_ZNSt10_HashtableINSt7__cxx1112basic_stringIcSt11char_traitsIcESaIcEEESt4pairIKS5_S5_ESaIS8_ENSt8__detail10_Select1stESt8equal_toIS5_ESt4hashIS5_ENSA_18_Mod_range_hashingENSA_20_Default_ranged_hashENSA_20_Prime_rehash_policyENSA_17_Hashtable_traitsILb1ELb0ELb1EEEE21_M_deallocate_bucketsEv
FN:2026,_ZNSt10_HashtableINSt7__cxx1112basic_stringIcSt11char_traitsIcESaIcEEESt4pairIKS5_S5_ESaIS8_ENSt8__detail10_Select1stESt8equal_toIS5_ESt4hashIS5_ENSA_18_Mod_range_hashingENSA_20_Default_ranged_hashENSA_20_Prime_rehash_policyENSA_17_Hashtable_traitsILb1ELb0ELb1EEEE5clearEv
FNDA:0,_ZNSt10_HashtableINSt7__cxx1112basic_stringIcSt11char_traitsIcESaIcEEESt4pairIKS5_S5_ESaIS8_ENSt8__detail10_Select1stESt8equal_toIS5_ESt4hashIS5_ENSA_18_Mod_range_hashingENSA_20_Default_ranged_hashENSA_20_Prime_rehash_policyENSA_17_Hashtable_traitsILb1ELb0ELb1EEEE5clearEv
FNF:2
FNH:0
DA:380,0
DA:404,0
DA:411,0
DA:412,0
DA:421,0
DA:1387,0
DA:1388,0
DA:2026,0
DA:2031,0
DA:2032,0
DA:2033,0
DA:2034,0
LF:12
LH:0
end_of_record
SF:/usr/share/miniconda/envs/moose/x86_64-conda-linux-gnu/include/c++/10.3.0/bits/stl_tree.h
FN:613,_ZNSt8_Rb_treeINSt7__cxx1112basic_stringIcSt11char_traitsIcESaIcEEESt4pairIKS5_N15InputParameters8MetadataEESt10_Select1stISA_ESt4lessIS5_ESaISA_EE17_M_construct_nodeIJRKSt21piecewise_construct_tSt5tupleIJRS7_EESL_IJEEEEEvPSt13_Rb_tree_nodeISA_EDpOT_
FNDA:49658,_ZNSt8_Rb_treeINSt7__cxx1112basic_stringIcSt11char_traitsIcESaIcEEESt4pairIKS5_N15InputParameters8MetadataEESt10_Select1stISA_ESt4lessIS5_ESaISA_EE17_M_construct_nodeIJRKSt21piecewise_construct_tSt5tupleIJRS7_EESL_IJEEEEEvPSt13_Rb_tree_nodeISA_EDpOT_
FN:613,_ZNSt8_Rb_treeINSt7__cxx1112basic_stringIcSt11char_traitsIcESaIcEEESt4pairIKS5_PN7libMesh10Parameters5ValueEESt10_Select1stISC_ESt4lessIS5_ESaISC_EE17_M_construct_nodeIJRKSt21piecewise_construct_tSt5tupleIJRS7_EESN_IJEEEEEvPSt13_Rb_tree_nodeISC_EDpOT_
FNDA:49658,_ZNSt8_Rb_treeINSt7__cxx1112basic_stringIcSt11char_traitsIcESaIcEEESt4pairIKS5_PN7libMesh10Parameters5ValueEESt10_Select1stISC_ESt4lessIS5_ESaISC_EE17_M_construct_nodeIJRKSt21piecewise_construct_tSt5tupleIJRS7_EESN_IJEEEEEvPSt13_Rb_tree_nodeISC_EDpOT_
FN:632,_ZNSt8_Rb_treeINSt7__cxx1112basic_stringIcSt11char_traitsIcESaIcEEESt4pairIKS5_PN7libMesh10Parameters5ValueEESt10_Select1stISC_ESt4lessIS5_ESaISC_EE14_M_create_nodeIJRKSt21piecewise_construct_tSt5tupleIJRS7_EESN_IJEEEEEPSt13_Rb_tree_nodeISC_EDpOT_
FNDA:49658,_ZNSt8_Rb_treeINSt7__cxx1112basic_stringIcSt11char_traitsIcESaIcEEESt4pairIKS5_PN7libMesh10Parameters5ValueEESt10_Select1stISC_ESt4lessIS5_ESaISC_EE14_M_create_nodeIJRKSt21piecewise_construct_tSt5tupleIJRS7_EESN_IJEEEEEPSt13_Rb_tree_nodeISC_EDpOT_
FN:632,_ZNSt8_Rb_treeINSt7__cxx1112basic_stringIcSt11char_traitsIcESaIcEEESt4pairIKS5_N15InputParameters8MetadataEESt10_Select1stISA_ESt4lessIS5_ESaISA_EE14_M_create_nodeIJRKSt21piecewise_construct_tSt5tupleIJRS7_EESL_IJEEEEEPSt13_Rb_tree_nodeISA_EDpOT_
FNDA:49658,_ZNSt8_Rb_treeINSt7__cxx1112basic_stringIcSt11char_traitsIcESaIcEEESt4pairIKS5_N15InputParameters8MetadataEESt10_Select1stISA_ESt4lessIS5_ESaISA_EE14_M_create_nodeIJRKSt21piecewise_construct_tSt5tupleIJRS7_EESL_IJEEEEEPSt13_Rb_tree_nodeISA_EDpOT_
FN:652,_ZNSt8_Rb_treeI13MooseEnumItemS0_St9_IdentityIS0_ESt4lessIS0_ESaIS0_EE12_M_drop_nodeEPSt13_Rb_tree_nodeIS0_E
FNDA:0,_ZNSt8_Rb_treeI13MooseEnumItemS0_St9_IdentityIS0_ESt4lessIS0_ESaIS0_EE12_M_drop_nodeEPSt13_Rb_tree_nodeIS0_E
FN:652,_ZNSt8_Rb_treeINSt7__cxx1112basic_stringIcSt11char_traitsIcESaIcEEESt4pairIKS5_N15InputParameters8MetadataEESt10_Select1stISA_ESt4lessIS5_ESaISA_EE12_M_drop_nodeEPSt13_Rb_tree_nodeISA_E
FNDA:0,_ZNSt8_Rb_treeINSt7__cxx1112basic_stringIcSt11char_traitsIcESaIcEEESt4pairIKS5_N15InputParameters8MetadataEESt10_Select1stISA_ESt4lessIS5_ESaISA_EE12_M_drop_nodeEPSt13_Rb_tree_nodeISA_E
FN:1211,_ZNSt8_Rb_treeINSt7__cxx1112basic_stringIcSt11char_traitsIcESaIcEEESt4pairIKS5_PN7libMesh10Parameters5ValueEESt10_Select1stISC_ESt4lessIS5_ESaISC_EE5eraseB5cxx11ESt17_Rb_tree_iteratorISC_E
FNDA:0,_ZNSt8_Rb_treeINSt7__cxx1112basic_stringIcSt11char_traitsIcESaIcEEESt4pairIKS5_PN7libMesh10Parameters5ValueEESt10_Select1stISC_ESt4lessIS5_ESaISC_EE5eraseB5cxx11ESt17_Rb_tree_iteratorISC_E
FN:1913,_ZNSt8_Rb_treeINSt7__cxx1112basic_stringIcSt11char_traitsIcESaIcEEESt4pairIKS5_PN7libMesh10Parameters5ValueEESt10_Select1stISC_ESt4lessIS5_ESaISC_EE8_M_eraseEPSt13_Rb_tree_nodeISC_E
FNDA:0,_ZNSt8_Rb_treeINSt7__cxx1112basic_stringIcSt11char_traitsIcESaIcEEESt4pairIKS5_PN7libMesh10Parameters5ValueEESt10_Select1stISC_ESt4lessIS5_ESaISC_EE8_M_eraseEPSt13_Rb_tree_nodeISC_E
FN:1913,_ZNSt8_Rb_treeINSt7__cxx1112basic_stringIcSt11char_traitsIcESaIcEEESt4pairIKS5_N15InputParameters8MetadataEESt10_Select1stISA_ESt4lessIS5_ESaISA_EE8_M_eraseEPSt13_Rb_tree_nodeISA_E
FNDA:0,_ZNSt8_Rb_treeINSt7__cxx1112basic_stringIcSt11char_traitsIcESaIcEEESt4pairIKS5_N15InputParameters8MetadataEESt10_Select1stISA_ESt4lessIS5_ESaISA_EE8_M_eraseEPSt13_Rb_tree_nodeISA_E
FN:1913,_ZNSt8_Rb_treeIttSt9_IdentityItESt4lessItESaItEE8_M_eraseEPSt13_Rb_tree_nodeItE
FNDA:0,_ZNSt8_Rb_treeIttSt9_IdentityItESt4lessItESaItEE8_M_eraseEPSt13_Rb_tree_nodeItE
FN:1913,_ZNSt8_Rb_treeIssSt9_IdentityIsESt4lessIsESaIsEE8_M_eraseEPSt13_Rb_tree_nodeIsE
FNDA:0,_ZNSt8_Rb_treeIssSt9_IdentityIsESt4lessIsESaIsEE8_M_eraseEPSt13_Rb_tree_nodeIsE
FN:1913,_ZNSt8_Rb_treeINSt7__cxx1112basic_stringIcSt11char_traitsIcESaIcEEES5_St9_IdentityIS5_ESt4lessIS5_ESaIS5_EE8_M_eraseEPSt13_Rb_tree_nodeIS5_E
FNDA:0,_ZNSt8_Rb_treeINSt7__cxx1112basic_stringIcSt11char_traitsIcESaIcEEES5_St9_IdentityIS5_ESt4lessIS5_ESaIS5_EE8_M_eraseEPSt13_Rb_tree_nodeIS5_E
FN:1913,_ZNSt8_Rb_treeI13MooseEnumItemS0_St9_IdentityIS0_ESt4lessIS0_ESaIS0_EE8_M_eraseEPSt13_Rb_tree_nodeIS0_E
FNDA:0,_ZNSt8_Rb_treeI13MooseEnumItemS0_St9_IdentityIS0_ESt4lessIS0_ESaIS0_EE8_M_eraseEPSt13_Rb_tree_nodeIS0_E
FN:1930,_ZNSt8_Rb_treeINSt7__cxx1112basic_stringIcSt11char_traitsIcESaIcEEESt4pairIKS5_N15InputParameters8MetadataEESt10_Select1stISA_ESt4lessIS5_ESaISA_EE14_M_lower_boundEPSt13_Rb_tree_nodeISA_EPSt18_Rb_tree_node_baseRS7_
FNDA:49968,_ZNSt8_Rb_treeINSt7__cxx1112basic_stringIcSt11char_traitsIcESaIcEEESt4pairIKS5_N15InputParameters8MetadataEESt10_Select1stISA_ESt4lessIS5_ESaISA_EE14_M_lower_boundEPSt13_Rb_tree_nodeISA_EPSt18_Rb_tree_node_baseRS7_
FN:1930,_ZNSt8_Rb_treeINSt7__cxx1112basic_stringIcSt11char_traitsIcESaIcEEESt4pairIKS5_PN7libMesh10Parameters5ValueEESt10_Select1stISC_ESt4lessIS5_ESaISC_EE14_M_lower_boundEPSt13_Rb_tree_nodeISC_EPSt18_Rb_tree_node_baseRS7_
FNDA:49658,_ZNSt8_Rb_treeINSt7__cxx1112basic_stringIcSt11char_traitsIcESaIcEEESt4pairIKS5_PN7libMesh10Parameters5ValueEESt10_Select1stISC_ESt4lessIS5_ESaISC_EE14_M_lower_boundEPSt13_Rb_tree_nodeISC_EPSt18_Rb_tree_node_baseRS7_
FN:1946,_ZNKSt8_Rb_treeINSt7__cxx1112basic_stringIcSt11char_traitsIcESaIcEEESt4pairIKS5_PN7libMesh10Parameters5ValueEESt10_Select1stISC_ESt4lessIS5_ESaISC_EE14_M_lower_boundEPKSt13_Rb_tree_nodeISC_EPKSt18_Rb_tree_node_baseRS7_
FNDA:0,_ZNKSt8_Rb_treeINSt7__cxx1112basic_stringIcSt11char_traitsIcESaIcEEESt4pairIKS5_PN7libMesh10Parameters5ValueEESt10_Select1stISC_ESt4lessIS5_ESaISC_EE14_M_lower_boundEPKSt13_Rb_tree_nodeISC_EPKSt18_Rb_tree_node_baseRS7_
FN:2091,_ZNSt8_Rb_treeINSt7__cxx1112basic_stringIcSt11char_traitsIcESaIcEEESt4pairIKS5_PN7libMesh10Parameters5ValueEESt10_Select1stISC_ESt4lessIS5_ESaISC_EE24_M_get_insert_unique_posERS7_
FNDA:0,_ZNSt8_Rb_treeINSt7__cxx1112basic_stringIcSt11char_traitsIcESaIcEEESt4pairIKS5_PN7libMesh10Parameters5ValueEESt10_Select1stISC_ESt4lessIS5_ESaISC_EE24_M_get_insert_unique_posERS7_
FN:2091,_ZNSt8_Rb_treeINSt7__cxx1112basic_stringIcSt11char_traitsIcESaIcEEESt4pairIKS5_N15InputParameters8MetadataEESt10_Select1stISA_ESt4lessIS5_ESaISA_EE24_M_get_insert_unique_posERS7_
FNDA:0,_ZNSt8_Rb_treeINSt7__cxx1112basic_stringIcSt11char_traitsIcESaIcEEESt4pairIKS5_N15InputParameters8MetadataEESt10_Select1stISA_ESt4lessIS5_ESaISA_EE24_M_get_insert_unique_posERS7_
FN:2193,_ZNSt8_Rb_treeINSt7__cxx1112basic_stringIcSt11char_traitsIcESaIcEEESt4pairIKS5_N15InputParameters8MetadataEESt10_Select1stISA_ESt4lessIS5_ESaISA_EE29_M_get_insert_hint_unique_posESt23_Rb_tree_const_iteratorISA_ERS7_
FNDA:0,_ZNSt8_Rb_treeINSt7__cxx1112basic_stringIcSt11char_traitsIcESaIcEEESt4pairIKS5_N15InputParameters8MetadataEESt10_Select1stISA_ESt4lessIS5_ESaISA_EE29_M_get_insert_hint_unique_posESt23_Rb_tree_const_iteratorISA_ERS7_
FN:2193,_ZNSt8_Rb_treeINSt7__cxx1112basic_stringIcSt11char_traitsIcESaIcEEESt4pairIKS5_PN7libMesh10Parameters5ValueEESt10_Select1stISC_ESt4lessIS5_ESaISC_EE29_M_get_insert_hint_unique_posESt23_Rb_tree_const_iteratorISC_ERS7_
FNDA:0,_ZNSt8_Rb_treeINSt7__cxx1112basic_stringIcSt11char_traitsIcESaIcEEESt4pairIKS5_PN7libMesh10Parameters5ValueEESt10_Select1stISC_ESt4lessIS5_ESaISC_EE29_M_get_insert_hint_unique_posESt23_Rb_tree_const_iteratorISC_ERS7_
FN:2360,_ZNSt8_Rb_treeINSt7__cxx1112basic_stringIcSt11char_traitsIcESaIcEEESt4pairIKS5_N15InputParameters8MetadataEESt10_Select1stISA_ESt4lessIS5_ESaISA_EE14_M_insert_nodeEPSt18_Rb_tree_node_baseSI_PSt13_Rb_tree_nodeISA_E
FNDA:49658,_ZNSt8_Rb_treeINSt7__cxx1112basic_stringIcSt11char_traitsIcESaIcEEESt4pairIKS5_N15InputParameters8MetadataEESt10_Select1stISA_ESt4lessIS5_ESaISA_EE14_M_insert_nodeEPSt18_Rb_tree_node_baseSI_PSt13_Rb_tree_nodeISA_E
FN:2360,_ZNSt8_Rb_treeINSt7__cxx1112basic_stringIcSt11char_traitsIcESaIcEEESt4pairIKS5_PN7libMesh10Parameters5ValueEESt10_Select1stISC_ESt4lessIS5_ESaISC_EE14_M_insert_nodeEPSt18_Rb_tree_node_baseSK_PSt13_Rb_tree_nodeISC_E
FNDA:49658,_ZNSt8_Rb_treeINSt7__cxx1112basic_stringIcSt11char_traitsIcESaIcEEESt4pairIKS5_PN7libMesh10Parameters5ValueEESt10_Select1stISC_ESt4lessIS5_ESaISC_EE14_M_insert_nodeEPSt18_Rb_tree_node_baseSK_PSt13_Rb_tree_nodeISC_E
FN:2458,_ZNSt8_Rb_treeINSt7__cxx1112basic_stringIcSt11char_traitsIcESaIcEEESt4pairIKS5_N15InputParameters8MetadataEESt10_Select1stISA_ESt4lessIS5_ESaISA_EE22_M_emplace_hint_uniqueIJRKSt21piecewise_construct_tSt5tupleIJRS7_EESL_IJEEEEESt17_Rb_tree_iteratorISA_ESt23_Rb_tree_const_iteratorISA_EDpOT_
FNDA:49658,_ZNSt8_Rb_treeINSt7__cxx1112basic_stringIcSt11char_traitsIcESaIcEEESt4pairIKS5_N15InputParameters8MetadataEESt10_Select1stISA_ESt4lessIS5_ESaISA_EE22_M_emplace_hint_uniqueIJRKSt21piecewise_construct_tSt5tupleIJRS7_EESL_IJEEEEESt17_Rb_tree_iteratorISA_ESt23_Rb_tree_const_iteratorISA_EDpOT_
FN:2458,_ZNSt8_Rb_treeINSt7__cxx1112basic_stringIcSt11char_traitsIcESaIcEEESt4pairIKS5_PN7libMesh10Parameters5ValueEESt10_Select1stISC_ESt4lessIS5_ESaISC_EE22_M_emplace_hint_uniqueIJRKSt21piecewise_construct_tSt5tupleIJRS7_EESN_IJEEEEESt17_Rb_tree_iteratorISC_ESt23_Rb_tree_const_iteratorISC_EDpOT_
FNDA:49658,_ZNSt8_Rb_treeINSt7__cxx1112basic_stringIcSt11char_traitsIcESaIcEEESt4pairIKS5_PN7libMesh10Parameters5ValueEESt10_Select1stISC_ESt4lessIS5_ESaISC_EE22_M_emplace_hint_uniqueIJRKSt21piecewise_construct_tSt5tupleIJRS7_EESN_IJEEEEESt17_Rb_tree_iteratorISC_ESt23_Rb_tree_const_iteratorISC_EDpOT_
FN:2510,_ZNSt8_Rb_treeINSt7__cxx1112basic_stringIcSt11char_traitsIcESaIcEEESt4pairIKS5_PN7libMesh10Parameters5ValueEESt10_Select1stISC_ESt4lessIS5_ESaISC_EE12_M_erase_auxESt23_Rb_tree_const_iteratorISC_E
FNDA:0,_ZNSt8_Rb_treeINSt7__cxx1112basic_stringIcSt11char_traitsIcESaIcEEESt4pairIKS5_PN7libMesh10Parameters5ValueEESt10_Select1stISC_ESt4lessIS5_ESaISC_EE12_M_erase_auxESt23_Rb_tree_const_iteratorISC_E
FN:2550,_ZNSt8_Rb_treeINSt7__cxx1112basic_stringIcSt11char_traitsIcESaIcEEESt4pairIKS5_PN7libMesh10Parameters5ValueEESt10_Select1stISC_ESt4lessIS5_ESaISC_EE4findERS7_
FNDA:0,_ZNSt8_Rb_treeINSt7__cxx1112basic_stringIcSt11char_traitsIcESaIcEEESt4pairIKS5_PN7libMesh10Parameters5ValueEESt10_Select1stISC_ESt4lessIS5_ESaISC_EE4findERS7_
FN:2563,_ZNKSt8_Rb_treeINSt7__cxx1112basic_stringIcSt11char_traitsIcESaIcEEESt4pairIKS5_PN7libMesh10Parameters5ValueEESt10_Select1stISC_ESt4lessIS5_ESaISC_EE4findERS7_
FNDA:0,_ZNKSt8_Rb_treeINSt7__cxx1112basic_stringIcSt11char_traitsIcESaIcEEESt4pairIKS5_PN7libMesh10Parameters5ValueEESt10_Select1stISC_ESt4lessIS5_ESaISC_EE4findERS7_
FNF:27
FNH:10
DA:287,0
DA:302,0
DA:303,0
DA:350,99316
DA:351,99316
DA:355,0
DA:368,0
DA:369,0
DA:571,49658
DA:613,49658
DA:622,0
DA:624,0
DA:626,0
DA:628,49658
DA:613,49658
DA:622,0
DA:624,0
DA:626,0
DA:628,49658
DA:632,49658
DA:635,49658
DA:636,49658
DA:632,49658
DA:635,49658
DA:636,49658
DA:647,0
DA:652,0
DA:656,0
DA:652,0
DA:656,0
DA:749,99626
DA:755,0
DA:760,185032
DA:764,0
DA:790,176590
DA:794,0
DA:798,239674
DA:802,0
DA:991,0
DA:1003,0
DA:1007,0
DA:1011,99626
DA:1015,49968
DA:1035,0
DA:1039,0
DA:1211,0
DA:1214,0
DA:1216,0
DA:1217,0
DA:1277,99626
DA:1913,0
DA:1917,0
DA:1919,0
DA:1921,0
DA:1924,0
DA:1913,0
DA:1917,0
DA:1919,0
DA:1921,0
DA:1924,0
DA:1913,0
DA:1917,0
DA:1919,0
DA:1924,0
DA:1913,0
DA:1917,0
DA:1919,0
DA:1924,0
DA:1913,0
DA:1917,0
DA:1919,0
DA:1924,0
DA:1913,0
DA:1917,0
DA:1919,0
DA:1924,0
DA:1930,49968
DA:1934,258875
DA:1935,208907
DA:1939,49968
DA:1930,49658
DA:1934,257015
DA:1935,207357
DA:1939,49658
DA:1946,0
DA:1950,0
DA:1951,0
DA:1955,0
DA:2091,0
DA:2098,0
DA:2102,0
DA:2105,0
DA:2107,0
DA:2108,0
DA:2112,0
DA:2113,0
DA:2114,0
DA:2091,0
DA:2098,0
DA:2102,0
DA:2105,0
DA:2107,0
DA:2108,0
DA:2112,0
DA:2113,0
DA:2114,0
DA:2193,0
DA:2201,0
DA:2204,0
DA:2205,0
DA:2207,0
DA:2209,0
DA:2213,0
DA:2214,0
DA:2215,0
DA:2217,0
DA:2218,0
DA:2220,0
DA:2223,0
DA:2225,0
DA:2229,0
DA:2230,0
DA:2231,0
DA:2233,0
DA:2234,0
DA:2236,0
DA:2239,0
DA:2243,0
DA:2193,0
DA:2201,0
DA:2204,0
DA:2205,0
DA:2207,0
DA:2209,0
DA:2213,0
DA:2214,0
DA:2215,0
DA:2217,0
DA:2218,0
DA:2220,0
DA:2223,0
DA:2225,0
DA:2229,0
DA:2230,0
DA:2231,0
DA:2233,0
DA:2234,0
DA:2236,0
DA:2239,0
DA:2243,0
DA:2360,49658
DA:2363,42703
DA:2364,87802
DA:2367,49658
DA:2368,49658
DA:2369,49658
DA:2370,49658
DA:2360,49658
DA:2363,42703
DA:2364,87802
DA:2367,49658
DA:2368,49658
DA:2369,49658
DA:2370,49658
DA:2458,49658
DA:2461,49658
DA:2465,49658
DA:2467,49658
DA:2468,49658
DA:2470,0
DA:2471,0
DA:2458,49658
DA:2461,49658
DA:2465,49658
DA:2467,49658
DA:2468,49658
DA:2471,0
DA:2510,0
DA:2515,0
DA:2516,0
DA:2518,0
DA:2519,0
DA:2550,0
DA:2553,0
DA:2555,0
DA:2556,0
DA:2563,0
DA:2566,0
DA:2568,0
DA:2569,0
LF:190
LH:52
end_of_record
SF:/usr/share/miniconda/envs/moose/x86_64-conda-linux-gnu/include/c++/10.3.0/ext/new_allocator.h
FN:148,_ZN9__gnu_cxx13new_allocatorISt13_Rb_tree_nodeISt4pairIKNSt7__cxx1112basic_stringIcSt11char_traitsIcESaIcEEEN15InputParameters8MetadataEEEE9constructISC_JRKSt21piecewise_construct_tSt5tupleIJRS9_EESJ_IJEEEEEvPT_DpOT0_
FNDA:49658,_ZN9__gnu_cxx13new_allocatorISt13_Rb_tree_nodeISt4pairIKNSt7__cxx1112basic_stringIcSt11char_traitsIcESaIcEEEN15InputParameters8MetadataEEEE9constructISC_JRKSt21piecewise_construct_tSt5tupleIJRS9_EESJ_IJEEEEEvPT_DpOT0_
FNF:1
FNH:1
DA:105,0
DA:106,0
DA:115,99316
DA:133,0
DA:148,49658
DA:150,49658
LF:6
LH:3
end_of_record
SF:/usr/share/miniconda/envs/moose/libmesh/include/timpi/message_tag.h
LF:0
LH:0
end_of_record
SF:/usr/share/miniconda/envs/moose/x86_64-conda-linux-gnu/include/c++/10.3.0/bits/stl_vector.h
FN:333,_ZNSt12_Vector_baseISt5tupleIJNSt7__cxx1112basic_stringIcSt11char_traitsIcESaIcEEEN5Moose23RelationshipManagerTypeESt8functionIFvRK15InputParametersRSA_EEEESaISG_EED2Ev
FNDA:0,_ZNSt12_Vector_baseISt5tupleIJNSt7__cxx1112basic_stringIcSt11char_traitsIcESaIcEEEN5Moose23RelationshipManagerTypeESt8functionIFvRK15InputParametersRSA_EEEESaISG_EED2Ev
FN:333,_ZNSt12_Vector_baseIdSaIdEED2Ev
FNDA:0,_ZNSt12_Vector_baseIdSaIdEED2Ev
FN:333,_ZNSt12_Vector_baseI20MaterialPropertyNameSaIS0_EED2Ev
FNDA:0,_ZNSt12_Vector_baseI20MaterialPropertyNameSaIS0_EED2Ev
FN:333,_ZNSt12_Vector_baseINSt7__cxx1112basic_stringIcSt11char_traitsIcESaIcEEESaIS5_EED2Ev
FNDA:0,_ZNSt12_Vector_baseINSt7__cxx1112basic_stringIcSt11char_traitsIcESaIcEEESaIS5_EED2Ev
FN:625,_ZNSt6vectorIdSaIdEEC2ESt16initializer_listIdERKS0_
FNDA:0,_ZNSt6vectorIdSaIdEEC2ESt16initializer_listIdERKS0_
FN:678,_ZNSt6vectorISt5tupleIJNSt7__cxx1112basic_stringIcSt11char_traitsIcESaIcEEEN5Moose23RelationshipManagerTypeESt8functionIFvRK15InputParametersRSA_EEEESaISG_EED2Ev
FNDA:0,_ZNSt6vectorISt5tupleIJNSt7__cxx1112basic_stringIcSt11char_traitsIcESaIcEEEN5Moose23RelationshipManagerTypeESt8functionIFvRK15InputParametersRSA_EEEESaISG_EED2Ev
FN:678,_ZNSt6vectorI20MaterialPropertyNameSaIS0_EED2Ev
FNDA:0,_ZNSt6vectorI20MaterialPropertyNameSaIS0_EED2Ev
FN:678,_ZNSt6vectorINSt7__cxx1112basic_stringIcSt11char_traitsIcESaIcEEESaIS5_EED2Ev
FNDA:0,_ZNSt6vectorINSt7__cxx1112basic_stringIcSt11char_traitsIcESaIcEEESaIS5_EED2Ev
FN:1187,_ZNSt6vectorI20MaterialPropertyNameSaIS0_EE9push_backERKS0_
FNDA:0,_ZNSt6vectorI20MaterialPropertyNameSaIS0_EE9push_backERKS0_
FN:1577,_ZNSt6vectorIdSaIdEE19_M_range_initializeIPKdEEvT_S5_St20forward_iterator_tag
FNDA:0,_ZNSt6vectorIdSaIdEE19_M_range_initializeIPKdEEvT_S5_St20forward_iterator_tag
FN:1756,_ZNKSt6vectorI20MaterialPropertyNameSaIS0_EE12_M_check_lenEmPKc
FNDA:0,_ZNKSt6vectorI20MaterialPropertyNameSaIS0_EE12_M_check_lenEmPKc
FNF:11
FNH:0
DA:97,0
DA:98,42
DA:277,0
DA:333,0
DA:336,0
DA:337,0
DA:333,0
DA:336,0
DA:337,0
DA:333,0
DA:336,0
DA:337,0
DA:333,0
DA:336,0
DA:337,0
DA:346,0
DA:353,0
DA:625,0
DA:627,0
DA:629,0
DA:631,0
DA:678,0
DA:680,0
DA:683,0
DA:678,0
DA:680,0
DA:683,0
DA:678,0
DA:680,0
DA:683,0
DA:919,0
DA:1187,0
DA:1189,0
DA:1194,0
DA:1198,0
DA:1199,0
DA:1577,0
DA:1580,0
DA:1582,0
DA:1583,0
DA:1584,0
DA:1588,0
DA:1756,0
DA:1758,0
DA:1759,0
DA:1761,0
DA:1762,0
DA:1769,0
DA:1770,0
LF:49
LH:1
end_of_record
TN:
SF:/usr/share/miniconda/envs/moose/x86_64-conda-linux-gnu/include/c++/10.3.0/bits/move.h
DA:197,0
DA:198,0
DA:199,0
LF:3
LH:0
end_of_record
SF:/usr/share/miniconda/envs/moose/libmesh/include/metaphysicl/dynamic_std_array_wrapper.h
FN:54,_ZN11MetaPhysicL22DynamicStdArrayWrapperImNS_8NWrapperILm53EEEEC2ERKS3_
FNDA:199,_ZN11MetaPhysicL22DynamicStdArrayWrapperImNS_8NWrapperILm53EEEEC2ERKS3_
FN:54,_ZN11MetaPhysicL22DynamicStdArrayWrapperIdNS_8NWrapperILm53EEEEC2ERKS3_
FNDA:199,_ZN11MetaPhysicL22DynamicStdArrayWrapperIdNS_8NWrapperILm53EEEEC2ERKS3_
FN:71,_ZN11MetaPhysicL22DynamicStdArrayWrapperImNS_8NWrapperILm53EEEEaSERKS3_
FNDA:0,_ZN11MetaPhysicL22DynamicStdArrayWrapperImNS_8NWrapperILm53EEEEaSERKS3_
FN:71,_ZN11MetaPhysicL22DynamicStdArrayWrapperIdNS_8NWrapperILm53EEEEaSERKS3_
FNDA:0,_ZN11MetaPhysicL22DynamicStdArrayWrapperIdNS_8NWrapperILm53EEEEaSERKS3_
FN:122,_ZN11MetaPhysicL22DynamicStdArrayWrapperImNS_8NWrapperILm53EEEE6resizeEm
FNDA:0,_ZN11MetaPhysicL22DynamicStdArrayWrapperImNS_8NWrapperILm53EEEE6resizeEm
FN:122,_ZN11MetaPhysicL22DynamicStdArrayWrapperIdNS_8NWrapperILm53EEEE6resizeEm
FNDA:0,_ZN11MetaPhysicL22DynamicStdArrayWrapperIdNS_8NWrapperILm53EEEE6resizeEm
FNF:6
FNH:2
DA:54,199
DA:56,199
DA:58,199
DA:59,199
DA:54,199
DA:56,199
DA:58,199
DA:59,199
DA:62,0
DA:64,0
DA:67,0
DA:68,0
DA:71,0
DA:73,0
DA:75,0
DA:76,0
DA:71,0
DA:73,0
DA:75,0
DA:76,0
DA:82,20572700
DA:85,22024900
DA:86,1452130
DA:90,17763700
DA:99,20572700
DA:105,2189
DA:120,1181750
DA:122,0
DA:124,0
DA:125,0
DA:126,0
DA:127,0
DA:122,0
DA:124,0
DA:125,0
DA:126,0
DA:127,0
DA:132,0
DA:138,0
DA:143,0
LF:40
LH:15
end_of_record
SF:/usr/share/miniconda/envs/moose/libmesh/include/libmesh/threads_pthread.h
FN:524,_ZN7libMesh7Threads6atomicIjEppEv
FNDA:0,_ZN7libMesh7Threads6atomicIjEppEv
FN:538,_ZN7libMesh7Threads6atomicIjEmmEv
FNDA:0,_ZN7libMesh7Threads6atomicIjEmmEv
FNF:2
FNH:0
DA:149,0
DA:150,0
DA:524,0
DA:527,0
DA:528,0
DA:538,0
DA:541,0
DA:542,0
LF:8
LH:0
end_of_record
SF:/usr/share/miniconda/envs/moose/x86_64-conda-linux-gnu/include/c++/10.3.0/bits/stl_iterator_base_funcs.h
DA:104,7196
LF:1
LH:1
end_of_record
SF:/usr/share/miniconda/envs/moose/x86_64-conda-linux-gnu/include/c++/10.3.0/bits/hashtable_policy.h
FN:701,_ZNSt8__detail9_Map_baseImSt4pairIKmSt6vectorIS3_IS1_IbdESaIS4_EESaIS6_EEESaIS9_ENS_10_Select1stESt8equal_toImESt4hashImENS_18_Mod_range_hashingENS_20_Default_ranged_hashENS_20_Prime_rehash_policyENS_17_Hashtable_traitsILb0ELb0ELb1EEELb1EEixERS2_
FNDA:0,_ZNSt8__detail9_Map_baseImSt4pairIKmSt6vectorIS3_IS1_IbdESaIS4_EESaIS6_EEESaIS9_ENS_10_Select1stESt8equal_toImESt4hashImENS_18_Mod_range_hashingENS_20_Default_ranged_hashENS_20_Prime_rehash_policyENS_17_Hashtable_traitsILb0ELb0ELb1EEELb1EEixERS2_
FN:701,_ZNSt8__detail9_Map_baseImSt4pairIKmSt6vectorIS1_IbdESaIS4_EEESaIS7_ENS_10_Select1stESt8equal_toImESt4hashImENS_18_Mod_range_hashingENS_20_Default_ranged_hashENS_20_Prime_rehash_policyENS_17_Hashtable_traitsILb0ELb0ELb1EEELb1EEixERS2_
FNDA:0,_ZNSt8__detail9_Map_baseImSt4pairIKmSt6vectorIS1_IbdESaIS4_EEESaIS7_ENS_10_Select1stESt8equal_toImESt4hashImENS_18_Mod_range_hashingENS_20_Default_ranged_hashENS_20_Prime_rehash_policyENS_17_Hashtable_traitsILb0ELb0ELb1EEELb1EEixERS2_
FN:701,_ZNSt8__detail9_Map_baseImSt4pairIKmSt6vectorIS3_IS1_IbN11MetaPhysicL10DualNumberIdNS4_28SemiDynamicSparseNumberArrayIdmNS4_8NWrapperILm53EEEEELb1EEEESaISB_EESaISD_EEESaISG_ENS_10_Select1stESt8equal_toImESt4hashImENS_18_Mod_range_hashingENS_20_Default_ranged_hashENS_20_Prime_rehash_policyENS_17_Hashtable_traitsILb0ELb0ELb1EEELb1EEixERS2_
FNDA:0,_ZNSt8__detail9_Map_baseImSt4pairIKmSt6vectorIS3_IS1_IbN11MetaPhysicL10DualNumberIdNS4_28SemiDynamicSparseNumberArrayIdmNS4_8NWrapperILm53EEEEELb1EEEESaISB_EESaISD_EEESaISG_ENS_10_Select1stESt8equal_toImESt4hashImENS_18_Mod_range_hashingENS_20_Default_ranged_hashENS_20_Prime_rehash_policyENS_17_Hashtable_traitsILb0ELb0ELb1EEELb1EEixERS2_
FN:701,_ZNSt8__detail9_Map_baseImSt4pairIKmSt6vectorIS1_IbN11MetaPhysicL10DualNumberIdNS4_28SemiDynamicSparseNumberArrayIdmNS4_8NWrapperILm53EEEEELb1EEEESaISB_EEESaISE_ENS_10_Select1stESt8equal_toImESt4hashImENS_18_Mod_range_hashingENS_20_Default_ranged_hashENS_20_Prime_rehash_policyENS_17_Hashtable_traitsILb0ELb0ELb1EEELb1EEixERS2_
FNDA:0,_ZNSt8__detail9_Map_baseImSt4pairIKmSt6vectorIS1_IbN11MetaPhysicL10DualNumberIdNS4_28SemiDynamicSparseNumberArrayIdmNS4_8NWrapperILm53EEEEELb1EEEESaISB_EEESaISE_ENS_10_Select1stESt8equal_toImESt4hashImENS_18_Mod_range_hashingENS_20_Default_ranged_hashENS_20_Prime_rehash_policyENS_17_Hashtable_traitsILb0ELb0ELb1EEELb1EEixERS2_
FN:2029,_ZNSt8__detail16_Hashtable_allocISaINS_10_Hash_nodeISt4pairIKmSt6vectorIS4_IS2_IbdESaIS5_EESaIS7_EEELb0EEEEE16_M_allocate_nodeIJRKSt21piecewise_construct_tSt5tupleIJRS3_EESI_IJEEEEEPSB_DpOT_
FNDA:0,_ZNSt8__detail16_Hashtable_allocISaINS_10_Hash_nodeISt4pairIKmSt6vectorIS4_IS2_IbdESaIS5_EESaIS7_EEELb0EEEEE16_M_allocate_nodeIJRKSt21piecewise_construct_tSt5tupleIJRS3_EESI_IJEEEEEPSB_DpOT_
FN:2029,_ZNSt8__detail16_Hashtable_allocISaINS_10_Hash_nodeISt4pairIKmSt6vectorIS2_IbdESaIS5_EEELb0EEEEE16_M_allocate_nodeIJRKSt21piecewise_construct_tSt5tupleIJRS3_EESG_IJEEEEEPS9_DpOT_
FNDA:0,_ZNSt8__detail16_Hashtable_allocISaINS_10_Hash_nodeISt4pairIKmSt6vectorIS2_IbdESaIS5_EEELb0EEEEE16_M_allocate_nodeIJRKSt21piecewise_construct_tSt5tupleIJRS3_EESG_IJEEEEEPS9_DpOT_
FN:2029,_ZNSt8__detail16_Hashtable_allocISaINS_10_Hash_nodeISt4pairIKmSt6vectorIS4_IS2_IbN11MetaPhysicL10DualNumberIdNS5_28SemiDynamicSparseNumberArrayIdmNS5_8NWrapperILm53EEEEELb1EEEESaISC_EESaISE_EEELb0EEEEE16_M_allocate_nodeIJRKSt21piecewise_construct_tSt5tupleIJRS3_EESP_IJEEEEEPSI_DpOT_
FNDA:0,_ZNSt8__detail16_Hashtable_allocISaINS_10_Hash_nodeISt4pairIKmSt6vectorIS4_IS2_IbN11MetaPhysicL10DualNumberIdNS5_28SemiDynamicSparseNumberArrayIdmNS5_8NWrapperILm53EEEEELb1EEEESaISC_EESaISE_EEELb0EEEEE16_M_allocate_nodeIJRKSt21piecewise_construct_tSt5tupleIJRS3_EESP_IJEEEEEPSI_DpOT_
FN:2029,_ZNSt8__detail16_Hashtable_allocISaINS_10_Hash_nodeISt4pairIKmSt6vectorIS2_IbN11MetaPhysicL10DualNumberIdNS5_28SemiDynamicSparseNumberArrayIdmNS5_8NWrapperILm53EEEEELb1EEEESaISC_EEELb0EEEEE16_M_allocate_nodeIJRKSt21piecewise_construct_tSt5tupleIJRS3_EESN_IJEEEEEPSG_DpOT_
FNDA:0,_ZNSt8__detail16_Hashtable_allocISaINS_10_Hash_nodeISt4pairIKmSt6vectorIS2_IbN11MetaPhysicL10DualNumberIdNS5_28SemiDynamicSparseNumberArrayIdmNS5_8NWrapperILm53EEEEELb1EEEESaISC_EEELb0EEEEE16_M_allocate_nodeIJRKSt21piecewise_construct_tSt5tupleIJRS3_EESN_IJEEEEEPSG_DpOT_
FN:2051,_ZNSt8__detail16_Hashtable_allocISaINS_10_Hash_nodeISt4pairIKNSt7__cxx1112basic_stringIcSt11char_traitsIcESaIcEEESt10unique_ptrI10MooseArrayIN7libMesh11VectorValueIN11MetaPhysicL10DualNumberIdNSE_28SemiDynamicSparseNumberArrayIdmNSE_8NWrapperILm53EEEEELb1EEEEEESt14default_deleteISM_EEELb1EEEEE18_M_deallocate_nodeEPSR_
FNDA:0,_ZNSt8__detail16_Hashtable_allocISaINS_10_Hash_nodeISt4pairIKNSt7__cxx1112basic_stringIcSt11char_traitsIcESaIcEEESt10unique_ptrI10MooseArrayIN7libMesh11VectorValueIN11MetaPhysicL10DualNumberIdNSE_28SemiDynamicSparseNumberArrayIdmNSE_8NWrapperILm53EEEEELb1EEEEEESt14default_deleteISM_EEELb1EEEEE18_M_deallocate_nodeEPSR_
FN:2051,_ZNSt8__detail16_Hashtable_allocISaINS_10_Hash_nodeISt4pairIKNSt7__cxx1112basic_stringIcSt11char_traitsIcESaIcEEESt6vectorIjSaIjEEELb1EEEEE18_M_deallocate_nodeEPSE_
FNDA:0,_ZNSt8__detail16_Hashtable_allocISaINS_10_Hash_nodeISt4pairIKNSt7__cxx1112basic_stringIcSt11char_traitsIcESaIcEEESt6vectorIjSaIjEEELb1EEEEE18_M_deallocate_nodeEPSE_
FN:2051,_ZNSt8__detail16_Hashtable_allocISaINS_10_Hash_nodeISt4pairIKNSt7__cxx1112basic_stringIcSt11char_traitsIcESaIcEEESt10unique_ptrI10MooseArrayIN5Eigen6MatrixIdLin1ELi1ELi0ELin1ELi1EEEESt14default_deleteISF_EEELb1EEEEE18_M_deallocate_nodeEPSK_
FNDA:0,_ZNSt8__detail16_Hashtable_allocISaINS_10_Hash_nodeISt4pairIKNSt7__cxx1112basic_stringIcSt11char_traitsIcESaIcEEESt10unique_ptrI10MooseArrayIN5Eigen6MatrixIdLin1ELi1ELi0ELin1ELi1EEEESt14default_deleteISF_EEELb1EEEEE18_M_deallocate_nodeEPSK_
FN:2051,_ZNSt8__detail16_Hashtable_allocISaINS_10_Hash_nodeISt4pairIKNSt7__cxx1112basic_stringIcSt11char_traitsIcESaIcEEESt10unique_ptrI10MooseArrayIN7libMesh11VectorValueIdEEESt14default_deleteISF_EEELb1EEEEE18_M_deallocate_nodeEPSK_
FNDA:0,_ZNSt8__detail16_Hashtable_allocISaINS_10_Hash_nodeISt4pairIKNSt7__cxx1112basic_stringIcSt11char_traitsIcESaIcEEESt10unique_ptrI10MooseArrayIN7libMesh11VectorValueIdEEESt14default_deleteISF_EEELb1EEEEE18_M_deallocate_nodeEPSK_
FN:2051,_ZNSt8__detail16_Hashtable_allocISaINS_10_Hash_nodeISt4pairIKNSt7__cxx1112basic_stringIcSt11char_traitsIcESaIcEEESt6vectorISt10unique_ptrI10MooseArrayIdESt14default_deleteISD_EESaISG_EEELb1EEEEE18_M_deallocate_nodeEPSK_
FNDA:0,_ZNSt8__detail16_Hashtable_allocISaINS_10_Hash_nodeISt4pairIKNSt7__cxx1112basic_stringIcSt11char_traitsIcESaIcEEESt6vectorISt10unique_ptrI10MooseArrayIdESt14default_deleteISD_EESaISG_EEELb1EEEEE18_M_deallocate_nodeEPSK_
FN:2051,_ZNSt8__detail16_Hashtable_allocISaINS_10_Hash_nodeISt4pairIKNSt7__cxx1112basic_stringIcSt11char_traitsIcESaIcEEESt6vectorIP22MooseVariableFieldBaseSaISC_EEELb1EEEEE18_M_deallocate_nodeEPSG_
FNDA:0,_ZNSt8__detail16_Hashtable_allocISaINS_10_Hash_nodeISt4pairIKNSt7__cxx1112basic_stringIcSt11char_traitsIcESaIcEEESt6vectorIP22MooseVariableFieldBaseSaISC_EEELb1EEEEE18_M_deallocate_nodeEPSG_
FN:2051,_ZNSt8__detail16_Hashtable_allocISaINS_10_Hash_nodeISt4pairIKNSt7__cxx1112basic_stringIcSt11char_traitsIcESaIcEEES8_ELb1EEEEE18_M_deallocate_nodeEPSB_
FNDA:0,_ZNSt8__detail16_Hashtable_allocISaINS_10_Hash_nodeISt4pairIKNSt7__cxx1112basic_stringIcSt11char_traitsIcESaIcEEES8_ELb1EEEEE18_M_deallocate_nodeEPSB_
FN:2051,_ZNSt8__detail16_Hashtable_allocISaINS_10_Hash_nodeISt4pairIKNSt7__cxx1112basic_stringIcSt11char_traitsIcESaIcEEESt10unique_ptrI10MooseArrayIN11MetaPhysicL10DualNumberIdNSC_28SemiDynamicSparseNumberArrayIdmNSC_8NWrapperILm53EEEEELb1EEEESt14default_deleteISJ_EEELb1EEEEE18_M_deallocate_nodeEPSO_
FNDA:0,_ZNSt8__detail16_Hashtable_allocISaINS_10_Hash_nodeISt4pairIKNSt7__cxx1112basic_stringIcSt11char_traitsIcESaIcEEESt10unique_ptrI10MooseArrayIN11MetaPhysicL10DualNumberIdNSC_28SemiDynamicSparseNumberArrayIdmNSC_8NWrapperILm53EEEEELb1EEEESt14default_deleteISJ_EEELb1EEEEE18_M_deallocate_nodeEPSO_
FN:2051,_ZNSt8__detail16_Hashtable_allocISaINS_10_Hash_nodeISt4pairIKNSt7__cxx1112basic_stringIcSt11char_traitsIcESaIcEEESt10unique_ptrI10MooseArrayIdESt14default_deleteISC_EEELb1EEEEE18_M_deallocate_nodeEPSH_
FNDA:0,_ZNSt8__detail16_Hashtable_allocISaINS_10_Hash_nodeISt4pairIKNSt7__cxx1112basic_stringIcSt11char_traitsIcESaIcEEESt10unique_ptrI10MooseArrayIdESt14default_deleteISC_EEELb1EEEEE18_M_deallocate_nodeEPSH_
FN:2051,_ZNSt8__detail16_Hashtable_allocISaINS_10_Hash_nodeISt4pairIKNSt7__cxx1112basic_stringIcSt11char_traitsIcESaIcEEESt6vectorIP19MooseVariableScalarSaISC_EEELb1EEEEE18_M_deallocate_nodeEPSG_
FNDA:0,_ZNSt8__detail16_Hashtable_allocISaINS_10_Hash_nodeISt4pairIKNSt7__cxx1112basic_stringIcSt11char_traitsIcESaIcEEESt6vectorIP19MooseVariableScalarSaISC_EEELb1EEEEE18_M_deallocate_nodeEPSG_
FN:2069,_ZNSt8__detail16_Hashtable_allocISaINS_10_Hash_nodeISt4pairIKmSt6vectorIS4_IS2_IbN11MetaPhysicL10DualNumberIdNS5_28SemiDynamicSparseNumberArrayIdmNS5_8NWrapperILm53EEEEELb1EEEESaISC_EESaISE_EEELb0EEEEE19_M_deallocate_nodesEPSI_
FNDA:0,_ZNSt8__detail16_Hashtable_allocISaINS_10_Hash_nodeISt4pairIKmSt6vectorIS4_IS2_IbN11MetaPhysicL10DualNumberIdNS5_28SemiDynamicSparseNumberArrayIdmNS5_8NWrapperILm53EEEEELb1EEEESaISC_EESaISE_EEELb0EEEEE19_M_deallocate_nodesEPSI_
FN:2069,_ZNSt8__detail16_Hashtable_allocISaINS_10_Hash_nodeISt4pairIKmSt6vectorIS2_IbdESaIS5_EEELb0EEEEE19_M_deallocate_nodesEPS9_
FNDA:0,_ZNSt8__detail16_Hashtable_allocISaINS_10_Hash_nodeISt4pairIKmSt6vectorIS2_IbdESaIS5_EEELb0EEEEE19_M_deallocate_nodesEPS9_
FN:2069,_ZNSt8__detail16_Hashtable_allocISaINS_10_Hash_nodeISt4pairIKmSt6vectorIS4_IS2_IbdESaIS5_EESaIS7_EEELb0EEEEE19_M_deallocate_nodesEPSB_
FNDA:0,_ZNSt8__detail16_Hashtable_allocISaINS_10_Hash_nodeISt4pairIKmSt6vectorIS4_IS2_IbdESaIS5_EESaIS7_EEELb0EEEEE19_M_deallocate_nodesEPSB_
FN:2069,_ZNSt8__detail16_Hashtable_allocISaINS_10_Hash_nodeISt4pairIKmSt6vectorIS2_IbN11MetaPhysicL10DualNumberIdNS5_28SemiDynamicSparseNumberArrayIdmNS5_8NWrapperILm53EEEEELb1EEEESaISC_EEELb0EEEEE19_M_deallocate_nodesEPSG_
FNDA:0,_ZNSt8__detail16_Hashtable_allocISaINS_10_Hash_nodeISt4pairIKmSt6vectorIS2_IbN11MetaPhysicL10DualNumberIdNS5_28SemiDynamicSparseNumberArrayIdmNS5_8NWrapperILm53EEEEELb1EEEESaISC_EEELb0EEEEE19_M_deallocate_nodesEPSG_
FN:2081,_ZNSt8__detail16_Hashtable_allocISaINS_10_Hash_nodeISt4pairIKmSt6vectorIS4_IS2_IbdESaIS5_EESaIS7_EEELb0EEEEE19_M_allocate_bucketsEm
FNDA:0,_ZNSt8__detail16_Hashtable_allocISaINS_10_Hash_nodeISt4pairIKmSt6vectorIS4_IS2_IbdESaIS5_EESaIS7_EEELb0EEEEE19_M_allocate_bucketsEm
FN:2081,_ZNSt8__detail16_Hashtable_allocISaINS_10_Hash_nodeISt4pairIKmSt6vectorIS2_IbN11MetaPhysicL10DualNumberIdNS5_28SemiDynamicSparseNumberArrayIdmNS5_8NWrapperILm53EEEEELb1EEEESaISC_EEELb0EEEEE19_M_allocate_bucketsEm
FNDA:0,_ZNSt8__detail16_Hashtable_allocISaINS_10_Hash_nodeISt4pairIKmSt6vectorIS2_IbN11MetaPhysicL10DualNumberIdNS5_28SemiDynamicSparseNumberArrayIdmNS5_8NWrapperILm53EEEEELb1EEEESaISC_EEELb0EEEEE19_M_allocate_bucketsEm
FN:2081,_ZNSt8__detail16_Hashtable_allocISaINS_10_Hash_nodeISt4pairIKmSt6vectorIS4_IS2_IbN11MetaPhysicL10DualNumberIdNS5_28SemiDynamicSparseNumberArrayIdmNS5_8NWrapperILm53EEEEELb1EEEESaISC_EESaISE_EEELb0EEEEE19_M_allocate_bucketsEm
FNDA:0,_ZNSt8__detail16_Hashtable_allocISaINS_10_Hash_nodeISt4pairIKmSt6vectorIS4_IS2_IbN11MetaPhysicL10DualNumberIdNS5_28SemiDynamicSparseNumberArrayIdmNS5_8NWrapperILm53EEEEELb1EEEESaISC_EESaISE_EEELb0EEEEE19_M_allocate_bucketsEm
FN:2081,_ZNSt8__detail16_Hashtable_allocISaINS_10_Hash_nodeISt4pairIKmSt6vectorIS2_IbdESaIS5_EEELb0EEEEE19_M_allocate_bucketsEm
FNDA:0,_ZNSt8__detail16_Hashtable_allocISaINS_10_Hash_nodeISt4pairIKmSt6vectorIS2_IbdESaIS5_EEELb0EEEEE19_M_allocate_bucketsEm
FNF:26
FNH:0
DA:218,0
DA:270,0
DA:283,0
DA:349,0
DA:355,0
DA:433,0
DA:477,0
DA:485,0
DA:701,0
DA:709,0
DA:710,0
DA:712,0
DA:715,0
DA:716,0
DA:719,0
DA:720,0
DA:721,0
DA:701,0
DA:709,0
DA:710,0
DA:712,0
DA:715,0
DA:716,0
DA:719,0
DA:720,0
DA:721,0
DA:701,0
DA:709,0
DA:710,0
DA:712,0
DA:715,0
DA:716,0
DA:719,0
DA:720,0
DA:721,0
DA:701,0
DA:709,0
DA:710,0
DA:712,0
DA:715,0
DA:716,0
DA:719,0
DA:720,0
DA:721,0
DA:1294,0
DA:1307,0
DA:1804,0
DA:2029,0
DA:2040,0
DA:2029,0
DA:2040,0
DA:2029,0
DA:2040,0
DA:2029,0
DA:2040,0
DA:2051,0
DA:2055,0
DA:2051,0
DA:2055,0
DA:2051,0
DA:2055,0
DA:2051,0
DA:2055,0
DA:2051,0
DA:2055,0
DA:2051,0
DA:2055,0
DA:2051,0
DA:2055,0
DA:2051,0
DA:2055,0
DA:2051,0
DA:2055,0
DA:2051,0
DA:2055,0
DA:2055,0
DA:2063,0
DA:2069,0
DA:2071,0
DA:2077,0
DA:2069,0
DA:2071,0
DA:2077,0
DA:2069,0
DA:2071,0
DA:2077,0
DA:2069,0
DA:2071,0
DA:2077,0
DA:2071,0
DA:2075,0
DA:2081,0
DA:2085,0
DA:2087,0
DA:2088,0
DA:2081,0
DA:2085,0
DA:2087,0
DA:2088,0
DA:2081,0
DA:2085,0
DA:2087,0
DA:2088,0
DA:2081,0
DA:2085,0
DA:2087,0
DA:2088,0
DA:2100,0
LF:108
LH:0
end_of_record
SF:/home/runner/work/raccoon/raccoon/src/materials/small_deformation_models/SmallDeformationIsotropicElasticity.C
FN:11,_ZN35SmallDeformationIsotropicElasticity11validParamsEv
FNDA:211,_ZN35SmallDeformationIsotropicElasticity11validParamsEv
FN:31,_ZN35SmallDeformationIsotropicElasticityC2ERK15InputParameters
FNDA:42,_ZN35SmallDeformationIsotropicElasticityC2ERK15InputParameters
FN:56,_ZN35SmallDeformationIsotropicElasticity13computeStressERK18RankTwoTensorTemplIN11MetaPhysicL10DualNumberIdNS1_28SemiDynamicSparseNumberArrayIdmNS1_8NWrapperILm53EEEEELb1EEEE
FNDA:3572730,_ZN35SmallDeformationIsotropicElasticity13computeStressERK18RankTwoTensorTemplIN11MetaPhysicL10DualNumberIdNS1_28SemiDynamicSparseNumberArrayIdmNS1_8NWrapperILm53EEEEELb1EEEE
FN:73,_ZN35SmallDeformationIsotropicElasticity28computeStressNoDecompositionERK18RankTwoTensorTemplIN11MetaPhysicL10DualNumberIdNS1_28SemiDynamicSparseNumberArrayIdmNS1_8NWrapperILm53EEEEELb1EEEE
FNDA:1292210,_ZN35SmallDeformationIsotropicElasticity28computeStressNoDecompositionERK18RankTwoTensorTemplIN11MetaPhysicL10DualNumberIdNS1_28SemiDynamicSparseNumberArrayIdmNS1_8NWrapperILm53EEEEELb1EEEE
FN:87,_ZN35SmallDeformationIsotropicElasticity34computeStressSpectralDecompositionERK18RankTwoTensorTemplIN11MetaPhysicL10DualNumberIdNS1_28SemiDynamicSparseNumberArrayIdmNS1_8NWrapperILm53EEEEELb1EEEE
FNDA:1828660,_ZN35SmallDeformationIsotropicElasticity34computeStressSpectralDecompositionERK18RankTwoTensorTemplIN11MetaPhysicL10DualNumberIdNS1_28SemiDynamicSparseNumberArrayIdmNS1_8NWrapperILm53EEEEELb1EEEE
FN:117,_ZN35SmallDeformationIsotropicElasticity32computeStressVolDevDecompositionERK18RankTwoTensorTemplIN11MetaPhysicL10DualNumberIdNS1_28SemiDynamicSparseNumberArrayIdmNS1_8NWrapperILm53EEEEELb1EEEE
FNDA:451864,_ZN35SmallDeformationIsotropicElasticity32computeStressVolDevDecompositionERK18RankTwoTensorTemplIN11MetaPhysicL10DualNumberIdNS1_28SemiDynamicSparseNumberArrayIdmNS1_8NWrapperILm53EEEEELb1EEEE
FNF:6
FNH:6
DA:11,211
DA:13,211
DA:14,211
DA:16,422
DA:17,422
DA:19,422
DA:20,422
DA:24,422
DA:25,422
DA:26,422
DA:28,211
DA:31,42
DA:32,42
DA:35,84
DA:36,84
DA:38,84
DA:42,42
DA:43,42
DA:44,126
DA:48,42
DA:49,126
DA:51,546
DA:53,42
DA:56,3572730
DA:58,3572730
DA:60,3572730
DA:61,1292210
DA:62,2280520
DA:63,1828660
DA:64,451864
DA:65,451864
DA:67,0
DA:69,3572730
DA:73,1292210
DA:75,1292210
DA:76,5168840
DA:77,1292210
DA:79,2584420
DA:80,2584420
DA:81,2584420
DA:83,1292210
DA:87,1828660
DA:90,3657320
DA:91,1828660
DA:92,1828660
DA:93,1828660
DA:96,1828660
DA:99,7314640
DA:100,5485980
DA:101,1828660
DA:102,1828660
DA:106,3657320
DA:107,3657320
DA:108,3657320
DA:109,1828660
DA:110,3657320
DA:111,3657320
DA:113,1828660
DA:117,451864
DA:120,451864
DA:123,451864
DA:124,451864
DA:126,451864
DA:129,1807460
DA:130,903728
DA:131,451864
DA:132,451864
DA:136,903728
DA:137,903728
DA:138,451864
DA:139,903728
DA:140,903728
DA:142,451864
LF:73
LH:72
end_of_record
SF:/usr/share/miniconda/envs/moose/x86_64-conda-linux-gnu/include/c++/10.3.0/ostream
DA:113,0
DA:175,0
DA:246,0
DA:518,0
LF:4
LH:0
end_of_record
SF:/home/runner/work/raccoon/raccoon/moose/framework/build/header_symlinks/MooseError.h
FN:154,_ZN5moose8internal14mooseStreamAllINSt7__cxx1112basic_stringIcSt11char_traitsIcESaIcEEEJRA2_KcEEEvRNS2_19basic_ostringstreamIcS5_S6_EEOT_DpOT0_
FNDA:0,_ZN5moose8internal14mooseStreamAllINSt7__cxx1112basic_stringIcSt11char_traitsIcESaIcEEEJRA2_KcEEEvRNS2_19basic_ostringstreamIcS5_S6_EEOT_DpOT0_
FN:154,_ZN5moose8internal14mooseStreamAllINSt7__cxx1112basic_stringIcSt11char_traitsIcESaIcEEEJRA105_KcEEEvRNS2_19basic_ostringstreamIcS5_S6_EEOT_DpOT0_
FNDA:0,_ZN5moose8internal14mooseStreamAllINSt7__cxx1112basic_stringIcSt11char_traitsIcESaIcEEEJRA105_KcEEEvRNS2_19basic_ostringstreamIcS5_S6_EEOT_DpOT0_
FN:154,_ZN5moose8internal14mooseStreamAllINSt7__cxx1112basic_stringIcSt11char_traitsIcESaIcEEEJRA117_KcEEEvRNS2_19basic_ostringstreamIcS5_S6_EEOT_DpOT0_
FNDA:0,_ZN5moose8internal14mooseStreamAllINSt7__cxx1112basic_stringIcSt11char_traitsIcESaIcEEEJRA117_KcEEEvRNS2_19basic_ostringstreamIcS5_S6_EEOT_DpOT0_
FN:154,_ZN5moose8internal14mooseStreamAllINSt7__cxx1112basic_stringIcSt11char_traitsIcESaIcEEEJRA60_KcEEEvRNS2_19basic_ostringstreamIcS5_S6_EEOT_DpOT0_
FNDA:0,_ZN5moose8internal14mooseStreamAllINSt7__cxx1112basic_stringIcSt11char_traitsIcESaIcEEEJRA60_KcEEEvRNS2_19basic_ostringstreamIcS5_S6_EEOT_DpOT0_
FN:154,_ZN5moose8internal14mooseStreamAllIRKNSt7__cxx1112basic_stringIcSt11char_traitsIcESaIcEEEJRA29_KcEEEvRNS2_19basic_ostringstreamIcS5_S6_EEOT_DpOT0_
FNDA:0,_ZN5moose8internal14mooseStreamAllIRKNSt7__cxx1112basic_stringIcSt11char_traitsIcESaIcEEEJRA29_KcEEEvRNS2_19basic_ostringstreamIcS5_S6_EEOT_DpOT0_
FN:154,_ZN5moose8internal14mooseStreamAllINSt7__cxx1112basic_stringIcSt11char_traitsIcESaIcEEEJEEEvRNS2_19basic_ostringstreamIcS5_S6_EEOT_DpOT0_
FNDA:0,_ZN5moose8internal14mooseStreamAllINSt7__cxx1112basic_stringIcSt11char_traitsIcESaIcEEEJEEEvRNS2_19basic_ostringstreamIcS5_S6_EEOT_DpOT0_
FN:154,_ZN5moose8internal14mooseStreamAllIPKcJEEEvRNSt7__cxx1119basic_ostringstreamIcSt11char_traitsIcESaIcEEEOT_DpOT0_
FNDA:0,_ZN5moose8internal14mooseStreamAllIPKcJEEEvRNSt7__cxx1119basic_ostringstreamIcSt11char_traitsIcESaIcEEEOT_DpOT0_
FN:154,_ZN5moose8internal14mooseStreamAllIRKNSt7__cxx1112basic_stringIcSt11char_traitsIcESaIcEEEJEEEvRNS2_19basic_ostringstreamIcS5_S6_EEOT_DpOT0_
FNDA:0,_ZN5moose8internal14mooseStreamAllIRKNSt7__cxx1112basic_stringIcSt11char_traitsIcESaIcEEEJEEEvRNS2_19basic_ostringstreamIcS5_S6_EEOT_DpOT0_
FN:154,_ZN5moose8internal14mooseStreamAllIRKNSt7__cxx1112basic_stringIcSt11char_traitsIcESaIcEEEJRA14_KcS7_RA45_SA_S7_RA2_SA_EEEvRNS2_19basic_ostringstreamIcS5_S6_EEOT_DpOT0_
FNDA:0,_ZN5moose8internal14mooseStreamAllIRKNSt7__cxx1112basic_stringIcSt11char_traitsIcESaIcEEEJRA14_KcS7_RA45_SA_S7_RA2_SA_EEEvRNS2_19basic_ostringstreamIcS5_S6_EEOT_DpOT0_
FN:154,_ZN5moose8internal14mooseStreamAllIRKNSt7__cxx1112basic_stringIcSt11char_traitsIcESaIcEEEJRA40_KcEEEvRNS2_19basic_ostringstreamIcS5_S6_EEOT_DpOT0_
FNDA:0,_ZN5moose8internal14mooseStreamAllIRKNSt7__cxx1112basic_stringIcSt11char_traitsIcESaIcEEEJRA40_KcEEEvRNS2_19basic_ostringstreamIcS5_S6_EEOT_DpOT0_
FN:154,_ZN5moose8internal14mooseStreamAllIRKNSt7__cxx1112basic_stringIcSt11char_traitsIcESaIcEEEJRA17_KcEEEvRNS2_19basic_ostringstreamIcS5_S6_EEOT_DpOT0_
FNDA:0,_ZN5moose8internal14mooseStreamAllIRKNSt7__cxx1112basic_stringIcSt11char_traitsIcESaIcEEEJRA17_KcEEEvRNS2_19basic_ostringstreamIcS5_S6_EEOT_DpOT0_
FN:154,_ZN5moose8internal14mooseStreamAllINSt7__cxx1112basic_stringIcSt11char_traitsIcESaIcEEEJRA45_KcS7_RA2_S8_EEEvRNS2_19basic_ostringstreamIcS5_S6_EEOT_DpOT0_
FNDA:0,_ZN5moose8internal14mooseStreamAllINSt7__cxx1112basic_stringIcSt11char_traitsIcESaIcEEEJRA45_KcS7_RA2_S8_EEEvRNS2_19basic_ostringstreamIcS5_S6_EEOT_DpOT0_
FN:238,_Z10mooseErrorIJRA77_KcRKNSt7__cxx1112basic_stringIcSt11char_traitsIcESaIcEEERA17_S0_EEvDpOT_
FNDA:0,_Z10mooseErrorIJRA77_KcRKNSt7__cxx1112basic_stringIcSt11char_traitsIcESaIcEEERA17_S0_EEvDpOT_
FN:238,_Z10mooseErrorIJNSt7__cxx1112basic_stringIcSt11char_traitsIcESaIcEEEEEvDpOT_
FNDA:0,_Z10mooseErrorIJNSt7__cxx1112basic_stringIcSt11char_traitsIcESaIcEEEEEvDpOT_
FN:238,_Z10mooseErrorIJRA16_KcRKNSt7__cxx1112basic_stringIcSt11char_traitsIcESaIcEEERA40_S0_EEvDpOT_
FNDA:0,_Z10mooseErrorIJRA16_KcRKNSt7__cxx1112basic_stringIcSt11char_traitsIcESaIcEEERA40_S0_EEvDpOT_
FN:238,_Z10mooseErrorIJRA30_KcRKNSt7__cxx1112basic_stringIcSt11char_traitsIcESaIcEEERA14_S0_S8_RA45_S0_S8_RA2_S0_EEvDpOT_
FNDA:0,_Z10mooseErrorIJRA30_KcRKNSt7__cxx1112basic_stringIcSt11char_traitsIcESaIcEEERA14_S0_S8_RA45_S0_S8_RA2_S0_EEvDpOT_
FN:238,_Z10mooseErrorIJRA43_KcRKNSt7__cxx1112basic_stringIcSt11char_traitsIcESaIcEEEEEvDpOT_
FNDA:0,_Z10mooseErrorIJRA43_KcRKNSt7__cxx1112basic_stringIcSt11char_traitsIcESaIcEEEEEvDpOT_
FN:238,_Z10mooseErrorIJRA16_KcEEvDpOT_
FNDA:0,_Z10mooseErrorIJRA16_KcEEvDpOT_
FN:238,_Z10mooseErrorIJRA103_KcEEvDpOT_
FNDA:0,_Z10mooseErrorIJRA103_KcEEvDpOT_
FN:238,_Z10mooseErrorIJRA8_KcRKNSt7__cxx1112basic_stringIcSt11char_traitsIcESaIcEEERA29_S0_EEvDpOT_
FNDA:0,_Z10mooseErrorIJRA8_KcRKNSt7__cxx1112basic_stringIcSt11char_traitsIcESaIcEEERA29_S0_EEvDpOT_
FNF:20
FNH:0
DA:154,0
DA:156,0
DA:157,0
DA:158,0
DA:154,0
DA:156,0
DA:157,0
DA:158,0
DA:154,0
DA:156,0
DA:157,0
DA:158,0
DA:154,0
DA:156,0
DA:157,0
DA:158,0
DA:154,0
DA:156,0
DA:157,0
DA:158,0
DA:154,0
DA:156,0
DA:157,0
DA:158,0
DA:154,0
DA:156,0
DA:157,0
DA:158,0
DA:154,0
DA:156,0
DA:157,0
DA:158,0
DA:154,0
DA:156,0
DA:157,0
DA:158,0
DA:154,0
DA:156,0
DA:157,0
DA:158,0
DA:154,0
DA:156,0
DA:157,0
DA:158,0
DA:154,0
DA:156,0
DA:157,0
DA:158,0
DA:156,0
DA:157,0
DA:158,0
DA:238,0
DA:240,0
DA:242,0
DA:238,0
DA:240,0
DA:241,0
DA:242,0
DA:238,0
DA:240,0
DA:242,0
DA:238,0
DA:240,0
DA:242,0
DA:238,0
DA:240,0
DA:242,0
DA:238,0
DA:240,0
DA:242,0
DA:238,0
DA:240,0
DA:242,0
DA:238,0
DA:240,0
DA:242,0
LF:76
LH:0
end_of_record
SF:/usr/share/miniconda/envs/moose/libmesh/include/Eigen/src/Core/PlainObjectBase.h
DA:143,0
LF:1
LH:0
end_of_record
SF:/home/runner/work/raccoon/raccoon/moose/framework/build/header_symlinks/UserObjectInterface.h
FN:93,_ZNK19UserObjectInterface29addUserObjectDependencyHelperERK10UserObject
FNDA:0,_ZNK19UserObjectInterface29addUserObjectDependencyHelperERK10UserObject
FNF:1
FNH:0
DA:93,0
LF:1
LH:0
end_of_record
SF:/usr/share/miniconda/envs/moose/libmesh/include/libmesh/parameters.h
FN:132,_ZN7libMesh10Parameters14set_attributesERKNSt7__cxx1112basic_stringIcSt11char_traitsIcESaIcEEEb
FNDA:0,_ZN7libMesh10Parameters14set_attributesERKNSt7__cxx1112basic_stringIcSt11char_traitsIcESaIcEEEb
FN:285,_ZNK7libMesh10Parameters9ParameterIP13FEProblemBaseE4typeB5cxx11Ev
FNDA:0,_ZNK7libMesh10Parameters9ParameterIP13FEProblemBaseE4typeB5cxx11Ev
FN:285,_ZNK7libMesh10Parameters9ParameterI9MooseEnumE4typeB5cxx11Ev
FNDA:0,_ZNK7libMesh10Parameters9ParameterI9MooseEnumE4typeB5cxx11Ev
FN:285,_ZNK7libMesh10Parameters9ParameterI12MaterialNameE4typeB5cxx11Ev
FNDA:0,_ZNK7libMesh10Parameters9ParameterI12MaterialNameE4typeB5cxx11Ev
FN:285,_ZNK7libMesh10Parameters9ParameterI20MaterialPropertyNameE4typeB5cxx11Ev
FNDA:0,_ZNK7libMesh10Parameters9ParameterI20MaterialPropertyNameE4typeB5cxx11Ev
FN:285,_ZNK7libMesh10Parameters9ParameterIbE4typeB5cxx11Ev
FNDA:0,_ZNK7libMesh10Parameters9ParameterIbE4typeB5cxx11Ev
FN:293,_ZNK7libMesh10Parameters9ParameterIP13FEProblemBaseE5printERSo
FNDA:0,_ZNK7libMesh10Parameters9ParameterIP13FEProblemBaseE5printERSo
FN:293,_ZNK7libMesh10Parameters9ParameterI9MooseEnumE5printERSo
FNDA:0,_ZNK7libMesh10Parameters9ParameterI9MooseEnumE5printERSo
FN:293,_ZNK7libMesh10Parameters9ParameterI20MaterialPropertyNameE5printERSo
FNDA:0,_ZNK7libMesh10Parameters9ParameterI20MaterialPropertyNameE5printERSo
FN:293,_ZNK7libMesh10Parameters9ParameterIbE5printERSo
FNDA:0,_ZNK7libMesh10Parameters9ParameterIbE5printERSo
FN:293,_ZNK7libMesh10Parameters9ParameterI12MaterialNameE5printERSo
FNDA:0,_ZNK7libMesh10Parameters9ParameterI12MaterialNameE5printERSo
FN:301,_ZNK7libMesh10Parameters9ParameterIP13FEProblemBaseE5cloneEv
FNDA:0,_ZNK7libMesh10Parameters9ParameterIP13FEProblemBaseE5cloneEv
FN:301,_ZNK7libMesh10Parameters9ParameterI20MaterialPropertyNameE5cloneEv
FNDA:0,_ZNK7libMesh10Parameters9ParameterI20MaterialPropertyNameE5cloneEv
FN:301,_ZNK7libMesh10Parameters9ParameterI12MaterialNameE5cloneEv
FNDA:0,_ZNK7libMesh10Parameters9ParameterI12MaterialNameE5cloneEv
FN:301,_ZNK7libMesh10Parameters9ParameterIbE5cloneEv
FNDA:0,_ZNK7libMesh10Parameters9ParameterIbE5cloneEv
FN:301,_ZNK7libMesh10Parameters9ParameterI9MooseEnumE5cloneEv
FNDA:0,_ZNK7libMesh10Parameters9ParameterI9MooseEnumE5cloneEv
FN:316,_ZN7libMesh10Parameters5clearEv
FNDA:0,_ZN7libMesh10Parameters5clearEv
FN:332,_ZN7libMesh10ParametersaSERKS0_
FNDA:0,_ZN7libMesh10ParametersaSERKS0_
FN:341,_ZN7libMesh10ParameterspLERKS0_
FNDA:0,_ZN7libMesh10ParameterspLERKS0_
FN:362,_ZN7libMesh10ParametersD2Ev
FNDA:0,_ZN7libMesh10ParametersD2Ev
FN:362,_ZN7libMesh10ParametersD0Ev
FNDA:0,_ZN7libMesh10ParametersD0Ev
FN:370,_ZNK7libMesh10Parameters5printERSo
FNDA:0,_ZNK7libMesh10Parameters5printERSo
FN:405,_ZNK7libMesh10Parameters14have_parameterI12MaterialNameEEbRKNSt7__cxx1112basic_stringIcSt11char_traitsIcESaIcEEE
FNDA:0,_ZNK7libMesh10Parameters14have_parameterI12MaterialNameEEbRKNSt7__cxx1112basic_stringIcSt11char_traitsIcESaIcEEE
FN:405,_ZNK7libMesh10Parameters14have_parameterIbEEbRKNSt7__cxx1112basic_stringIcSt11char_traitsIcESaIcEEE
FNDA:0,_ZNK7libMesh10Parameters14have_parameterIbEEbRKNSt7__cxx1112basic_stringIcSt11char_traitsIcESaIcEEE
FN:405,_ZNK7libMesh10Parameters14have_parameterI20MaterialPropertyNameEEbRKNSt7__cxx1112basic_stringIcSt11char_traitsIcESaIcEEE
FNDA:0,_ZNK7libMesh10Parameters14have_parameterI20MaterialPropertyNameEEbRKNSt7__cxx1112basic_stringIcSt11char_traitsIcESaIcEEE
FN:405,_ZNK7libMesh10Parameters14have_parameterI9MooseEnumEEbRKNSt7__cxx1112basic_stringIcSt11char_traitsIcESaIcEEE
FNDA:0,_ZNK7libMesh10Parameters14have_parameterI9MooseEnumEEbRKNSt7__cxx1112basic_stringIcSt11char_traitsIcESaIcEEE
FN:424,_ZNK7libMesh10Parameters3getI12MaterialNameEERKT_RKNSt7__cxx1112basic_stringIcSt11char_traitsIcESaIcEEE
FNDA:0,_ZNK7libMesh10Parameters3getI12MaterialNameEERKT_RKNSt7__cxx1112basic_stringIcSt11char_traitsIcESaIcEEE
FN:424,_ZNK7libMesh10Parameters3getI20MaterialPropertyNameEERKT_RKNSt7__cxx1112basic_stringIcSt11char_traitsIcESaIcEEE
FNDA:0,_ZNK7libMesh10Parameters3getI20MaterialPropertyNameEERKT_RKNSt7__cxx1112basic_stringIcSt11char_traitsIcESaIcEEE
FN:424,_ZNK7libMesh10Parameters3getIbEERKT_RKNSt7__cxx1112basic_stringIcSt11char_traitsIcESaIcEEE
FNDA:0,_ZNK7libMesh10Parameters3getIbEERKT_RKNSt7__cxx1112basic_stringIcSt11char_traitsIcESaIcEEE
FN:452,_ZN7libMesh10Parameters6insertI12MaterialNameEEvRKNSt7__cxx1112basic_stringIcSt11char_traitsIcESaIcEEE
FNDA:0,_ZN7libMesh10Parameters6insertI12MaterialNameEEvRKNSt7__cxx1112basic_stringIcSt11char_traitsIcESaIcEEE
FN:452,_ZN7libMesh10Parameters6insertI20MaterialPropertyNameEEvRKNSt7__cxx1112basic_stringIcSt11char_traitsIcESaIcEEE
FNDA:0,_ZN7libMesh10Parameters6insertI20MaterialPropertyNameEEvRKNSt7__cxx1112basic_stringIcSt11char_traitsIcESaIcEEE
FNF:31
FNH:0
DA:132,0
DA:200,0
DA:207,0
DA:212,0
DA:285,0
DA:287,0
DA:285,0
DA:287,0
DA:285,0
DA:287,0
DA:285,0
DA:287,0
DA:285,0
DA:287,0
DA:293,0
DA:297,0
DA:293,0
DA:297,0
DA:293,0
DA:297,0
DA:293,0
DA:297,0
DA:293,0
DA:297,0
DA:301,0
DA:303,0
DA:307,0
DA:309,0
DA:301,0
DA:303,0
DA:309,0
DA:301,0
DA:303,0
DA:307,0
DA:309,0
DA:301,0
DA:303,0
DA:309,0
DA:301,0
DA:303,0
DA:307,0
DA:309,0
DA:316,0
DA:318,0
DA:322,0
DA:323,0
DA:325,0
DA:327,0
DA:332,0
DA:334,0
DA:335,0
DA:337,0
DA:341,0
DA:343,0
DA:345,0
DA:346,0
DA:347,0
DA:350,0
DA:362,0
DA:365,0
DA:362,0
DA:364,0
DA:365,0
DA:370,0
DA:375,0
DA:376,0
DA:380,0
DA:382,0
DA:383,0
DA:387,0
DA:397,0
DA:398,0
DA:405,0
DA:409,0
DA:411,0
DA:415,0
DA:405,0
DA:409,0
DA:411,0
DA:415,0
DA:405,0
DA:409,0
DA:411,0
DA:415,0
DA:405,0
DA:409,0
DA:411,0
DA:415,0
DA:424,0
DA:426,0
DA:428,0
DA:430,0
DA:432,0
DA:436,0
DA:439,0
DA:447,0
DA:424,0
DA:426,0
DA:428,0
DA:430,0
DA:432,0
DA:436,0
DA:439,0
DA:447,0
DA:424,0
DA:426,0
DA:428,0
DA:430,0
DA:432,0
DA:436,0
DA:439,0
DA:447,0
DA:452,0
DA:454,0
DA:455,0
DA:457,0
DA:458,0
DA:452,0
DA:454,0
DA:455,0
DA:457,0
DA:458,0
DA:535,0
LF:123
LH:0
end_of_record
SF:/usr/share/miniconda/envs/moose/x86_64-conda-linux-gnu/include/c++/10.3.0/sstream
DA:678,0
DA:832,0
LF:2
LH:0
end_of_record
SF:/home/runner/work/raccoon/raccoon/src/materials/small_deformation_models/ComputeSmallDeformationStress.C
FN:12,_ZN29ComputeSmallDeformationStress11validParamsEv
FNDA:211,_ZN29ComputeSmallDeformationStress11validParamsEv
FN:27,_ZN29ComputeSmallDeformationStressC2ERK15InputParameters
FNDA:42,_ZN29ComputeSmallDeformationStressC2ERK15InputParameters
FN:38,_ZN29ComputeSmallDeformationStress12initialSetupEv
FNDA:42,_ZN29ComputeSmallDeformationStress12initialSetupEv
FN:56,_ZN29ComputeSmallDeformationStress24initQpStatefulPropertiesEv
FNDA:11508,_ZN29ComputeSmallDeformationStress24initQpStatefulPropertiesEv
FN:62,_ZN29ComputeSmallDeformationStress19computeQpPropertiesEv
FNDA:3292320,_ZN29ComputeSmallDeformationStress19computeQpPropertiesEv
FNF:5
FNH:5
DA:12,211
DA:14,211
DA:15,211
DA:16,211
DA:19,422
DA:21,422
DA:23,211
DA:24,211
DA:27,42
DA:30,84
DA:31,126
DA:33,84
DA:34,0
DA:35,42
DA:38,42
DA:40,42
DA:41,42
DA:42,42
DA:43,0
DA:44,0
DA:47,42
DA:48,42
DA:49,48
DA:51,42
DA:52,6
DA:53,42
DA:56,11508
DA:58,11508
DA:59,11508
DA:62,3292320
DA:64,3292320
DA:65,3292320
DA:66,3292320
LF:33
LH:30
end_of_record
SF:/usr/share/miniconda/envs/moose/libmesh/include/libmesh/reference_counter.h
DA:152,0
LF:1
LH:0
end_of_record
SF:/home/runner/work/raccoon/raccoon/moose/modules/tensor_mechanics/build/header_symlinks/ADSingleVariableReturnMappingSolution.h
FN:29,_ZN37ADSingleVariableReturnMappingSolutionD0Ev
FNDA:0,_ZN37ADSingleVariableReturnMappingSolutionD0Ev
FN:29,_ZN37ADSingleVariableReturnMappingSolutionD2Ev
FNDA:6,_ZN37ADSingleVariableReturnMappingSolutionD2Ev
FN:63,_ZN37ADSingleVariableReturnMappingSolution12initialGuessERKN11MetaPhysicL10DualNumberIdNS0_28SemiDynamicSparseNumberArrayIdmNS0_8NWrapperILm53EEEEELb1EEE
FNDA:0,_ZN37ADSingleVariableReturnMappingSolution12initialGuessERKN11MetaPhysicL10DualNumberIdNS0_28SemiDynamicSparseNumberArrayIdmNS0_8NWrapperILm53EEEEELb1EEE
FN:89,_ZN37ADSingleVariableReturnMappingSolution28computeResidualAndDerivativeERKN11MetaPhysicL10DualNumberIdNS0_28SemiDynamicSparseNumberArrayIdmNS0_8NWrapperILm53EEEEELb1EEERKNS1_IS6_S6_Lb0EEE
FNDA:0,_ZN37ADSingleVariableReturnMappingSolution28computeResidualAndDerivativeERKN11MetaPhysicL10DualNumberIdNS0_28SemiDynamicSparseNumberArrayIdmNS0_8NWrapperILm53EEEEELb1EEERKNS1_IS6_S6_Lb0EEE
FN:110,_ZN37ADSingleVariableReturnMappingSolution17iterationFinalizeEN11MetaPhysicL10DualNumberIdNS0_28SemiDynamicSparseNumberArrayIdmNS0_8NWrapperILm53EEEEELb1EEE
FNDA:0,_ZN37ADSingleVariableReturnMappingSolution17iterationFinalizeEN11MetaPhysicL10DualNumberIdNS0_28SemiDynamicSparseNumberArrayIdmNS0_8NWrapperILm53EEEEELb1EEE
FNF:5
FNH:1
DA:29,0
DA:29,6
DA:63,0
DA:89,0
DA:92,0
DA:110,0
LF:6
LH:1
end_of_record
SF:/usr/share/miniconda/envs/moose/x86_64-conda-linux-gnu/include/c++/10.3.0/ext/aligned_buffer.h
DA:65,0
DA:69,0
DA:104,180
LF:3
LH:1
end_of_record
SF:/home/runner/work/raccoon/raccoon/build/header_symlinks/PlasticHardeningModel.h
FN:18,_ZN21PlasticHardeningModel5setQpEj
FNDA:139608,_ZN21PlasticHardeningModel5setQpEj
FNF:1
FNH:1
DA:18,139608
LF:1
LH:1
end_of_record
SF:/home/runner/work/raccoon/raccoon/src/materials/small_deformation_models/SmallDeformationElasticityModel.C
FN:9,_ZN31SmallDeformationElasticityModel11validParamsEv
FNDA:211,_ZN31SmallDeformationElasticityModel11validParamsEv
FN:20,_ZN31SmallDeformationElasticityModelC2ERK15InputParameters
FNDA:42,_ZN31SmallDeformationElasticityModelC2ERK15InputParameters
FN:29,_ZN31SmallDeformationElasticityModel5setQpEj
FNDA:3292320,_ZN31SmallDeformationElasticityModel5setQpEj
FN:37,_ZN31SmallDeformationElasticityModel18setPlasticityModelEP31SmallDeformationPlasticityModel
FNDA:6,_ZN31SmallDeformationElasticityModel18setPlasticityModelEP31SmallDeformationPlasticityModel
FN:45,_ZN31SmallDeformationElasticityModel24initQpStatefulPropertiesEv
FNDA:11508,_ZN31SmallDeformationElasticityModel24initQpStatefulPropertiesEv
FN:51,_ZN31SmallDeformationElasticityModel11updateStateERK18RankTwoTensorTemplIN11MetaPhysicL10DualNumberIdNS1_28SemiDynamicSparseNumberArrayIdmNS1_8NWrapperILm53EEEEELb1EEEERS8_
FNDA:3292320,_ZN31SmallDeformationElasticityModel11updateStateERK18RankTwoTensorTemplIN11MetaPhysicL10DualNumberIdNS1_28SemiDynamicSparseNumberArrayIdmNS1_8NWrapperILm53EEEEELb1EEEERS8_
FNF:6
FNH:6
DA:9,211
DA:11,211
DA:12,211
DA:14,211
DA:15,211
DA:17,211
DA:20,42
DA:24,42
DA:26,42
DA:29,3292320
DA:31,3292320
DA:32,3292320
DA:33,139608
DA:34,3292320
DA:37,6
DA:40,6
DA:41,6
DA:42,6
DA:45,11508
DA:47,11508
DA:48,11508
DA:51,3292320
DA:54,3292320
DA:56,3292320
DA:57,139608
DA:59,3152720
DA:60,3292320
LF:27
LH:27
end_of_record
SF:/home/runner/work/raccoon/raccoon/moose/framework/build/header_symlinks/MooseVariableBase.h
FN:67,_ZNK17MooseVariableBase4nameB5cxx11Ev
FNDA:0,_ZNK17MooseVariableBase4nameB5cxx11Ev
FNF:1
FNH:0
DA:67,0
LF:1
LH:0
end_of_record
SF:/home/runner/work/raccoon/raccoon/moose/framework/build/header_symlinks/MooseObjectName.h
FN:56,_ZN15MooseObjectNameD0Ev
FNDA:0,_ZN15MooseObjectNameD0Ev
FN:56,_ZN15MooseObjectNameD2Ev
FNDA:0,_ZN15MooseObjectNameD2Ev
FNF:2
FNH:0
DA:56,0
DA:56,0
LF:2
LH:0
end_of_record
SF:/usr/share/miniconda/envs/moose/x86_64-conda-linux-gnu/include/c++/10.3.0/bits/vector.tcc
FN:509,_ZNSt6vectorISt4pairIbdESaIS1_EE14_M_fill_insertEN9__gnu_cxx17__normal_iteratorIPS1_S3_EEmRKS1_
FNDA:0,_ZNSt6vectorISt4pairIbdESaIS1_EE14_M_fill_insertEN9__gnu_cxx17__normal_iteratorIPS1_S3_EEmRKS1_
FN:509,_ZNSt6vectorISt4pairIbN11MetaPhysicL10DualNumberIdNS1_28SemiDynamicSparseNumberArrayIdmNS1_8NWrapperILm53EEEEELb1EEEESaIS8_EE14_M_fill_insertEN9__gnu_cxx17__normal_iteratorIPS8_SA_EEmRKS8_
FNDA:0,_ZNSt6vectorISt4pairIbN11MetaPhysicL10DualNumberIdNS1_28SemiDynamicSparseNumberArrayIdmNS1_8NWrapperILm53EEEEELb1EEEESaIS8_EE14_M_fill_insertEN9__gnu_cxx17__normal_iteratorIPS8_SA_EEmRKS8_
FN:509,_ZNSt6vectorIP13PropertyValueSaIS1_EE14_M_fill_insertEN9__gnu_cxx17__normal_iteratorIPS1_S3_EEmRKS1_
FNDA:0,_ZNSt6vectorIP13PropertyValueSaIS1_EE14_M_fill_insertEN9__gnu_cxx17__normal_iteratorIPS1_S3_EEmRKS1_
FN:611,_ZNSt6vectorIS_ISt4pairIbdESaIS1_EESaIS3_EE17_M_default_appendEm
FNDA:0,_ZNSt6vectorIS_ISt4pairIbdESaIS1_EESaIS3_EE17_M_default_appendEm
FN:611,_ZNSt6vectorIS_ISt4pairIbN11MetaPhysicL10DualNumberIdNS1_28SemiDynamicSparseNumberArrayIdmNS1_8NWrapperILm53EEEEELb1EEEESaIS8_EESaISA_EE17_M_default_appendEm
FNDA:0,_ZNSt6vectorIS_ISt4pairIbN11MetaPhysicL10DualNumberIdNS1_28SemiDynamicSparseNumberArrayIdmNS1_8NWrapperILm53EEEEELb1EEEESaIS8_EESaISA_EE17_M_default_appendEm
FNF:5
FNH:0
DA:509,0
DA:512,0
DA:514,0
DA:515,0
DA:523,0
DA:525,0
DA:528,0
DA:532,0
DA:534,0
DA:536,0
DA:543,0
DA:551,0
DA:559,0
DA:566,0
DA:573,0
DA:576,0
DA:580,0
DA:599,0
DA:600,0
DA:601,0
DA:602,0
DA:603,0
DA:606,0
DA:509,0
DA:512,0
DA:514,0
DA:515,0
DA:523,0
DA:525,0
DA:528,0
DA:532,0
DA:536,0
DA:542,0
DA:543,0
DA:551,0
DA:559,0
DA:566,0
DA:573,0
DA:576,0
DA:580,0
DA:595,0
DA:599,0
DA:600,0
DA:601,0
DA:602,0
DA:603,0
DA:606,0
DA:509,0
DA:512,0
DA:514,0
DA:515,0
DA:523,0
DA:525,0
DA:528,0
DA:532,0
DA:536,0
DA:542,0
DA:543,0
DA:551,0
DA:559,0
DA:566,0
DA:573,0
DA:576,0
DA:580,0
DA:599,0
DA:600,0
DA:601,0
DA:602,0
DA:603,0
DA:606,0
DA:611,0
DA:614,0
DA:617,0
DA:618,0
DA:620,0
DA:621,0
DA:623,0
DA:626,0
DA:634,0
DA:640,0
DA:648,0
DA:676,0
DA:677,0
DA:678,0
DA:679,0
DA:680,0
DA:683,0
DA:611,0
DA:614,0
DA:617,0
DA:618,0
DA:620,0
DA:621,0
DA:623,0
DA:626,0
DA:634,0
DA:640,0
DA:648,0
DA:676,0
DA:677,0
DA:678,0
DA:679,0
DA:680,0
DA:683,0
LF:104
LH:0
end_of_record
SF:/home/runner/work/raccoon/raccoon/build/header_symlinks/SmallDeformationJ2Plasticity.h
LF:0
LH:0
end_of_record
SF:/usr/share/miniconda/envs/moose/x86_64-conda-linux-gnu/include/c++/10.3.0/bits/stl_construct.h
FN:149,_ZNSt12_Destroy_auxILb0EE9__destroyIPSt5tupleIJNSt7__cxx1112basic_stringIcSt11char_traitsIcESaIcEEEN5Moose23RelationshipManagerTypeESt8functionIFvRK15InputParametersRSC_EEEEEEvT_SK_
FNDA:0,_ZNSt12_Destroy_auxILb0EE9__destroyIPSt5tupleIJNSt7__cxx1112basic_stringIcSt11char_traitsIcESaIcEEEN5Moose23RelationshipManagerTypeESt8functionIFvRK15InputParametersRSC_EEEEEEvT_SK_
FN:149,_ZNSt12_Destroy_auxILb0EE9__destroyIPSt10unique_ptrIN5Moose15FunctorEnvelopeIN11MetaPhysicL10DualNumberIdNS5_28SemiDynamicSparseNumberArrayIdmNS5_8NWrapperILm53EEEEELb1EEEEESt14default_deleteISC_EEEEvT_SH_
FNDA:0,_ZNSt12_Destroy_auxILb0EE9__destroyIPSt10unique_ptrIN5Moose15FunctorEnvelopeIN11MetaPhysicL10DualNumberIdNS5_28SemiDynamicSparseNumberArrayIdmNS5_8NWrapperILm53EEEEELb1EEEEESt14default_deleteISC_EEEEvT_SH_
FN:149,_ZNSt12_Destroy_auxILb0EE9__destroyIPSt10unique_ptrIN5Moose15FunctorEnvelopeIdEESt14default_deleteIS5_EEEEvT_SA_
FNDA:0,_ZNSt12_Destroy_auxILb0EE9__destroyIPSt10unique_ptrIN5Moose15FunctorEnvelopeIdEESt14default_deleteIS5_EEEEvT_SA_
FNF:3
FNH:0
DA:109,0
DA:140,0
DA:149,0
DA:151,0
DA:153,0
DA:149,0
DA:151,0
DA:153,0
DA:149,0
DA:151,0
DA:153,0
DA:151,0
DA:185,0
LF:13
LH:0
end_of_record
SF:/home/runner/work/raccoon/raccoon/moose/framework/build/header_symlinks/MooseEnum.h
FN:64,_ZN9MooseEnumaSERKS_
FNDA:0,_ZN9MooseEnumaSERKS_
FN:66,_ZN9MooseEnumD0Ev
FNDA:0,_ZN9MooseEnumD0Ev
FN:66,_ZN9MooseEnumD2Ev
FNDA:211,_ZN9MooseEnumD2Ev
FNF:3
FNH:1
DA:64,0
DA:66,0
DA:66,422
DA:155,42
LF:4
LH:2
end_of_record
SF:/usr/share/miniconda/envs/moose/x86_64-conda-linux-gnu/include/c++/10.3.0/bits/stl_set.h
FN:281,_ZNSt3setIsSt4lessIsESaIsEED2Ev
FNDA:0,_ZNSt3setIsSt4lessIsESaIsEED2Ev
FN:281,_ZNSt3setItSt4lessItESaItEED2Ev
FNDA:0,_ZNSt3setItSt4lessItESaItEED2Ev
FN:509,_ZNSt3setINSt7__cxx1112basic_stringIcSt11char_traitsIcESaIcEEESt4lessIS5_ESaIS5_EE6insertERKS5_
FNDA:0,_ZNSt3setINSt7__cxx1112basic_stringIcSt11char_traitsIcESaIcEEESt4lessIS5_ESaIS5_EE6insertERKS5_
FN:518,_ZNSt3setIjSt4lessIjESaIjEE6insertEOj
FNDA:0,_ZNSt3setIjSt4lessIjESaIjEE6insertEOj
FNF:4
FNH:0
DA:281,0
DA:281,0
DA:281,211
DA:298,0
DA:509,0
DA:512,0
DA:513,0
DA:518,0
DA:521,0
DA:522,0
DA:749,0
LF:11
LH:1
end_of_record
SF:/home/runner/work/raccoon/raccoon/moose/framework/build/header_symlinks/MooseVariableDependencyInterface.h
LF:0
LH:0
end_of_record
SF:/home/runner/work/raccoon/raccoon/moose/framework/build/header_symlinks/MooseEnumBase.h
FN:46,_ZN13MooseEnumBaseaSERKS_
FNDA:0,_ZN13MooseEnumBaseaSERKS_
FN:51,_ZN13MooseEnumBaseD0Ev
FNDA:0,_ZN13MooseEnumBaseD0Ev
FN:51,_ZN13MooseEnumBaseD2Ev
FNDA:211,_ZN13MooseEnumBaseD2Ev
FNF:3
FNH:1
DA:46,0
DA:51,0
DA:51,211
LF:3
LH:1
end_of_record
SF:/usr/share/miniconda/envs/moose/x86_64-conda-linux-gnu/include/c++/10.3.0/bits/basic_string.tcc
FN:206,_ZNSt7__cxx1112basic_stringIcSt11char_traitsIcESaIcEE12_M_constructIPcEEvT_S7_St20forward_iterator_tag
FNDA:168,_ZNSt7__cxx1112basic_stringIcSt11char_traitsIcESaIcEE12_M_constructIPcEEvT_S7_St20forward_iterator_tag
FN:206,_ZNSt7__cxx1112basic_stringIcSt11char_traitsIcESaIcEE12_M_constructIPKcEEvT_S8_St20forward_iterator_tag
FNDA:7028,_ZNSt7__cxx1112basic_stringIcSt11char_traitsIcESaIcEE12_M_constructIPKcEEvT_S8_St20forward_iterator_tag
FN:1152,_ZStplIcSt11char_traitsIcESaIcEENSt7__cxx1112basic_stringIT_T0_T1_EEPKS5_RKS8_
FNDA:0,_ZStplIcSt11char_traitsIcESaIcEENSt7__cxx1112basic_stringIT_T0_T1_EEPKS5_RKS8_
FNF:3
FNH:2
DA:206,168
DA:211,168
DA:212,0
DA:215,168
DA:217,168
DA:219,0
DA:220,0
DA:232,168
DA:233,168
DA:206,7028
DA:211,7028
DA:212,0
DA:215,7028
DA:217,7028
DA:219,4194
DA:220,4194
DA:232,7028
DA:233,7028
DA:1152,0
DA:1164,0
DA:1165,0
DA:1167,0
LF:22
LH:14
end_of_record
SF:/usr/share/miniconda/envs/moose/libmesh/include/Eigen/src/Core/Matrix.h
DA:178,0
LF:1
LH:0
end_of_record
SF:/home/runner/work/raccoon/raccoon/moose/framework/build/header_symlinks/Registry.h
FN:160,_ZN8Registry3addI28SmallDeformationJ2PlasticityEEcRK13RegistryEntry
FNDA:37,_ZN8Registry3addI28SmallDeformationJ2PlasticityEEcRK13RegistryEntry
FN:160,_ZN8Registry3addI35SmallDeformationIsotropicElasticityEEcRK13RegistryEntry
FNDA:37,_ZN8Registry3addI35SmallDeformationIsotropicElasticityEEcRK13RegistryEntry
FN:160,_ZN8Registry3addI29ComputeSmallDeformationStressEEcRK13RegistryEntry
FNDA:37,_ZN8Registry3addI29ComputeSmallDeformationStressEEcRK13RegistryEntry
FN:221,_ZN8Registry5buildI28SmallDeformationJ2Plasticity11MooseObjectEESt10shared_ptrIT0_ERK15InputParameters
FNDA:6,_ZN8Registry5buildI28SmallDeformationJ2Plasticity11MooseObjectEESt10shared_ptrIT0_ERK15InputParameters
FN:221,_ZN8Registry5buildI35SmallDeformationIsotropicElasticity11MooseObjectEESt10shared_ptrIT0_ERK15InputParameters
FNDA:42,_ZN8Registry5buildI35SmallDeformationIsotropicElasticity11MooseObjectEESt10shared_ptrIT0_ERK15InputParameters
FN:221,_ZN8Registry5buildI29ComputeSmallDeformationStress11MooseObjectEESt10shared_ptrIT0_ERK15InputParameters
FNDA:42,_ZN8Registry5buildI29ComputeSmallDeformationStress11MooseObjectEESt10shared_ptrIT0_ERK15InputParameters
FNF:6
FNH:6
DA:160,37
DA:162,74
DA:163,37
DA:164,37
DA:165,37
DA:166,37
DA:160,37
DA:162,74
DA:163,37
DA:164,37
DA:165,37
DA:166,37
DA:160,37
DA:162,74
DA:163,37
DA:164,37
DA:165,37
DA:166,37
DA:221,6
DA:223,6
DA:221,42
DA:223,42
DA:221,42
DA:223,42
LF:24
LH:24
end_of_record
SF:/home/runner/work/raccoon/raccoon/moose/framework/build/header_symlinks/MaterialBase.h
FN:75,_ZN12MaterialBase19isInterfaceMaterialEv
FNDA:0,_ZN12MaterialBase19isInterfaceMaterialEv
FN:172,_ZN12MaterialBase17getRequestedItemsB5cxx11Ev
FNDA:0,_ZN12MaterialBase17getRequestedItemsB5cxx11Ev
FN:178,_ZN12MaterialBase16getSuppliedItemsB5cxx11Ev
FNDA:0,_ZN12MaterialBase16getSuppliedItemsB5cxx11Ev
FN:258,_ZNK12MaterialBase9miProblemEv
FNDA:0,_ZNK12MaterialBase9miProblemEv
FN:259,_ZN12MaterialBase9miProblemEv
FNDA:0,_ZN12MaterialBase9miProblemEv
FN:441,_ZN12MaterialBase17declareADPropertyIdEER18ADMaterialPropertyIT_ERKNSt7__cxx1112basic_stringIcSt11char_traitsIcESaIcEEE
FNDA:0,_ZN12MaterialBase17declareADPropertyIdEER18ADMaterialPropertyIT_ERKNSt7__cxx1112basic_stringIcSt11char_traitsIcESaIcEEE
FN:441,_ZN12MaterialBase17declareADPropertyI18RankTwoTensorTemplIdEEER18ADMaterialPropertyIT_ERKNSt7__cxx1112basic_stringIcSt11char_traitsIcESaIcEEE
FNDA:0,_ZN12MaterialBase17declareADPropertyI18RankTwoTensorTemplIdEEER18ADMaterialPropertyIT_ERKNSt7__cxx1112basic_stringIcSt11char_traitsIcESaIcEEE
FN:453,_ZN12MaterialBase23declareADPropertyByNameIdEER18ADMaterialPropertyIT_ERKNSt7__cxx1112basic_stringIcSt11char_traitsIcESaIcEEE
FNDA:0,_ZN12MaterialBase23declareADPropertyByNameIdEER18ADMaterialPropertyIT_ERKNSt7__cxx1112basic_stringIcSt11char_traitsIcESaIcEEE
FN:453,_ZN12MaterialBase23declareADPropertyByNameI18RankTwoTensorTemplIdEEER18ADMaterialPropertyIT_ERKNSt7__cxx1112basic_stringIcSt11char_traitsIcESaIcEEE
FNDA:0,_ZN12MaterialBase23declareADPropertyByNameI18RankTwoTensorTemplIdEEER18ADMaterialPropertyIT_ERKNSt7__cxx1112basic_stringIcSt11char_traitsIcESaIcEEE
FNF:9
FNH:0
DA:75,0
DA:172,0
DA:178,0
DA:258,0
DA:259,0
DA:441,0
DA:444,0
DA:445,0
DA:446,0
DA:448,0
DA:441,0
DA:444,0
DA:445,0
DA:446,0
DA:448,0
DA:453,0
DA:455,0
DA:458,0
DA:459,0
DA:460,0
DA:453,0
DA:455,0
DA:458,0
DA:459,0
DA:460,0
LF:25
LH:0
end_of_record
SF:/usr/share/miniconda/envs/moose/libmesh/include/Eigen/src/Core/DenseStorage.h
DA:542,0
LF:1
LH:0
end_of_record
SF:/usr/share/miniconda/envs/moose/x86_64-conda-linux-gnu/include/c++/10.3.0/bits/unique_ptr.h
FN:79,_ZNKSt14default_deleteI10MooseArrayIN5Eigen6MatrixIdLin1ELi1ELi0ELin1ELi1EEEEEclEPS4_
FNDA:0,_ZNKSt14default_deleteI10MooseArrayIN5Eigen6MatrixIdLin1ELi1ELi0ELin1ELi1EEEEEclEPS4_
FN:79,_ZNKSt14default_deleteI10MooseArrayIN7libMesh11VectorValueIdEEEEclEPS4_
FNDA:0,_ZNKSt14default_deleteI10MooseArrayIN7libMesh11VectorValueIdEEEEclEPS4_
FN:79,_ZNKSt14default_deleteI10MooseArrayIN7libMesh11VectorValueIN11MetaPhysicL10DualNumberIdNS3_28SemiDynamicSparseNumberArrayIdmNS3_8NWrapperILm53EEEEELb1EEEEEEEclEPSB_
FNDA:0,_ZNKSt14default_deleteI10MooseArrayIN7libMesh11VectorValueIN11MetaPhysicL10DualNumberIdNS3_28SemiDynamicSparseNumberArrayIdmNS3_8NWrapperILm53EEEEELb1EEEEEEEclEPSB_
FN:79,_ZNKSt14default_deleteI10MooseArrayIN11MetaPhysicL10DualNumberIdNS1_28SemiDynamicSparseNumberArrayIdmNS1_8NWrapperILm53EEEEELb1EEEEEclEPS8_
FNDA:0,_ZNKSt14default_deleteI10MooseArrayIN11MetaPhysicL10DualNumberIdNS1_28SemiDynamicSparseNumberArrayIdmNS1_8NWrapperILm53EEEEELb1EEEEEclEPS8_
FN:79,_ZNKSt14default_deleteI10MooseArrayIdEEclEPS1_
FNDA:0,_ZNKSt14default_deleteI10MooseArrayIdEEclEPS1_
FN:116,_ZNKSt14default_deleteIA_N11MetaPhysicL10DualNumberIdNS0_28SemiDynamicSparseNumberArrayIdmNS0_8NWrapperILm53EEEEELb1EEEEclIS6_EENSt9enable_ifIXsrSt14is_convertibleIPA_T_PS7_E5valueEvE4typeEPSC_
FNDA:0,_ZNKSt14default_deleteIA_N11MetaPhysicL10DualNumberIdNS0_28SemiDynamicSparseNumberArrayIdmNS0_8NWrapperILm53EEEEELb1EEEEclIS6_EENSt9enable_ifIXsrSt14is_convertibleIPA_T_PS7_E5valueEvE4typeEPSC_
FN:116,_ZNKSt14default_deleteIA_N5Eigen6MatrixIdLin1ELi3ELi0ELin1ELi3EEEEclIS2_EENSt9enable_ifIXsrSt14is_convertibleIPA_T_PS3_E5valueEvE4typeEPS8_
FNDA:0,_ZNKSt14default_deleteIA_N5Eigen6MatrixIdLin1ELi3ELi0ELin1ELi3EEEEclIS2_EENSt9enable_ifIXsrSt14is_convertibleIPA_T_PS3_E5valueEvE4typeEPS8_
FN:116,_ZNKSt14default_deleteIA_N5Eigen6MatrixIdLin1ELi1ELi0ELin1ELi1EEEEclIS2_EENSt9enable_ifIXsrSt14is_convertibleIPA_T_PS3_E5valueEvE4typeEPS8_
FNDA:0,_ZNKSt14default_deleteIA_N5Eigen6MatrixIdLin1ELi1ELi0ELin1ELi1EEEEclIS2_EENSt9enable_ifIXsrSt14is_convertibleIPA_T_PS3_E5valueEvE4typeEPS8_
FN:116,_ZNKSt14default_deleteIA_N7libMesh11TensorValueIdEEEclIS2_EENSt9enable_ifIXsrSt14is_convertibleIPA_T_PS3_E5valueEvE4typeEPS8_
FNDA:0,_ZNKSt14default_deleteIA_N7libMesh11TensorValueIdEEEclIS2_EENSt9enable_ifIXsrSt14is_convertibleIPA_T_PS3_E5valueEvE4typeEPS8_
FN:116,_ZNKSt14default_deleteIA_N7libMesh11TensorValueIN11MetaPhysicL10DualNumberIdNS2_28SemiDynamicSparseNumberArrayIdmNS2_8NWrapperILm53EEEEELb1EEEEEEclIS9_EENSt9enable_ifIXsrSt14is_convertibleIPA_T_PSA_E5valueEvE4typeEPSF_
FNDA:0,_ZNKSt14default_deleteIA_N7libMesh11TensorValueIN11MetaPhysicL10DualNumberIdNS2_28SemiDynamicSparseNumberArrayIdmNS2_8NWrapperILm53EEEEELb1EEEEEEclIS9_EENSt9enable_ifIXsrSt14is_convertibleIPA_T_PSA_E5valueEvE4typeEPSF_
FN:116,_ZNKSt14default_deleteIA_18RankTwoTensorTemplIN11MetaPhysicL10DualNumberIdNS1_28SemiDynamicSparseNumberArrayIdmNS1_8NWrapperILm53EEEEELb1EEEEEclIS8_EENSt9enable_ifIXsrSt14is_convertibleIPA_T_PS9_E5valueEvE4typeEPSE_
FNDA:0,_ZNKSt14default_deleteIA_18RankTwoTensorTemplIN11MetaPhysicL10DualNumberIdNS1_28SemiDynamicSparseNumberArrayIdmNS1_8NWrapperILm53EEEEELb1EEEEEclIS8_EENSt9enable_ifIXsrSt14is_convertibleIPA_T_PS9_E5valueEvE4typeEPSE_
FN:116,_ZNKSt14default_deleteIA_18RankTwoTensorTemplIdEEclIS1_EENSt9enable_ifIXsrSt14is_convertibleIPA_T_PS2_E5valueEvE4typeEPS7_
FNDA:0,_ZNKSt14default_deleteIA_18RankTwoTensorTemplIdEEclIS1_EENSt9enable_ifIXsrSt14is_convertibleIPA_T_PS2_E5valueEvE4typeEPS7_
FN:116,_ZNKSt14default_deleteIA_N7libMesh11VectorValueIN11MetaPhysicL10DualNumberIdNS2_28SemiDynamicSparseNumberArrayIdmNS2_8NWrapperILm53EEEEELb1EEEEEEclIS9_EENSt9enable_ifIXsrSt14is_convertibleIPA_T_PSA_E5valueEvE4typeEPSF_
FNDA:0,_ZNKSt14default_deleteIA_N7libMesh11VectorValueIN11MetaPhysicL10DualNumberIdNS2_28SemiDynamicSparseNumberArrayIdmNS2_8NWrapperILm53EEEEELb1EEEEEEclIS9_EENSt9enable_ifIXsrSt14is_convertibleIPA_T_PSA_E5valueEvE4typeEPSF_
FN:355,_ZNSt10unique_ptrINSt13__future_base12_Result_baseENS1_8_DeleterEED2Ev
FNDA:0,_ZNSt10unique_ptrINSt13__future_base12_Result_baseENS1_8_DeleterEED2Ev
FN:355,_ZNSt10unique_ptrI16MaterialPropertyIdESt14default_deleteIS1_EED2Ev
FNDA:0,_ZNSt10unique_ptrI16MaterialPropertyIdESt14default_deleteIS1_EED2Ev
FN:355,_ZNSt10unique_ptrI18ADMaterialPropertyIdESt14default_deleteIS1_EED2Ev
FNDA:0,_ZNSt10unique_ptrI18ADMaterialPropertyIdESt14default_deleteIS1_EED2Ev
FN:355,_ZNSt10unique_ptrI16MaterialPropertyIN7libMesh11VectorValueIdEEESt14default_deleteIS4_EED2Ev
FNDA:0,_ZNSt10unique_ptrI16MaterialPropertyIN7libMesh11VectorValueIdEEESt14default_deleteIS4_EED2Ev
FN:355,_ZNSt10unique_ptrI18ADMaterialPropertyIN7libMesh11VectorValueIdEEESt14default_deleteIS4_EED2Ev
FNDA:0,_ZNSt10unique_ptrI18ADMaterialPropertyIN7libMesh11VectorValueIdEEESt14default_deleteIS4_EED2Ev
FN:355,_ZNSt10unique_ptrI33OptionalMaterialPropertyProxyBaseI25MaterialPropertyInterfaceESt14default_deleteIS2_EED2Ev
FNDA:0,_ZNSt10unique_ptrI33OptionalMaterialPropertyProxyBaseI25MaterialPropertyInterfaceESt14default_deleteIS2_EED2Ev
FN:355,_ZNSt10unique_ptrI10MooseArrayIN5Eigen6MatrixIdLin1ELi1ELi0ELin1ELi1EEEESt14default_deleteIS4_EED2Ev
FNDA:0,_ZNSt10unique_ptrI10MooseArrayIN5Eigen6MatrixIdLin1ELi1ELi0ELin1ELi1EEEESt14default_deleteIS4_EED2Ev
FN:355,_ZNSt10unique_ptrIN5Moose11FunctorBaseIN11MetaPhysicL10DualNumberIdNS2_28SemiDynamicSparseNumberArrayIdmNS2_8NWrapperILm53EEEEELb1EEEEESt14default_deleteIS9_EED2Ev
FNDA:0,_ZNSt10unique_ptrIN5Moose11FunctorBaseIN11MetaPhysicL10DualNumberIdNS2_28SemiDynamicSparseNumberArrayIdmNS2_8NWrapperILm53EEEEELb1EEEEESt14default_deleteIS9_EED2Ev
FN:355,_ZNSt10unique_ptrIN5Moose11FunctorBaseIdEESt14default_deleteIS2_EED2Ev
FNDA:0,_ZNSt10unique_ptrIN5Moose11FunctorBaseIdEESt14default_deleteIS2_EED2Ev
FN:355,_ZNSt10unique_ptrI10MooseArrayIN7libMesh11VectorValueIN11MetaPhysicL10DualNumberIdNS3_28SemiDynamicSparseNumberArrayIdmNS3_8NWrapperILm53EEEEELb1EEEEEESt14default_deleteISB_EED2Ev
FNDA:0,_ZNSt10unique_ptrI10MooseArrayIN7libMesh11VectorValueIN11MetaPhysicL10DualNumberIdNS3_28SemiDynamicSparseNumberArrayIdmNS3_8NWrapperILm53EEEEELb1EEEEEESt14default_deleteISB_EED2Ev
FN:355,_ZNSt10unique_ptrI33OptionalMaterialPropertyProxyBaseI8MaterialESt14default_deleteIS2_EED2Ev
FNDA:0,_ZNSt10unique_ptrI33OptionalMaterialPropertyProxyBaseI8MaterialESt14default_deleteIS2_EED2Ev
FN:355,_ZNSt10unique_ptrI10MooseArrayIN7libMesh11VectorValueIdEEESt14default_deleteIS4_EED2Ev
FNDA:0,_ZNSt10unique_ptrI10MooseArrayIN7libMesh11VectorValueIdEEESt14default_deleteIS4_EED2Ev
FN:355,_ZNSt10unique_ptrIdSt14default_deleteIdEED2Ev
FNDA:0,_ZNSt10unique_ptrIdSt14default_deleteIdEED2Ev
FN:355,_ZNSt10unique_ptrI10MooseArrayIN11MetaPhysicL10DualNumberIdNS1_28SemiDynamicSparseNumberArrayIdmNS1_8NWrapperILm53EEEEELb1EEEESt14default_deleteIS8_EED2Ev
FNDA:0,_ZNSt10unique_ptrI10MooseArrayIN11MetaPhysicL10DualNumberIdNS1_28SemiDynamicSparseNumberArrayIdmNS1_8NWrapperILm53EEEEELb1EEEESt14default_deleteIS8_EED2Ev
FN:355,_ZNSt10unique_ptrI10MooseArrayIdESt14default_deleteIS1_EED2Ev
FNDA:0,_ZNSt10unique_ptrI10MooseArrayIdESt14default_deleteIS1_EED2Ev
FN:608,_ZNSt10unique_ptrIA_18RankTwoTensorTemplIdESt14default_deleteIS2_EED2Ev
FNDA:0,_ZNSt10unique_ptrIA_18RankTwoTensorTemplIdESt14default_deleteIS2_EED2Ev
FN:608,_ZNSt10unique_ptrIA_18RankTwoTensorTemplIN11MetaPhysicL10DualNumberIdNS1_28SemiDynamicSparseNumberArrayIdmNS1_8NWrapperILm53EEEEELb1EEEESt14default_deleteIS9_EED2Ev
FNDA:0,_ZNSt10unique_ptrIA_18RankTwoTensorTemplIN11MetaPhysicL10DualNumberIdNS1_28SemiDynamicSparseNumberArrayIdmNS1_8NWrapperILm53EEEEELb1EEEESt14default_deleteIS9_EED2Ev
FN:608,_ZNSt10unique_ptrIA_N5Eigen6MatrixIdLin1ELi3ELi0ELin1ELi3EEESt14default_deleteIS3_EED2Ev
FNDA:0,_ZNSt10unique_ptrIA_N5Eigen6MatrixIdLin1ELi3ELi0ELin1ELi3EEESt14default_deleteIS3_EED2Ev
FN:608,_ZNSt10unique_ptrIA_N5Eigen6MatrixIdLin1ELi1ELi0ELin1ELi1EEESt14default_deleteIS3_EED2Ev
FNDA:0,_ZNSt10unique_ptrIA_N5Eigen6MatrixIdLin1ELi1ELi0ELin1ELi1EEESt14default_deleteIS3_EED2Ev
FN:608,_ZNSt10unique_ptrIA_N7libMesh11TensorValueIdEESt14default_deleteIS3_EED2Ev
FNDA:0,_ZNSt10unique_ptrIA_N7libMesh11TensorValueIdEESt14default_deleteIS3_EED2Ev
FN:608,_ZNSt10unique_ptrIA_N7libMesh11TensorValueIN11MetaPhysicL10DualNumberIdNS2_28SemiDynamicSparseNumberArrayIdmNS2_8NWrapperILm53EEEEELb1EEEEESt14default_deleteISA_EED2Ev
FNDA:0,_ZNSt10unique_ptrIA_N7libMesh11TensorValueIN11MetaPhysicL10DualNumberIdNS2_28SemiDynamicSparseNumberArrayIdmNS2_8NWrapperILm53EEEEELb1EEEEESt14default_deleteISA_EED2Ev
FN:608,_ZNSt10unique_ptrIA_N7libMesh11VectorValueIN11MetaPhysicL10DualNumberIdNS2_28SemiDynamicSparseNumberArrayIdmNS2_8NWrapperILm53EEEEELb1EEEEESt14default_deleteISA_EED2Ev
FNDA:0,_ZNSt10unique_ptrIA_N7libMesh11VectorValueIN11MetaPhysicL10DualNumberIdNS2_28SemiDynamicSparseNumberArrayIdmNS2_8NWrapperILm53EEEEELb1EEEEESt14default_deleteISA_EED2Ev
FN:608,_ZNSt10unique_ptrIA_N11MetaPhysicL10DualNumberIdNS0_28SemiDynamicSparseNumberArrayIdmNS0_8NWrapperILm53EEEEELb1EEESt14default_deleteIS7_EED2Ev
FNDA:0,_ZNSt10unique_ptrIA_N11MetaPhysicL10DualNumberIdNS0_28SemiDynamicSparseNumberArrayIdmNS0_8NWrapperILm53EEEEELb1EEESt14default_deleteIS7_EED2Ev
FNF:36
FNH:0
DA:79,0
DA:85,0
DA:86,0
DA:79,0
DA:85,0
DA:86,0
DA:79,0
DA:85,0
DA:86,0
DA:79,0
DA:85,0
DA:86,0
DA:79,0
DA:85,0
DA:86,0
DA:85,0
DA:86,0
DA:116,0
DA:120,0
DA:121,0
DA:116,0
DA:120,0
DA:121,0
DA:116,0
DA:120,0
DA:121,0
DA:116,0
DA:120,0
DA:121,0
DA:116,0
DA:120,0
DA:121,0
DA:116,0
DA:120,0
DA:121,0
DA:116,0
DA:120,0
DA:121,0
DA:116,0
DA:120,0
DA:121,0
DA:120,0
DA:121,0
DA:173,0
DA:174,0
DA:179,0
DA:180,0
DA:181,0
DA:182,0
DA:355,0
DA:360,0
DA:363,0
DA:355,0
DA:360,0
DA:363,0
DA:355,0
DA:360,0
DA:361,0
DA:363,0
DA:355,0
DA:360,0
DA:361,0
DA:363,0
DA:355,0
DA:360,0
DA:361,0
DA:363,0
DA:355,0
DA:360,0
DA:363,0
DA:355,0
DA:360,0
DA:361,0
DA:363,0
DA:355,0
DA:360,0
DA:361,0
DA:363,0
DA:355,0
DA:360,0
DA:363,0
DA:355,0
DA:360,0
DA:363,0
DA:355,0
DA:360,0
DA:363,0
DA:355,0
DA:360,0
DA:363,0
DA:355,0
DA:360,0
DA:363,0
DA:355,0
DA:360,0
DA:363,0
DA:355,0
DA:360,0
DA:363,0
DA:360,0
DA:363,0
DA:608,0
DA:611,0
DA:612,0
DA:614,0
DA:608,0
DA:611,0
DA:612,0
DA:614,0
DA:608,0
DA:611,0
DA:612,0
DA:614,0
DA:608,0
DA:611,0
DA:612,0
DA:614,0
DA:608,0
DA:611,0
DA:612,0
DA:614,0
DA:608,0
DA:611,0
DA:612,0
DA:614,0
DA:608,0
DA:611,0
DA:612,0
DA:614,0
DA:608,0
DA:611,0
DA:612,0
DA:614,0
DA:611,0
LF:134
LH:0
end_of_record
SF:/home/runner/work/raccoon/raccoon/moose/framework/build/header_symlinks/Material.h
FN:36,_ZNK8Material12getElementIDERKNSt7__cxx1112basic_stringIcSt11char_traitsIcESaIcEEEj
FNDA:0,_ZNK8Material12getElementIDERKNSt7__cxx1112basic_stringIcSt11char_traitsIcESaIcEEEj
FN:46,_ZNK8Material20getElementIDNeighborERKNSt7__cxx1112basic_stringIcSt11char_traitsIcESaIcEEEj
FNDA:0,_ZNK8Material20getElementIDNeighborERKNSt7__cxx1112basic_stringIcSt11char_traitsIcESaIcEEEj
FN:60,_ZNK8Material18getElementIDByNameERKNSt7__cxx1112basic_stringIcSt11char_traitsIcESaIcEEE
FNDA:0,_ZNK8Material18getElementIDByNameERKNSt7__cxx1112basic_stringIcSt11char_traitsIcESaIcEEE
FN:70,_ZNK8Material26getElementIDNeighborByNameERKNSt7__cxx1112basic_stringIcSt11char_traitsIcESaIcEEE
FNDA:0,_ZNK8Material26getElementIDNeighborByNameERKNSt7__cxx1112basic_stringIcSt11char_traitsIcESaIcEEE
FN:131,_ZN8Material11getMaterialERKNSt7__cxx1112basic_stringIcSt11char_traitsIcESaIcEEE
FNDA:54,_ZN8Material11getMaterialERKNSt7__cxx1112basic_stringIcSt11char_traitsIcESaIcEEE
FN:167,_ZNK8Material18isBoundaryMaterialEv
FNDA:0,_ZNK8Material18isBoundaryMaterialEv
FN:169,_ZNK8Material22getMatPropDependenciesEv
FNDA:0,_ZNK8Material22getMatPropDependenciesEv
FN:182,_ZNK8Material9ghostableEv
FNDA:0,_ZNK8Material9ghostableEv
FN:188,_ZNK8Material12materialDataEv
FNDA:0,_ZNK8Material12materialDataEv
FN:189,_ZN8Material12materialDataEv
FNDA:0,_ZN8Material12materialDataEv
FN:191,_ZNK8Material5qRuleEv
FNDA:0,_ZNK8Material5qRuleEv
FN:242,_ZN8Material21getADMaterialPropertyI18RankTwoTensorTemplIdEEERK18ADMaterialPropertyIT_ERKNSt7__cxx1112basic_stringIcSt11char_traitsIcESaIcEEE
FNDA:0,_ZN8Material21getADMaterialPropertyI18RankTwoTensorTemplIdEEERK18ADMaterialPropertyIT_ERKNSt7__cxx1112basic_stringIcSt11char_traitsIcESaIcEEE
FN:242,_ZN8Material21getADMaterialPropertyIdEERK18ADMaterialPropertyIT_ERKNSt7__cxx1112basic_stringIcSt11char_traitsIcESaIcEEE
FNDA:0,_ZN8Material21getADMaterialPropertyIdEERK18ADMaterialPropertyIT_ERKNSt7__cxx1112basic_stringIcSt11char_traitsIcESaIcEEE
FN:303,_ZN8Material27getADMaterialPropertyByNameI18RankTwoTensorTemplIdEEERK18ADMaterialPropertyIT_ERKNSt7__cxx1112basic_stringIcSt11char_traitsIcESaIcEEE
FNDA:0,_ZN8Material27getADMaterialPropertyByNameI18RankTwoTensorTemplIdEEERK18ADMaterialPropertyIT_ERKNSt7__cxx1112basic_stringIcSt11char_traitsIcESaIcEEE
FN:303,_ZN8Material27getADMaterialPropertyByNameIdEERK18ADMaterialPropertyIT_ERKNSt7__cxx1112basic_stringIcSt11char_traitsIcESaIcEEE
FNDA:0,_ZN8Material27getADMaterialPropertyByNameIdEERK18ADMaterialPropertyIT_ERKNSt7__cxx1112basic_stringIcSt11char_traitsIcESaIcEEE
FN:319,_ZN8Material28getMaterialPropertyOldByNameI18RankTwoTensorTemplIdEEERK16MaterialPropertyIT_ERKNSt7__cxx1112basic_stringIcSt11char_traitsIcESaIcEEE
FNDA:0,_ZN8Material28getMaterialPropertyOldByNameI18RankTwoTensorTemplIdEEERK16MaterialPropertyIT_ERKNSt7__cxx1112basic_stringIcSt11char_traitsIcESaIcEEE
FN:319,_ZN8Material28getMaterialPropertyOldByNameIdEERK16MaterialPropertyIT_ERKNSt7__cxx1112basic_stringIcSt11char_traitsIcESaIcEEE
FNDA:0,_ZN8Material28getMaterialPropertyOldByNameIdEERK16MaterialPropertyIT_ERKNSt7__cxx1112basic_stringIcSt11char_traitsIcESaIcEEE
FNF:17
FNH:1
DA:36,0
DA:39,0
DA:40,0
DA:46,0
DA:49,0
DA:60,0
DA:62,0
DA:63,0
DA:70,0
DA:72,0
DA:131,54
DA:133,54
DA:167,0
DA:169,0
DA:171,0
DA:182,0
DA:188,0
DA:189,0
DA:191,0
DA:242,0
DA:245,0
DA:248,0
DA:249,0
DA:252,0
DA:242,0
DA:245,0
DA:252,0
DA:303,0
DA:305,0
DA:308,0
DA:311,0
DA:312,0
DA:313,0
DA:314,0
DA:303,0
DA:305,0
DA:308,0
DA:311,0
DA:312,0
DA:313,0
DA:314,0
DA:319,0
DA:321,0
DA:324,0
DA:325,0
DA:326,0
DA:319,0
DA:321,0
DA:324,0
DA:325,0
DA:326,0
LF:51
LH:2
end_of_record
SF:/home/runner/work/raccoon/raccoon/moose/framework/build/header_symlinks/OutputInterface.h
LF:0
LH:0
end_of_record
SF:/usr/share/miniconda/envs/moose/x86_64-conda-linux-gnu/include/c++/10.3.0/bits/shared_ptr.h
FN:407,_ZNSt10shared_ptrI28SmallDeformationJ2PlasticityEC2ISaIS0_EJRK15InputParametersEEESt20_Sp_alloc_shared_tagIT_EDpOT0_
FNDA:6,_ZNSt10shared_ptrI28SmallDeformationJ2PlasticityEC2ISaIS0_EJRK15InputParametersEEESt20_Sp_alloc_shared_tagIT_EDpOT0_
FN:407,_ZNSt10shared_ptrI35SmallDeformationIsotropicElasticityEC2ISaIS0_EJRK15InputParametersEEESt20_Sp_alloc_shared_tagIT_EDpOT0_
FNDA:42,_ZNSt10shared_ptrI35SmallDeformationIsotropicElasticityEC2ISaIS0_EJRK15InputParametersEEESt20_Sp_alloc_shared_tagIT_EDpOT0_
FN:407,_ZNSt10shared_ptrI29ComputeSmallDeformationStressEC2ISaIS0_EJRK15InputParametersEEESt20_Sp_alloc_shared_tagIT_EDpOT0_
FNDA:42,_ZNSt10shared_ptrI29ComputeSmallDeformationStressEC2ISaIS0_EJRK15InputParametersEEESt20_Sp_alloc_shared_tagIT_EDpOT0_
FNF:3
FNH:3
DA:121,90
DA:407,6
DA:408,6
DA:409,6
DA:407,42
DA:408,42
DA:409,42
DA:407,42
DA:408,42
DA:409,42
DA:860,90
DA:875,90
LF:12
LH:12
end_of_record
SF:/usr/share/miniconda/envs/moose/libmesh/include/Eigen/src/Core/util/Memory.h
DA:177,0
DA:235,0
LF:2
LH:0
end_of_record
SF:/usr/share/miniconda/envs/moose/libmesh/include/libmesh/type_tensor.h
FN:544,_ZN7libMesh10TypeTensorIN11MetaPhysicL10DualNumberIdNS1_28SemiDynamicSparseNumberArrayIdmNS1_8NWrapperILm53EEEEELb1EEEEC2ERKS7_SA_SA_SA_SA_SA_SA_SA_SA_
FNDA:0,_ZN7libMesh10TypeTensorIN11MetaPhysicL10DualNumberIdNS1_28SemiDynamicSparseNumberArrayIdmNS1_8NWrapperILm53EEEEELb1EEEEC2ERKS7_SA_SA_SA_SA_SA_SA_SA_SA_
FN:639,_ZN7libMesh10TypeTensorIN11MetaPhysicL10DualNumberIdNS1_28SemiDynamicSparseNumberArrayIdmNS1_8NWrapperILm53EEEEELb1EEEEC2IdEERKNS0_IT_EE
FNDA:139608,_ZN7libMesh10TypeTensorIN11MetaPhysicL10DualNumberIdNS1_28SemiDynamicSparseNumberArrayIdmNS1_8NWrapperILm53EEEEELb1EEEEC2IdEERKNS0_IT_EE
FN:790,_ZNK7libMesh10TypeTensorIdEplIN11MetaPhysicL10DualNumberIdNS3_28SemiDynamicSparseNumberArrayIdmNS3_8NWrapperILm53EEEEELb1EEEEENS0_INS_12CompareTypesIdT_E9supertypeEEERKNS0_ISB_EE
FNDA:139608,_ZNK7libMesh10TypeTensorIdEplIN11MetaPhysicL10DualNumberIdNS3_28SemiDynamicSparseNumberArrayIdmNS3_8NWrapperILm53EEEEELb1EEEEENS0_INS_12CompareTypesIdT_E9supertypeEEERKNS0_ISB_EE
FN:790,_ZNK7libMesh10TypeTensorIN11MetaPhysicL10DualNumberIdNS1_28SemiDynamicSparseNumberArrayIdmNS1_8NWrapperILm53EEEEELb1EEEEplIS7_EENS0_INS_12CompareTypesIS7_T_E9supertypeEEERKNS0_ISB_EE
FNDA:0,_ZNK7libMesh10TypeTensorIN11MetaPhysicL10DualNumberIdNS1_28SemiDynamicSparseNumberArrayIdmNS1_8NWrapperILm53EEEEELb1EEEEplIS7_EENS0_INS_12CompareTypesIS7_T_E9supertypeEEERKNS0_ISB_EE
FN:860,_ZNK7libMesh10TypeTensorIN11MetaPhysicL10DualNumberIdNS1_28SemiDynamicSparseNumberArrayIdmNS1_8NWrapperILm53EEEEELb1EEEEmiIS7_EENS0_INS_12CompareTypesIS7_T_E9supertypeEEERKNS0_ISB_EE
FNDA:0,_ZNK7libMesh10TypeTensorIN11MetaPhysicL10DualNumberIdNS1_28SemiDynamicSparseNumberArrayIdmNS1_8NWrapperILm53EEEEELb1EEEEmiIS7_EENS0_INS_12CompareTypesIS7_T_E9supertypeEEERKNS0_ISB_EE
FN:961,_ZNK7libMesh10TypeTensorIN11MetaPhysicL10DualNumberIdNS1_28SemiDynamicSparseNumberArrayIdmNS1_8NWrapperILm53EEEEELb1EEEEmlIdEENS_9boostcopy11enable_if_cIXsrNS_12ScalarTraitsIT_EE5valueENS0_IDTmlcvS7__Efp_EEEE4typeERKSD_
FNDA:0,_ZNK7libMesh10TypeTensorIN11MetaPhysicL10DualNumberIdNS1_28SemiDynamicSparseNumberArrayIdmNS1_8NWrapperILm53EEEEELb1EEEEmlIdEENS_9boostcopy11enable_if_cIXsrNS_12ScalarTraitsIT_EE5valueENS0_IDTmlcvS7__Efp_EEEE4typeERKSD_
FN:961,_ZNK7libMesh10TypeTensorIN11MetaPhysicL10DualNumberIdNS1_28SemiDynamicSparseNumberArrayIdmNS1_8NWrapperILm53EEEEELb1EEEEmlIS7_EENS_9boostcopy11enable_if_cIXsrNS_12ScalarTraitsIT_EE5valueENS0_IDTmlcvS7__Efp_EEEE4typeERKSD_
FNDA:0,_ZNK7libMesh10TypeTensorIN11MetaPhysicL10DualNumberIdNS1_28SemiDynamicSparseNumberArrayIdmNS1_8NWrapperILm53EEEEELb1EEEEmlIS7_EENS_9boostcopy11enable_if_cIXsrNS_12ScalarTraitsIT_EE5valueENS0_IDTmlcvS7__Efp_EEEE4typeERKSD_
FN:1011,_ZNK7libMesh10TypeTensorIN11MetaPhysicL10DualNumberIdNS1_28SemiDynamicSparseNumberArrayIdmNS1_8NWrapperILm53EEEEELb1EEEEdvIS7_EENS_9boostcopy11enable_if_cIXsrNS_12ScalarTraitsIT_EE5valueENS0_INS_12CompareTypesIS7_SD_E9supertypeEEEE4typeERKSD_
FNDA:0,_ZNK7libMesh10TypeTensorIN11MetaPhysicL10DualNumberIdNS1_28SemiDynamicSparseNumberArrayIdmNS1_8NWrapperILm53EEEEELb1EEEEdvIS7_EENS_9boostcopy11enable_if_cIXsrNS_12ScalarTraitsIT_EE5valueENS0_INS_12CompareTypesIS7_SD_E9supertypeEEEE4typeERKSD_
FN:1334,_ZN7libMesh10TypeTensorIN11MetaPhysicL10DualNumberIdNS1_28SemiDynamicSparseNumberArrayIdmNS1_8NWrapperILm53EEEEELb1EEEE4zeroEv
FNDA:34524,_ZN7libMesh10TypeTensorIN11MetaPhysicL10DualNumberIdNS1_28SemiDynamicSparseNumberArrayIdmNS1_8NWrapperILm53EEEEELb1EEEE4zeroEv
FNF:9
FNH:3
DA:544,0
DA:552,0
DA:554,0
DA:568,0
DA:569,0
DA:570,0
DA:571,0
DA:572,0
DA:573,0
DA:574,0
DA:575,0
DA:584,0
DA:639,1396080
DA:642,1396080
DA:643,1256470
DA:644,139608
DA:700,9985220
DA:729,0
DA:790,139608
DA:806,139608
DA:807,139608
DA:808,139608
DA:809,139608
DA:810,139608
DA:811,139608
DA:812,139608
DA:813,139608
DA:814,279216
DA:790,0
DA:806,0
DA:807,0
DA:808,0
DA:809,0
DA:810,0
DA:811,0
DA:812,0
DA:813,0
DA:814,0
DA:860,0
DA:876,0
DA:877,0
DA:878,0
DA:879,0
DA:880,0
DA:881,0
DA:882,0
DA:883,0
DA:884,0
DA:961,0
DA:980,0
DA:981,0
DA:982,0
DA:983,0
DA:984,0
DA:985,0
DA:986,0
DA:987,0
DA:988,0
DA:961,0
DA:980,0
DA:981,0
DA:982,0
DA:983,0
DA:984,0
DA:985,0
DA:986,0
DA:987,0
DA:988,0
DA:1002,15386600
DA:1011,0
DA:1029,0
DA:1030,0
DA:1031,0
DA:1032,0
DA:1033,0
DA:1034,0
DA:1035,0
DA:1036,0
DA:1037,0
DA:1334,34524
DA:1336,345240
DA:1337,310716
DA:1338,34524
LF:83
LH:20
end_of_record
SF:/usr/share/miniconda/envs/moose/libmesh/include/metaphysicl/dualnumber_decl.h
DA:57,24111900
DA:174,15553600
DA:177,398
LF:3
LH:3
end_of_record
SF:/home/runner/work/raccoon/raccoon/moose/framework/build/header_symlinks/ScalarCoupleable.h
LF:0
LH:0
end_of_record
SF:/home/runner/work/raccoon/raccoon/build/header_symlinks/SmallDeformationPlasticityModel.h
FN:41,_ZN31SmallDeformationPlasticityModel17resetQpPropertiesEv
FNDA:0,_ZN31SmallDeformationPlasticityModel17resetQpPropertiesEv
FN:42,_ZN31SmallDeformationPlasticityModel15resetPropertiesEv
FNDA:34902,_ZN31SmallDeformationPlasticityModel15resetPropertiesEv
FNF:2
FNH:1
DA:41,0
DA:42,34902
LF:2
LH:1
end_of_record
SF:/usr/share/miniconda/envs/moose/libmesh/include/libmesh/libmesh_exceptions.h
DA:42,0
DA:54,0
LF:2
LH:0
end_of_record
SF:/usr/share/miniconda/envs/moose/x86_64-conda-linux-gnu/include/c++/10.3.0/bits/stl_function.h
DA:356,0
DA:386,0
DA:1156,0
LF:3
LH:0
end_of_record
SF:/home/runner/work/raccoon/raccoon/moose/framework/build/header_symlinks/Coupleable.h
FN:114,_ZNK10Coupleable15coupledCallbackERKNSt7__cxx1112basic_stringIcSt11char_traitsIcESaIcEEEb
FNDA:0,_ZNK10Coupleable15coupledCallbackERKNSt7__cxx1112basic_stringIcSt11char_traitsIcESaIcEEEb
FNF:1
FNH:0
DA:114,0
LF:1
LH:0
end_of_record
SF:/usr/share/miniconda/envs/moose/libmesh/include/metaphysicl/semidynamicsparsenumberarray_decl.h
DA:34,10195800
DA:56,0
DA:58,10286400
DA:60,199
DA:62,0
LF:5
LH:3
end_of_record
SF:/usr/share/miniconda/envs/moose/libmesh/include/metaphysicl/semidynamicsparsenumberarray.h
DA:84,0
DA:85,0
LF:2
LH:0
end_of_record
SF:/usr/share/miniconda/envs/moose/x86_64-conda-linux-gnu/include/c++/10.3.0/future
FN:328,_ZNSt13__future_base13_State_baseV2D0Ev
FNDA:0,_ZNSt13__future_base13_State_baseV2D0Ev
FN:328,_ZNSt13__future_base13_State_baseV2D2Ev
FNDA:0,_ZNSt13__future_base13_State_baseV2D2Ev
FN:581,_ZNSt13__future_base13_State_baseV217_M_complete_asyncEv
FNDA:0,_ZNSt13__future_base13_State_baseV217_M_complete_asyncEv
FN:584,_ZNKSt13__future_base13_State_baseV221_M_is_deferred_futureEv
FNDA:0,_ZNKSt13__future_base13_State_baseV221_M_is_deferred_futureEv
FN:663,_ZNSt13__future_base7_ResultIvE10_M_destroyEv
FNDA:0,_ZNSt13__future_base7_ResultIvE10_M_destroyEv
FNF:5
FNH:0
DA:213,0
DA:328,0
DA:328,0
DA:581,0
DA:584,0
DA:663,0
LF:6
LH:0
end_of_record
SF:/usr/share/miniconda/envs/moose/libmesh/include/libmesh/parallel_object.h
LF:0
LH:0
end_of_record
SF:/usr/share/miniconda/envs/moose/x86_64-conda-linux-gnu/include/c++/10.3.0/bits/stl_iterator.h
DA:240,0
DA:241,0
DA:289,0
DA:311,0
DA:976,0
DA:981,0
DA:985,0
DA:1002,0
DA:1003,0
DA:1202,0
DA:1342,0
DA:1371,0
LF:12
LH:0
end_of_record
SF:/usr/share/miniconda/envs/moose/libmesh/include/libmesh/elem.h
FN:564,_ZNK7libMesh4Elem9is_remoteEv
FNDA:0,_ZNK7libMesh4Elem9is_remoteEv
FN:622,_ZNK7libMesh4Elem16n_nodes_in_childEj
FNDA:0,_ZNK7libMesh4Elem16n_nodes_in_childEj
FN:708,_ZNK7libMesh4Elem18is_vertex_on_childEjj
FNDA:0,_ZNK7libMesh4Elem18is_vertex_on_childEjj
FN:906,_ZNK7libMesh4Elem18default_side_orderEv
FNDA:0,_ZNK7libMesh4Elem18default_side_orderEv
FN:950,_ZNK7libMesh4Elem17quasicircumcenterEv
FNDA:0,_ZNK7libMesh4Elem17quasicircumcenterEv
FN:994,_ZNK7libMesh4Elem11qual_boundsENS_11ElemQualityE
FNDA:0,_ZNK7libMesh4Elem11qual_boundsENS_11ElemQualityE
FN:1034,_ZNK7libMesh4Elem14has_affine_mapEv
FNDA:0,_ZNK7libMesh4Elem14has_affine_mapEv
FN:1050,_ZNK7libMesh4Elem9is_linearEv
FNDA:0,_ZNK7libMesh4Elem9is_linearEv
FN:1654,_ZNK7libMesh4Elem19local_singular_nodeERKNS_5PointEd
FNDA:0,_ZNK7libMesh4Elem19local_singular_nodeERKNS_5PointEd
FN:1661,_ZNK7libMesh4Elem16is_singular_nodeEj
FNDA:0,_ZNK7libMesh4Elem16is_singular_nodeEj
FN:1821,_ZNK7libMesh4Elem24embedding_matrix_versionEv
FNDA:0,_ZNK7libMesh4Elem24embedding_matrix_versionEv
FN:1968,_ZNK7libMesh4Elem26_get_bracketing_node_cacheEv
FNDA:0,_ZNK7libMesh4Elem26_get_bracketing_node_cacheEv
FN:1982,_ZNK7libMesh4Elem25_get_parent_indices_cacheEv
FNDA:0,_ZNK7libMesh4Elem25_get_parent_indices_cacheEv
FN:2320,_ZN7libMesh4Elem8set_nodeEj
FNDA:0,_ZN7libMesh4Elem8set_nodeEj
FNF:14
FNH:0
DA:564,0
DA:565,0
DA:622,0
DA:623,0
DA:708,0
DA:710,0
DA:906,0
DA:950,0
DA:951,0
DA:994,0
DA:995,0
DA:1034,0
DA:1050,0
DA:1654,0
DA:1655,0
DA:1661,0
DA:1821,0
DA:1968,0
DA:1970,0
DA:1971,0
DA:1982,0
DA:1984,0
DA:1985,0
DA:2320,0
DA:2324,0
LF:25
LH:0
end_of_record
SF:/home/runner/work/raccoon/raccoon/moose/framework/build/header_symlinks/MaterialProperty.h
FN:113,_ZN20MaterialPropertyBaseIdLb1EED2Ev
FNDA:0,_ZN20MaterialPropertyBaseIdLb1EED2Ev
FN:113,_ZN20MaterialPropertyBaseIdLb1EED0Ev
FNDA:0,_ZN20MaterialPropertyBaseIdLb1EED0Ev
FN:113,_ZN20MaterialPropertyBaseIdLb0EED2Ev
FNDA:0,_ZN20MaterialPropertyBaseIdLb0EED2Ev
FN:113,_ZN20MaterialPropertyBaseIdLb0EED0Ev
FNDA:0,_ZN20MaterialPropertyBaseIdLb0EED0Ev
FN:113,_ZN20MaterialPropertyBaseI18RankTwoTensorTemplIdELb1EED2Ev
FNDA:0,_ZN20MaterialPropertyBaseI18RankTwoTensorTemplIdELb1EED2Ev
FN:113,_ZN20MaterialPropertyBaseI18RankTwoTensorTemplIdELb1EED0Ev
FNDA:0,_ZN20MaterialPropertyBaseI18RankTwoTensorTemplIdELb1EED0Ev
FN:113,_ZN20MaterialPropertyBaseI18RankTwoTensorTemplIdELb0EED2Ev
FNDA:0,_ZN20MaterialPropertyBaseI18RankTwoTensorTemplIdELb0EED2Ev
FN:113,_ZN20MaterialPropertyBaseI18RankTwoTensorTemplIdELb0EED0Ev
FNDA:0,_ZN20MaterialPropertyBaseI18RankTwoTensorTemplIdELb0EED0Ev
FN:113,_ZN20MaterialPropertyBaseIN7libMesh11VectorValueIdEELb1EED0Ev
FNDA:0,_ZN20MaterialPropertyBaseIN7libMesh11VectorValueIdEELb1EED0Ev
FN:113,_ZN20MaterialPropertyBaseIN7libMesh11VectorValueIdEELb1EED2Ev
FNDA:0,_ZN20MaterialPropertyBaseIN7libMesh11VectorValueIdEELb1EED2Ev
FN:113,_ZN20MaterialPropertyBaseIN7libMesh11VectorValueIdEELb0EED2Ev
FNDA:0,_ZN20MaterialPropertyBaseIN7libMesh11VectorValueIdEELb0EED2Ev
FN:113,_ZN20MaterialPropertyBaseIN7libMesh11VectorValueIdEELb0EED0Ev
FNDA:0,_ZN20MaterialPropertyBaseIN7libMesh11VectorValueIdEELb0EED0Ev
FN:115,_ZN20MaterialPropertyBaseIN7libMesh11VectorValueIdEELb1EE4isADEv
FNDA:0,_ZN20MaterialPropertyBaseIN7libMesh11VectorValueIdEELb1EE4isADEv
FN:115,_ZN20MaterialPropertyBaseI18RankTwoTensorTemplIdELb0EE4isADEv
FNDA:0,_ZN20MaterialPropertyBaseI18RankTwoTensorTemplIdELb0EE4isADEv
FN:115,_ZN20MaterialPropertyBaseIdLb0EE4isADEv
FNDA:0,_ZN20MaterialPropertyBaseIdLb0EE4isADEv
FN:115,_ZN20MaterialPropertyBaseIdLb1EE4isADEv
FNDA:0,_ZN20MaterialPropertyBaseIdLb1EE4isADEv
FN:115,_ZN20MaterialPropertyBaseI18RankTwoTensorTemplIdELb1EE4isADEv
FNDA:0,_ZN20MaterialPropertyBaseI18RankTwoTensorTemplIdELb1EE4isADEv
FN:115,_ZN20MaterialPropertyBaseIN7libMesh11VectorValueIdEELb0EE4isADEv
FNDA:0,_ZN20MaterialPropertyBaseIN7libMesh11VectorValueIdEELb0EE4isADEv
FN:137,_ZNK20MaterialPropertyBaseI18RankTwoTensorTemplIdELb1EE4sizeEv
FNDA:0,_ZNK20MaterialPropertyBaseI18RankTwoTensorTemplIdELb1EE4sizeEv
FN:137,_ZNK20MaterialPropertyBaseI18RankTwoTensorTemplIdELb0EE4sizeEv
FNDA:0,_ZNK20MaterialPropertyBaseI18RankTwoTensorTemplIdELb0EE4sizeEv
FN:137,_ZNK20MaterialPropertyBaseIdLb0EE4sizeEv
FNDA:0,_ZNK20MaterialPropertyBaseIdLb0EE4sizeEv
FN:137,_ZNK20MaterialPropertyBaseIdLb1EE4sizeEv
FNDA:0,_ZNK20MaterialPropertyBaseIdLb1EE4sizeEv
FN:137,_ZNK20MaterialPropertyBaseIN7libMesh11VectorValueIdEELb1EE4sizeEv
FNDA:0,_ZNK20MaterialPropertyBaseIN7libMesh11VectorValueIdEELb1EE4sizeEv
FN:137,_ZNK20MaterialPropertyBaseIN7libMesh11VectorValueIdEELb0EE4sizeEv
FNDA:0,_ZNK20MaterialPropertyBaseIN7libMesh11VectorValueIdEELb0EE4sizeEv
FN:221,_ZN5moose8internal22rawValueEqualityHelperI18RankTwoTensorTemplIN11MetaPhysicL10DualNumberIdNS3_28SemiDynamicSparseNumberArrayIdmNS3_8NWrapperILm53EEEEELb1EEEES2_IdEEEvRT_RKT0_
FNDA:0,_ZN5moose8internal22rawValueEqualityHelperI18RankTwoTensorTemplIN11MetaPhysicL10DualNumberIdNS3_28SemiDynamicSparseNumberArrayIdmNS3_8NWrapperILm53EEEEELb1EEEES2_IdEEEvRT_RKT0_
FN:221,_ZN5moose8internal22rawValueEqualityHelperIN7libMesh11VectorValueIN11MetaPhysicL10DualNumberIdNS4_28SemiDynamicSparseNumberArrayIdmNS4_8NWrapperILm53EEEEELb1EEEEENS3_IdEEEEvRT_RKT0_
FNDA:0,_ZN5moose8internal22rawValueEqualityHelperIN7libMesh11VectorValueIN11MetaPhysicL10DualNumberIdNS4_28SemiDynamicSparseNumberArrayIdmNS4_8NWrapperILm53EEEEELb1EEEEENS3_IdEEEEvRT_RKT0_
FN:221,_ZN5moose8internal22rawValueEqualityHelperIN7libMesh11VectorValueIdEENS3_IN11MetaPhysicL10DualNumberIdNS5_28SemiDynamicSparseNumberArrayIdmNS5_8NWrapperILm53EEEEELb1EEEEEEEvRT_RKT0_
FNDA:0,_ZN5moose8internal22rawValueEqualityHelperIN7libMesh11VectorValueIdEENS3_IN11MetaPhysicL10DualNumberIdNS5_28SemiDynamicSparseNumberArrayIdmNS5_8NWrapperILm53EEEEELb1EEEEEEEvRT_RKT0_
FN:221,_ZN5moose8internal22rawValueEqualityHelperI18RankTwoTensorTemplIdES2_IN11MetaPhysicL10DualNumberIdNS4_28SemiDynamicSparseNumberArrayIdmNS4_8NWrapperILm53EEEEELb1EEEEEEvRT_RKT0_
FNDA:0,_ZN5moose8internal22rawValueEqualityHelperI18RankTwoTensorTemplIdES2_IN11MetaPhysicL10DualNumberIdNS4_28SemiDynamicSparseNumberArrayIdmNS4_8NWrapperILm53EEEEELb1EEEEEEvRT_RKT0_
FN:247,_ZN20MaterialPropertyBaseIN7libMesh11VectorValueIdEELb0EE4typeB5cxx11Ev
FNDA:0,_ZN20MaterialPropertyBaseIN7libMesh11VectorValueIdEELb0EE4typeB5cxx11Ev
FN:247,_ZN20MaterialPropertyBaseI18RankTwoTensorTemplIdELb0EE4typeB5cxx11Ev
FNDA:0,_ZN20MaterialPropertyBaseI18RankTwoTensorTemplIdELb0EE4typeB5cxx11Ev
FN:247,_ZN20MaterialPropertyBaseIdLb1EE4typeB5cxx11Ev
FNDA:0,_ZN20MaterialPropertyBaseIdLb1EE4typeB5cxx11Ev
FN:247,_ZN20MaterialPropertyBaseIN7libMesh11VectorValueIdEELb1EE4typeB5cxx11Ev
FNDA:0,_ZN20MaterialPropertyBaseIN7libMesh11VectorValueIdEELb1EE4typeB5cxx11Ev
FN:247,_ZN20MaterialPropertyBaseI18RankTwoTensorTemplIdELb1EE4typeB5cxx11Ev
FNDA:0,_ZN20MaterialPropertyBaseI18RankTwoTensorTemplIdELb1EE4typeB5cxx11Ev
FN:247,_ZN20MaterialPropertyBaseIdLb0EE4typeB5cxx11Ev
FNDA:0,_ZN20MaterialPropertyBaseIdLb0EE4typeB5cxx11Ev
FN:254,_ZN20MaterialPropertyBaseIdLb0EE6resizeEi
FNDA:0,_ZN20MaterialPropertyBaseIdLb0EE6resizeEi
FN:254,_ZN20MaterialPropertyBaseIN7libMesh11VectorValueIdEELb0EE6resizeEi
FNDA:0,_ZN20MaterialPropertyBaseIN7libMesh11VectorValueIdEELb0EE6resizeEi
FN:254,_ZN20MaterialPropertyBaseIdLb1EE6resizeEi
FNDA:0,_ZN20MaterialPropertyBaseIdLb1EE6resizeEi
FN:254,_ZN20MaterialPropertyBaseI18RankTwoTensorTemplIdELb0EE6resizeEi
FNDA:0,_ZN20MaterialPropertyBaseI18RankTwoTensorTemplIdELb0EE6resizeEi
FN:254,_ZN20MaterialPropertyBaseIN7libMesh11VectorValueIdEELb1EE6resizeEi
FNDA:0,_ZN20MaterialPropertyBaseIN7libMesh11VectorValueIdEELb1EE6resizeEi
FN:254,_ZN20MaterialPropertyBaseI18RankTwoTensorTemplIdELb1EE6resizeEi
FNDA:0,_ZN20MaterialPropertyBaseI18RankTwoTensorTemplIdELb1EE6resizeEi
FN:261,_ZN20MaterialPropertyBaseIdLb0EE6qpCopyEjP13PropertyValuej
FNDA:0,_ZN20MaterialPropertyBaseIdLb0EE6qpCopyEjP13PropertyValuej
FN:261,_ZN20MaterialPropertyBaseIN7libMesh11VectorValueIdEELb1EE6qpCopyEjP13PropertyValuej
FNDA:0,_ZN20MaterialPropertyBaseIN7libMesh11VectorValueIdEELb1EE6qpCopyEjP13PropertyValuej
FN:261,_ZN20MaterialPropertyBaseI18RankTwoTensorTemplIdELb0EE6qpCopyEjP13PropertyValuej
FNDA:0,_ZN20MaterialPropertyBaseI18RankTwoTensorTemplIdELb0EE6qpCopyEjP13PropertyValuej
FN:261,_ZN20MaterialPropertyBaseIdLb1EE6qpCopyEjP13PropertyValuej
FNDA:0,_ZN20MaterialPropertyBaseIdLb1EE6qpCopyEjP13PropertyValuej
FN:261,_ZN20MaterialPropertyBaseI18RankTwoTensorTemplIdELb1EE6qpCopyEjP13PropertyValuej
FNDA:0,_ZN20MaterialPropertyBaseI18RankTwoTensorTemplIdELb1EE6qpCopyEjP13PropertyValuej
FN:261,_ZN20MaterialPropertyBaseIN7libMesh11VectorValueIdEELb0EE6qpCopyEjP13PropertyValuej
FNDA:0,_ZN20MaterialPropertyBaseIN7libMesh11VectorValueIdEELb0EE6qpCopyEjP13PropertyValuej
FN:278,_ZN20MaterialPropertyBaseIN7libMesh11VectorValueIdEELb1EE5storeERSo
FNDA:0,_ZN20MaterialPropertyBaseIN7libMesh11VectorValueIdEELb1EE5storeERSo
FN:278,_ZN20MaterialPropertyBaseIdLb0EE5storeERSo
FNDA:0,_ZN20MaterialPropertyBaseIdLb0EE5storeERSo
FN:278,_ZN20MaterialPropertyBaseI18RankTwoTensorTemplIdELb1EE5storeERSo
FNDA:0,_ZN20MaterialPropertyBaseI18RankTwoTensorTemplIdELb1EE5storeERSo
FN:278,_ZN20MaterialPropertyBaseIdLb1EE5storeERSo
FNDA:0,_ZN20MaterialPropertyBaseIdLb1EE5storeERSo
FN:278,_ZN20MaterialPropertyBaseIN7libMesh11VectorValueIdEELb0EE5storeERSo
FNDA:0,_ZN20MaterialPropertyBaseIN7libMesh11VectorValueIdEELb0EE5storeERSo
FN:278,_ZN20MaterialPropertyBaseI18RankTwoTensorTemplIdELb0EE5storeERSo
FNDA:0,_ZN20MaterialPropertyBaseI18RankTwoTensorTemplIdELb0EE5storeERSo
FN:286,_ZN20MaterialPropertyBaseIN7libMesh11VectorValueIdEELb0EE4loadERSi
FNDA:0,_ZN20MaterialPropertyBaseIN7libMesh11VectorValueIdEELb0EE4loadERSi
FN:286,_ZN20MaterialPropertyBaseIdLb1EE4loadERSi
FNDA:0,_ZN20MaterialPropertyBaseIdLb1EE4loadERSi
FN:286,_ZN20MaterialPropertyBaseI18RankTwoTensorTemplIdELb1EE4loadERSi
FNDA:0,_ZN20MaterialPropertyBaseI18RankTwoTensorTemplIdELb1EE4loadERSi
FN:286,_ZN20MaterialPropertyBaseI18RankTwoTensorTemplIdELb0EE4loadERSi
FNDA:0,_ZN20MaterialPropertyBaseI18RankTwoTensorTemplIdELb0EE4loadERSi
FN:286,_ZN20MaterialPropertyBaseIN7libMesh11VectorValueIdEELb1EE4loadERSi
FNDA:0,_ZN20MaterialPropertyBaseIN7libMesh11VectorValueIdEELb1EE4loadERSi
FN:286,_ZN20MaterialPropertyBaseIdLb0EE4loadERSi
FNDA:0,_ZN20MaterialPropertyBaseIdLb0EE4loadERSi
FN:294,_ZN20MaterialPropertyBaseI18RankTwoTensorTemplIdELb0EE4swapEP13PropertyValue
FNDA:0,_ZN20MaterialPropertyBaseI18RankTwoTensorTemplIdELb0EE4swapEP13PropertyValue
FN:294,_ZN20MaterialPropertyBaseIN7libMesh11VectorValueIdEELb1EE4swapEP13PropertyValue
FNDA:0,_ZN20MaterialPropertyBaseIN7libMesh11VectorValueIdEELb1EE4swapEP13PropertyValue
FN:294,_ZN20MaterialPropertyBaseIdLb0EE4swapEP13PropertyValue
FNDA:0,_ZN20MaterialPropertyBaseIdLb0EE4swapEP13PropertyValue
FN:294,_ZN20MaterialPropertyBaseIdLb1EE4swapEP13PropertyValue
FNDA:0,_ZN20MaterialPropertyBaseIdLb1EE4swapEP13PropertyValue
FN:294,_ZN20MaterialPropertyBaseIN7libMesh11VectorValueIdEELb0EE4swapEP13PropertyValue
FNDA:0,_ZN20MaterialPropertyBaseIN7libMesh11VectorValueIdEELb0EE4swapEP13PropertyValue
FN:294,_ZN20MaterialPropertyBaseI18RankTwoTensorTemplIdELb1EE4swapEP13PropertyValue
FNDA:0,_ZN20MaterialPropertyBaseI18RankTwoTensorTemplIdELb1EE4swapEP13PropertyValue
FN:332,_ZN16MaterialPropertyI18RankTwoTensorTemplIdEE4initEi
FNDA:0,_ZN16MaterialPropertyI18RankTwoTensorTemplIdEE4initEi
FN:332,_ZN16MaterialPropertyIN7libMesh11VectorValueIdEEE4initEi
FNDA:0,_ZN16MaterialPropertyIN7libMesh11VectorValueIdEEE4initEi
FN:332,_ZN16MaterialPropertyIdE4initEi
FNDA:0,_ZN16MaterialPropertyIdE4initEi
FN:356,_ZN18ADMaterialPropertyIN7libMesh11VectorValueIdEEE4initEi
FNDA:0,_ZN18ADMaterialPropertyIN7libMesh11VectorValueIdEEE4initEi
FN:356,_ZN18ADMaterialPropertyI18RankTwoTensorTemplIdEE4initEi
FNDA:0,_ZN18ADMaterialPropertyI18RankTwoTensorTemplIdEE4initEi
FN:356,_ZN18ADMaterialPropertyIdE4initEi
FNDA:0,_ZN18ADMaterialPropertyIdE4initEi
FN:437,_Z12_init_helperI18ADMaterialPropertyN7libMesh11VectorValueIdEEEP13PropertyValueiPT_IT0_E
FNDA:0,_Z12_init_helperI18ADMaterialPropertyN7libMesh11VectorValueIdEEEP13PropertyValueiPT_IT0_E
FN:437,_Z12_init_helperI16MaterialPropertyN7libMesh11VectorValueIdEEEP13PropertyValueiPT_IT0_E
FNDA:0,_Z12_init_helperI16MaterialPropertyN7libMesh11VectorValueIdEEEP13PropertyValueiPT_IT0_E
FN:437,_Z12_init_helperI16MaterialPropertydEP13PropertyValueiPT_IT0_E
FNDA:0,_Z12_init_helperI16MaterialPropertydEP13PropertyValueiPT_IT0_E
FN:437,_Z12_init_helperI16MaterialProperty18RankTwoTensorTemplIdEEP13PropertyValueiPT_IT0_E
FNDA:0,_Z12_init_helperI16MaterialProperty18RankTwoTensorTemplIdEEP13PropertyValueiPT_IT0_E
FN:437,_Z12_init_helperI18ADMaterialPropertydEP13PropertyValueiPT_IT0_E
FNDA:0,_Z12_init_helperI18ADMaterialPropertydEP13PropertyValueiPT_IT0_E
FN:437,_Z12_init_helperI18ADMaterialProperty18RankTwoTensorTemplIdEEP13PropertyValueiPT_IT0_E
FNDA:0,_Z12_init_helperI18ADMaterialProperty18RankTwoTensorTemplIdEEP13PropertyValueiPT_IT0_E
FNF:76
FNH:0
DA:109,0
DA:113,0
DA:113,0
DA:113,0
DA:113,0
DA:113,0
DA:113,0
DA:113,0
DA:113,0
DA:113,0
DA:113,0
DA:113,0
DA:113,0
DA:115,0
DA:115,0
DA:115,0
DA:115,0
DA:115,0
DA:115,0
DA:137,0
DA:137,0
DA:137,0
DA:137,0
DA:137,0
DA:137,0
DA:175,0
DA:221,0
DA:223,0
DA:224,0
DA:221,0
DA:223,0
DA:224,0
DA:221,0
DA:223,0
DA:224,0
DA:221,0
DA:223,0
DA:224,0
DA:223,0
DA:224,0
DA:247,0
DA:249,0
DA:247,0
DA:249,0
DA:247,0
DA:249,0
DA:247,0
DA:249,0
DA:247,0
DA:249,0
DA:247,0
DA:249,0
DA:254,0
DA:256,0
DA:257,0
DA:254,0
DA:256,0
DA:257,0
DA:254,0
DA:256,0
DA:257,0
DA:254,0
DA:256,0
DA:257,0
DA:254,0
DA:256,0
DA:257,0
DA:254,0
DA:256,0
DA:257,0
DA:261,0
DA:268,0
DA:272,0
DA:274,0
DA:261,0
DA:268,0
DA:274,0
DA:261,0
DA:268,0
DA:272,0
DA:274,0
DA:261,0
DA:268,0
DA:269,0
DA:274,0
DA:261,0
DA:268,0
DA:272,0
DA:274,0
DA:261,0
DA:268,0
DA:272,0
DA:274,0
DA:278,0
DA:280,0
DA:282,0
DA:278,0
DA:280,0
DA:282,0
DA:278,0
DA:280,0
DA:282,0
DA:278,0
DA:280,0
DA:282,0
DA:278,0
DA:280,0
DA:282,0
DA:278,0
DA:280,0
DA:282,0
DA:286,0
DA:288,0
DA:290,0
DA:286,0
DA:288,0
DA:290,0
DA:286,0
DA:288,0
DA:290,0
DA:286,0
DA:288,0
DA:290,0
DA:286,0
DA:288,0
DA:290,0
DA:286,0
DA:288,0
DA:290,0
DA:294,0
DA:299,0
DA:302,0
DA:317,0
DA:321,0
DA:322,0
DA:323,0
DA:294,0
DA:299,0
DA:302,0
DA:317,0
DA:321,0
DA:322,0
DA:294,0
DA:299,0
DA:302,0
DA:317,0
DA:321,0
DA:322,0
DA:323,0
DA:294,0
DA:299,0
DA:302,0
DA:317,0
DA:321,0
DA:322,0
DA:294,0
DA:299,0
DA:302,0
DA:317,0
DA:321,0
DA:322,0
DA:323,0
DA:294,0
DA:299,0
DA:302,0
DA:317,0
DA:321,0
DA:322,0
DA:323,0
DA:330,0
DA:332,0
DA:332,0
DA:332,0
DA:352,0
DA:356,0
DA:356,0
DA:356,0
DA:437,0
DA:441,0
DA:442,0
DA:443,0
DA:437,0
DA:441,0
DA:442,0
DA:443,0
DA:437,0
DA:441,0
DA:442,0
DA:443,0
DA:437,0
DA:441,0
DA:442,0
DA:443,0
DA:437,0
DA:441,0
DA:442,0
DA:443,0
DA:437,0
DA:441,0
DA:442,0
DA:443,0
LF:201
LH:0
end_of_record
SF:/usr/share/miniconda/envs/moose/libmesh/include/metaphysicl/dynamicsparsenumberbase.h
FN:46,_ZN11MetaPhysicL23DynamicSparseNumberBaseINS_22DynamicStdArrayWrapperIdNS_8NWrapperILm53EEEEENS1_ImS3_EENS_28SemiDynamicSparseNumberArrayEJdmS3_EE6resizeEm
FNDA:398,_ZN11MetaPhysicL23DynamicSparseNumberBaseINS_22DynamicStdArrayWrapperIdNS_8NWrapperILm53EEEEENS1_ImS3_EENS_28SemiDynamicSparseNumberArrayEJdmS3_EE6resizeEm
FN:262,_ZNK11MetaPhysicL23DynamicSparseNumberBaseINS_22DynamicStdArrayWrapperIdNS_8NWrapperILm53EEEEENS1_ImS3_EENS_28SemiDynamicSparseNumberArrayEJdmS3_EEngEv
FNDA:398,_ZNK11MetaPhysicL23DynamicSparseNumberBaseINS_22DynamicStdArrayWrapperIdNS_8NWrapperILm53EEEEENS1_ImS3_EENS_28SemiDynamicSparseNumberArrayEJdmS3_EEngEv
FN:280,_ZN11MetaPhysicL23DynamicSparseNumberBaseINS_22DynamicStdArrayWrapperIdNS_8NWrapperILm53EEEEENS1_ImS3_EENS_28SemiDynamicSparseNumberArrayEJdmS3_EE14sparsity_unionIS5_EEvRKT_
FNDA:0,_ZN11MetaPhysicL23DynamicSparseNumberBaseINS_22DynamicStdArrayWrapperIdNS_8NWrapperILm53EEEEENS1_ImS3_EENS_28SemiDynamicSparseNumberArrayEJdmS3_EE14sparsity_unionIS5_EEvRKT_
FN:551,_ZN11MetaPhysicL23DynamicSparseNumberBaseINS_22DynamicStdArrayWrapperIdNS_8NWrapperILm53EEEEENS1_ImS3_EENS_28SemiDynamicSparseNumberArrayEJdmS3_EEpLIJdmS3_EEERNS6_IdmS3_EERKNS6_IDpT_EE
FNDA:0,_ZN11MetaPhysicL23DynamicSparseNumberBaseINS_22DynamicStdArrayWrapperIdNS_8NWrapperILm53EEEEENS1_ImS3_EENS_28SemiDynamicSparseNumberArrayEJdmS3_EEpLIJdmS3_EEERNS6_IdmS3_EERKNS6_IDpT_EE
FN:586,_ZN11MetaPhysicL23DynamicSparseNumberBaseINS_22DynamicStdArrayWrapperIdNS_8NWrapperILm53EEEEENS1_ImS3_EENS_28SemiDynamicSparseNumberArrayEJdmS3_EEmIIJdmS3_EEERNS6_IdmS3_EERKNS6_IDpT_EE
FNDA:199,_ZN11MetaPhysicL23DynamicSparseNumberBaseINS_22DynamicStdArrayWrapperIdNS_8NWrapperILm53EEEEENS1_ImS3_EENS_28SemiDynamicSparseNumberArrayEJdmS3_EEmIIJdmS3_EEERNS6_IdmS3_EERKNS6_IDpT_EE
FN:948,_ZN11MetaPhysicLmlINS_28SemiDynamicSparseNumberArrayENS_22DynamicStdArrayWrapperIdNS_8NWrapperILm53EEEEENS2_ImS4_EEJdmS4_EdEENS_14MultipliesTypeIT_IJDpT2_EET3_Lb1EvE9supertypeERKSC_RKNS_23DynamicSparseNumberBaseIT0_T1_T_JSA_EEE
FNDA:0,_ZN11MetaPhysicLmlINS_28SemiDynamicSparseNumberArrayENS_22DynamicStdArrayWrapperIdNS_8NWrapperILm53EEEEENS2_ImS4_EEJdmS4_EdEENS_14MultipliesTypeIT_IJDpT2_EET3_Lb1EvE9supertypeERKSC_RKNS_23DynamicSparseNumberBaseIT0_T1_T_JSA_EEE
FN:970,_ZN11MetaPhysicLmlINS_28SemiDynamicSparseNumberArrayENS_22DynamicStdArrayWrapperIdNS_8NWrapperILm53EEEEENS2_ImS4_EEJdmS4_EdEENS_14MultipliesTypeIT_IJDpT2_EET3_Lb0EvE9supertypeERKNS_23DynamicSparseNumberBaseIT0_T1_T_JSA_EEERKSC_
FNDA:0,_ZN11MetaPhysicLmlINS_28SemiDynamicSparseNumberArrayENS_22DynamicStdArrayWrapperIdNS_8NWrapperILm53EEEEENS2_ImS4_EEJdmS4_EdEENS_14MultipliesTypeIT_IJDpT2_EET3_Lb0EvE9supertypeERKNS_23DynamicSparseNumberBaseIT0_T1_T_JSA_EEERKSC_
FN:991,_ZN11MetaPhysicLdvINS_28SemiDynamicSparseNumberArrayENS_22DynamicStdArrayWrapperIdNS_8NWrapperILm53EEEEENS2_ImS4_EEJdmS4_EdEENS_11DividesTypeIT_IJDpT2_EET3_Lb0EvE9supertypeERKNS_23DynamicSparseNumberBaseIT0_T1_T_JSA_EEERKSC_
FNDA:0,_ZN11MetaPhysicLdvINS_28SemiDynamicSparseNumberArrayENS_22DynamicStdArrayWrapperIdNS_8NWrapperILm53EEEEENS2_ImS4_EEJdmS4_EdEENS_11DividesTypeIT_IJDpT2_EET3_Lb0EvE9supertypeERKNS_23DynamicSparseNumberBaseIT0_T1_T_JSA_EEERKSC_
FNF:8
FNH:3
DA:46,398
DA:48,398
DA:49,398
DA:53,17763700
DA:95,0
DA:125,199
DA:262,398
DA:265,398
DA:266,1990
DA:268,1592
DA:269,1592
DA:271,398
DA:280,0
DA:302,0
DA:303,0
DA:304,0
DA:306,0
DA:307,0
DA:308,0
DA:311,0
DA:312,0
DA:313,0
DA:314,0
DA:315,0
DA:316,0
DA:319,0
DA:320,0
DA:321,0
DA:322,0
DA:324,0
DA:329,0
DA:334,0
DA:355,0
DA:356,0
DA:357,0
DA:358,0
DA:359,0
DA:360,0
DA:363,0
DA:364,0
DA:368,0
DA:369,0
DA:551,0
DA:554,0
DA:562,0
DA:564,0
DA:565,0
DA:567,0
DA:568,0
DA:569,0
DA:571,0
DA:575,0
DA:578,0
DA:586,199
DA:589,199
DA:597,1791
DA:599,1592
DA:600,1592
DA:602,2985
DA:603,1393
DA:604,1393
DA:606,1393
DA:610,1592
DA:613,199
DA:691,813240
DA:692,722880
DA:703,1091000
DA:704,0
DA:948,0
DA:950,0
DA:954,0
DA:956,0
DA:957,0
DA:958,0
DA:961,0
DA:970,0
DA:972,0
DA:976,0
DA:978,0
DA:979,0
DA:980,0
DA:982,0
DA:991,0
DA:993,0
DA:996,0
DA:998,0
DA:999,0
DA:1000,0
DA:1003,0
LF:89
LH:25
end_of_record
SF:/usr/share/miniconda/envs/moose/x86_64-conda-linux-gnu/include/c++/10.3.0/typeinfo
FN:120,_ZNKSt9type_infoeqERKS_
FNDA:0,_ZNKSt9type_infoeqERKS_
FNF:1
FNH:0
DA:100,0
DA:120,0
DA:122,0
DA:123,0
DA:124,0
LF:5
LH:0
end_of_record
SF:/usr/share/miniconda/envs/moose/x86_64-conda-linux-gnu/include/c++/10.3.0/bits/locale_facets.h
FN:872,_ZNKSt5ctypeIcE5widenEc
FNDA:0,_ZNKSt5ctypeIcE5widenEc
FN:1084,_ZNKSt5ctypeIcE8do_widenEc
FNDA:0,_ZNKSt5ctypeIcE8do_widenEc
FNF:2
FNH:0
DA:872,0
DA:874,0
DA:875,0
DA:876,0
DA:877,0
DA:1084,0
DA:1085,0
LF:7
LH:0
end_of_record
SF:/usr/share/miniconda/envs/moose/libmesh/include/metaphysicl/metaphysicl_exceptions.h
DA:45,0
LF:1
LH:0
end_of_record
SF:/usr/share/miniconda/envs/moose/x86_64-conda-linux-gnu/include/c++/10.3.0/bits/std_function.h
FN:242,_ZNSt14_Function_baseD2Ev
FNDA:0,_ZNSt14_Function_baseD2Ev
FNF:1
FNH:0
DA:242,0
DA:243,0
DA:244,0
DA:245,0
DA:246,0
DA:303,0
LF:6
LH:0
end_of_record
SF:/usr/share/miniconda/envs/moose/x86_64-conda-linux-gnu/include/c++/10.3.0/bits/std_abs.h
DA:72,139608
LF:1
LH:1
end_of_record
SF:/usr/share/miniconda/envs/moose/x86_64-conda-linux-gnu/include/c++/10.3.0/bits/stl_pair.h
FN:314,_ZNSt4pairIK13MooseEnumItemS0_EC2ERKS2_
FNDA:0,_ZNSt4pairIK13MooseEnumItemS0_EC2ERKS2_
FNF:1
FNH:0
DA:211,0
DA:314,0
DA:315,0
DA:337,0
DA:353,0
DA:395,0
DA:396,0
DA:408,0
DA:409,0
LF:9
LH:0
end_of_record
SF:/home/runner/work/raccoon/raccoon/moose/framework/build/header_symlinks/MooseUtils.h
DA:344,139608
LF:1
LH:1
end_of_record
SF:/usr/share/miniconda/envs/moose/libmesh/include/metaphysicl/dualnumber.h
FN:73,_ZNK11MetaPhysicL10DualNumberIdNS_28SemiDynamicSparseNumberArrayIdmNS_8NWrapperILm53EEEEELb1EEngEv
FNDA:398,_ZNK11MetaPhysicL10DualNumberIdNS_28SemiDynamicSparseNumberArrayIdmNS_8NWrapperILm53EEEEELb1EEngEv
FN:97,_ZN11MetaPhysicL10DualNumberIdNS_28SemiDynamicSparseNumberArrayIdmNS_8NWrapperILm53EEEEELb1EEaSERKS5_
FNDA:0,_ZN11MetaPhysicL10DualNumberIdNS_28SemiDynamicSparseNumberArrayIdmNS_8NWrapperILm53EEEEELb1EEaSERKS5_
FN:110,_ZN11MetaPhysicL10DualNumberIdNS_28SemiDynamicSparseNumberArrayIdmNS_8NWrapperILm53EEEEELb1EEaSEOS5_
FNDA:0,_ZN11MetaPhysicL10DualNumberIdNS_28SemiDynamicSparseNumberArrayIdmNS_8NWrapperILm53EEEEELb1EEaSEOS5_
FN:136,_ZN11MetaPhysicL10DualNumberIdNS_28SemiDynamicSparseNumberArrayIdmNS_8NWrapperILm53EEEEELb1EEC2ERKS5_
FNDA:0,_ZN11MetaPhysicL10DualNumberIdNS_28SemiDynamicSparseNumberArrayIdmNS_8NWrapperILm53EEEEELb1EEC2ERKS5_
FN:145,_ZN11MetaPhysicL10DualNumberIdNS_28SemiDynamicSparseNumberArrayIdmNS_8NWrapperILm53EEEEELb1EEC2EOS5_
FNDA:140006,_ZN11MetaPhysicL10DualNumberIdNS_28SemiDynamicSparseNumberArrayIdmNS_8NWrapperILm53EEEEELb1EEC2EOS5_
FN:187,_ZN11MetaPhysicL10DualNumberIdNS_28SemiDynamicSparseNumberArrayIdmNS_8NWrapperILm53EEEEELb1EEaSIiEERS5_RKT_
FNDA:0,_ZN11MetaPhysicL10DualNumberIdNS_28SemiDynamicSparseNumberArrayIdmNS_8NWrapperILm53EEEEELb1EEaSIiEERS5_RKT_
FN:187,_ZN11MetaPhysicL10DualNumberIdNS_28SemiDynamicSparseNumberArrayIdmNS_8NWrapperILm53EEEEELb1EEaSIdEERS5_RKT_
FNDA:1256470,_ZN11MetaPhysicL10DualNumberIdNS_28SemiDynamicSparseNumberArrayIdmNS_8NWrapperILm53EEEEELb1EEaSIdEERS5_RKT_
FN:214,_ZN11MetaPhysicL10DualNumberIdNS_28SemiDynamicSparseNumberArrayIdmNS_8NWrapperILm53EEEEELb1EEC2IdEERKT_NSt9enable_ifIXsrSt14is_convertibleIS7_dE5valueEPvE4typeE
FNDA:8183910,_ZN11MetaPhysicL10DualNumberIdNS_28SemiDynamicSparseNumberArrayIdmNS_8NWrapperILm53EEEEELb1EEC2IdEERKT_NSt9enable_ifIXsrSt14is_convertibleIS7_dE5valueEPvE4typeE
FN:214,_ZN11MetaPhysicL10DualNumberIdNS_28SemiDynamicSparseNumberArrayIdmNS_8NWrapperILm53EEEEELb1EEC2IiEERKT_NSt9enable_ifIXsrSt14is_convertibleIS7_dE5valueEPvE4typeE
FNDA:7369660,_ZN11MetaPhysicL10DualNumberIdNS_28SemiDynamicSparseNumberArrayIdmNS_8NWrapperILm53EEEEELb1EEC2IiEERKT_NSt9enable_ifIXsrSt14is_convertibleIS7_dE5valueEPvE4typeE
FN:224,_ZN11MetaPhysicL10DualNumberIdNS_28SemiDynamicSparseNumberArrayIdmNS_8NWrapperILm53EEEEELb1EEC2IdS4_EERKT_RKT0_
FNDA:398,_ZN11MetaPhysicL10DualNumberIdNS_28SemiDynamicSparseNumberArrayIdmNS_8NWrapperILm53EEEEELb1EEC2IdS4_EERKT_RKT0_
FN:259,_ZN11MetaPhysicL26derivative_multiply_helperIdNS_28SemiDynamicSparseNumberArrayIdmNS_8NWrapperILm53EEEEELb1EEEvRNS_10DualNumberIT_T0_XT1_EEERKS8_
FNDA:0,_ZN11MetaPhysicL26derivative_multiply_helperIdNS_28SemiDynamicSparseNumberArrayIdmNS_8NWrapperILm53EEEEELb1EEEvRNS_10DualNumberIT_T0_XT1_EEERKS8_
FN:310,_ZN11MetaPhysicL26derivative_division_helperIdNS_28SemiDynamicSparseNumberArrayIdmNS_8NWrapperILm53EEEEELb1EEEvRNS_10DualNumberIT_T0_XT1_EEERKS8_
FNDA:0,_ZN11MetaPhysicL26derivative_division_helperIdNS_28SemiDynamicSparseNumberArrayIdmNS_8NWrapperILm53EEEEELb1EEEvRNS_10DualNumberIT_T0_XT1_EEERKS8_
FN:464,_ZN11MetaPhysicL10DualNumberIdNS_28SemiDynamicSparseNumberArrayIdmNS_8NWrapperILm53EEEEELb1EEpLIdS4_EERS5_RKNS0_IT_T0_Lb1EEE
FNDA:0,_ZN11MetaPhysicL10DualNumberIdNS_28SemiDynamicSparseNumberArrayIdmNS_8NWrapperILm53EEEEELb1EEpLIdS4_EERS5_RKNS0_IT_T0_Lb1EEE
FN:466,_ZN11MetaPhysicL10DualNumberIdNS_28SemiDynamicSparseNumberArrayIdmNS_8NWrapperILm53EEEEELb1EEmIIdS4_EERS5_RKNS0_IT_T0_Lb1EEE
FNDA:398,_ZN11MetaPhysicL10DualNumberIdNS_28SemiDynamicSparseNumberArrayIdmNS_8NWrapperILm53EEEEELb1EEmIIdS4_EERS5_RKNS0_IT_T0_Lb1EEE
FN:468,_ZN11MetaPhysicL10DualNumberIdNS_28SemiDynamicSparseNumberArrayIdmNS_8NWrapperILm53EEEEELb1EEmLIdS4_EERS5_RKNS0_IT_T0_Lb1EEE
FNDA:10215600,_ZN11MetaPhysicL10DualNumberIdNS_28SemiDynamicSparseNumberArrayIdmNS_8NWrapperILm53EEEEELb1EEmLIdS4_EERS5_RKNS0_IT_T0_Lb1EEE
FN:468,_ZN11MetaPhysicL10DualNumberIdNS_28SemiDynamicSparseNumberArrayIdmNS_8NWrapperILm53EEEEELb1EEmLIdEERS5_RKT_
FNDA:0,_ZN11MetaPhysicL10DualNumberIdNS_28SemiDynamicSparseNumberArrayIdmNS_8NWrapperILm53EEEEELb1EEmLIdEERS5_RKT_
FN:473,_ZN11MetaPhysicL10DualNumberIdNS_28SemiDynamicSparseNumberArrayIdmNS_8NWrapperILm53EEEEELb1EEdVIiEERS5_RKT_
FNDA:1828660,_ZN11MetaPhysicL10DualNumberIdNS_28SemiDynamicSparseNumberArrayIdmNS_8NWrapperILm53EEEEELb1EEdVIiEERS5_RKT_
FN:473,_ZN11MetaPhysicL10DualNumberIdNS_28SemiDynamicSparseNumberArrayIdmNS_8NWrapperILm53EEEEELb1EEdVIdS4_EERS5_RKNS0_IT_T0_Lb1EEE
FNDA:0,_ZN11MetaPhysicL10DualNumberIdNS_28SemiDynamicSparseNumberArrayIdmNS_8NWrapperILm53EEEEELb1EEdVIdS4_EERS5_RKNS0_IT_T0_Lb1EEE
FN:627,_ZSt4sqrtIdN11MetaPhysicL28SemiDynamicSparseNumberArrayIdmNS0_8NWrapperILm53EEEEELb1EENS0_10DualNumberIT_T0_XT1_EEEOS8_
FNDA:139608,_ZSt4sqrtIdN11MetaPhysicL28SemiDynamicSparseNumberArrayIdmNS0_8NWrapperILm53EEEEELb1EENS0_10DualNumberIT_T0_XT1_EEEOS8_
FNF:19
FNH:10
DA:48,0
DA:53,0
DA:63,199
DA:73,398
DA:97,0
DA:99,0
DA:101,0
DA:104,0
DA:110,0
DA:112,0
DA:114,0
DA:117,0
DA:136,0
DA:137,0
DA:139,0
DA:141,0
DA:145,140006
DA:146,140006
DA:148,140006
DA:150,140006
DA:187,1256470
DA:189,1256470
DA:190,1256470
DA:191,813240
DA:192,1256470
DA:187,0
DA:189,0
DA:190,0
DA:191,0
DA:192,0
DA:214,7369660
DA:215,7369660
DA:217,7369660
DA:218,4437280
DA:219,7369660
DA:214,8183910
DA:215,8183910
DA:217,8183910
DA:218,4945090
DA:219,8183910
DA:224,398
DA:226,398
DA:228,398
DA:229,199
DA:230,398
DA:259,0
DA:262,0
DA:265,0
DA:266,0
DA:269,0
DA:270,0
DA:310,0
DA:313,0
DA:316,0
DA:317,0
DA:318,0
DA:321,0
DA:322,0
DA:464,6809330
DA:466,4702250
DA:468,0
DA:468,10215600
DA:468,26221600
DA:473,0
DA:473,1828660
DA:473,1828660
DA:510,139608
DA:627,229968
LF:68
LH:34
end_of_record
SF:/home/runner/work/raccoon/raccoon/build/header_symlinks/SmallDeformationIsotropicElasticity.h
LF:0
LH:0
end_of_record
SF:/usr/share/miniconda/envs/moose/x86_64-conda-linux-gnu/include/c++/10.3.0/initializer_list
DA:71,0
DA:79,0
LF:2
LH:0
end_of_record
SF:/usr/share/miniconda/envs/moose/x86_64-conda-linux-gnu/include/c++/10.3.0/bits/unordered_map.h
DA:102,0
DA:984,0
LF:2
LH:0
end_of_record
SF:/usr/share/miniconda/envs/moose/libmesh/include/libmesh/remote_elem.h
FN:119,_ZNK7libMesh10RemoteElem7n_nodesEv
FNDA:0,_ZNK7libMesh10RemoteElem7n_nodesEv
FN:122,_ZNK7libMesh10RemoteElem7n_sidesEv
FNDA:0,_ZNK7libMesh10RemoteElem7n_sidesEv
FN:137,_ZNK7libMesh10RemoteElem9is_vertexEj
FNDA:0,_ZNK7libMesh10RemoteElem9is_vertexEj
FN:204,_ZNK7libMesh10RemoteElem13default_orderEv
FNDA:0,_ZNK7libMesh10RemoteElem13default_orderEv
FNF:4
FNH:0
DA:119,0
DA:120,0
DA:122,0
DA:123,0
DA:137,0
DA:138,0
DA:204,0
DA:205,0
LF:8
LH:0
end_of_record
SF:/home/runner/work/raccoon/raccoon/moose/framework/build/header_symlinks/MooseArray.h
FN:213,_ZN10MooseArrayI18RankTwoTensorTemplIN11MetaPhysicL10DualNumberIdNS1_28SemiDynamicSparseNumberArrayIdmNS1_8NWrapperILm53EEEEELb1EEEEE6resizeILb1EEEvj
FNDA:0,_ZN10MooseArrayI18RankTwoTensorTemplIN11MetaPhysicL10DualNumberIdNS1_28SemiDynamicSparseNumberArrayIdmNS1_8NWrapperILm53EEEEELb1EEEEE6resizeILb1EEEvj
FN:213,_ZN10MooseArrayIN11MetaPhysicL10DualNumberIdNS0_28SemiDynamicSparseNumberArrayIdmNS0_8NWrapperILm53EEEEELb1EEEE6resizeILb1EEEvj
FNDA:0,_ZN10MooseArrayIN11MetaPhysicL10DualNumberIdNS0_28SemiDynamicSparseNumberArrayIdmNS0_8NWrapperILm53EEEEELb1EEEE6resizeILb1EEEvj
FN:213,_ZN10MooseArrayI18RankTwoTensorTemplIdEE6resizeILb1EEEvj
FNDA:0,_ZN10MooseArrayI18RankTwoTensorTemplIdEE6resizeILb1EEEvj
FN:213,_ZN10MooseArrayIdE6resizeILb1EEEvj
FNDA:0,_ZN10MooseArrayIdE6resizeILb1EEEvj
FN:213,_ZN10MooseArrayIN7libMesh11VectorValueIdEEE6resizeILb1EEEvj
FNDA:0,_ZN10MooseArrayIN7libMesh11VectorValueIdEEE6resizeILb1EEEvj
FN:213,_ZN10MooseArrayIN7libMesh11VectorValueIN11MetaPhysicL10DualNumberIdNS2_28SemiDynamicSparseNumberArrayIdmNS2_8NWrapperILm53EEEEELb1EEEEEE6resizeILb1EEEvj
FNDA:0,_ZN10MooseArrayIN7libMesh11VectorValueIN11MetaPhysicL10DualNumberIdNS2_28SemiDynamicSparseNumberArrayIdmNS2_8NWrapperILm53EEEEELb1EEEEEE6resizeILb1EEEvj
FNF:6
FNH:0
DA:25,0
DA:55,0
DA:213,0
DA:215,0
DA:216,0
DA:220,0
DA:225,0
DA:226,0
DA:227,0
DA:229,0
DA:213,0
DA:215,0
DA:216,0
DA:220,0
DA:225,0
DA:226,0
DA:227,0
DA:229,0
DA:213,0
DA:215,0
DA:216,0
DA:220,0
DA:225,0
DA:226,0
DA:227,0
DA:229,0
DA:213,0
DA:215,0
DA:216,0
DA:220,0
DA:225,0
DA:226,0
DA:227,0
DA:229,0
DA:213,0
DA:215,0
DA:216,0
DA:220,0
DA:225,0
DA:226,0
DA:227,0
DA:229,0
DA:213,0
DA:215,0
DA:216,0
DA:220,0
DA:225,0
DA:226,0
DA:227,0
DA:229,0
DA:259,0
DA:269,18177000
DA:279,32666000
LF:53
LH:2
end_of_record
SF:/home/runner/work/raccoon/raccoon/moose/framework/build/header_symlinks/MooseObject.h
FN:63,_ZNK11MooseObject4nameB5cxx11Ev
FNDA:0,_ZNK11MooseObject4nameB5cxx11Ev
FN:116,_ZNK11MooseObject7enabledEv
FNDA:0,_ZNK11MooseObject7enabledEv
FN:150,_ZNK11MooseObject10mooseErrorIJRA60_KcEEEvDpOT_
FNDA:0,_ZNK11MooseObject10mooseErrorIJRA60_KcEEEvDpOT_
FN:150,_ZNK11MooseObject10mooseErrorIJRA117_KcEEEvDpOT_
FNDA:0,_ZNK11MooseObject10mooseErrorIJRA117_KcEEEvDpOT_
FN:150,_ZNK11MooseObject10mooseErrorIJRA105_KcEEEvDpOT_
FNDA:0,_ZNK11MooseObject10mooseErrorIJRA105_KcEEEvDpOT_
FN:226,_ZNK11MooseObject13paramErrorMsgIJPKcEEENSt7__cxx1112basic_stringIcSt11char_traitsIcESaIcEEERKS8_DpT_
FNDA:0,_ZNK11MooseObject13paramErrorMsgIJPKcEEENSt7__cxx1112basic_stringIcSt11char_traitsIcESaIcEEERKS8_DpT_
FN:226,_ZNK11MooseObject13paramErrorMsgIJNSt7__cxx1112basic_stringIcSt11char_traitsIcESaIcEEEEEES6_RKS6_DpT_
FNDA:0,_ZNK11MooseObject13paramErrorMsgIJNSt7__cxx1112basic_stringIcSt11char_traitsIcESaIcEEEEEES6_RKS6_DpT_
FN:262,_ZNK11MooseObject10paramErrorIJPKcEEEvRKNSt7__cxx1112basic_stringIcSt11char_traitsIcESaIcEEEDpT_
FNDA:0,_ZNK11MooseObject10paramErrorIJPKcEEEvRKNSt7__cxx1112basic_stringIcSt11char_traitsIcESaIcEEEDpT_
FN:262,_ZNK11MooseObject10paramErrorIJNSt7__cxx1112basic_stringIcSt11char_traitsIcESaIcEEEEEEvRKS6_DpT_
FNDA:0,_ZNK11MooseObject10paramErrorIJNSt7__cxx1112basic_stringIcSt11char_traitsIcESaIcEEEEEEvRKS6_DpT_
FNF:9
FNH:0
DA:63,0
DA:75,54
DA:106,42
DA:116,0
DA:150,0
DA:152,0
DA:153,0
DA:155,0
DA:150,0
DA:152,0
DA:153,0
DA:155,0
DA:150,0
DA:152,0
DA:153,0
DA:155,0
DA:226,0
DA:228,0
DA:231,0
DA:232,0
DA:234,0
DA:235,0
DA:242,0
DA:243,0
DA:245,0
DA:247,0
DA:249,0
DA:226,0
DA:228,0
DA:231,0
DA:232,0
DA:234,0
DA:235,0
DA:242,0
DA:243,0
DA:245,0
DA:247,0
DA:249,0
DA:257,84
DA:262,0
DA:264,0
DA:265,0
DA:266,0
DA:262,0
DA:264,0
DA:265,0
DA:266,0
LF:47
LH:3
end_of_record
SF:/usr/share/miniconda/envs/moose/x86_64-conda-linux-gnu/include/c++/10.3.0/ext/atomicity.h
DA:50,0
DA:68,0
DA:69,0
DA:83,0
DA:84,0
DA:86,0
LF:6
LH:0
end_of_record
SF:/home/runner/work/raccoon/raccoon/build/header_symlinks/ComputeSmallDeformationStress.h
LF:0
LH:0
end_of_record
SF:/home/runner/work/raccoon/raccoon/src/materials/small_deformation_models/SmallDeformationJ2Plasticity.C
FN:10,_ZN28SmallDeformationJ2Plasticity11validParamsEv
FNDA:163,_ZN28SmallDeformationJ2Plasticity11validParamsEv
FN:18,_ZN28SmallDeformationJ2PlasticityC2ERK15InputParameters
FNDA:6,_ZN28SmallDeformationJ2PlasticityC2ERK15InputParameters
FN:24,_ZN28SmallDeformationJ2Plasticity11updateStateER18RankTwoTensorTemplIN11MetaPhysicL10DualNumberIdNS1_28SemiDynamicSparseNumberArrayIdmNS1_8NWrapperILm53EEEEELb1EEEES9_
FNDA:139608,_ZN28SmallDeformationJ2Plasticity11updateStateER18RankTwoTensorTemplIN11MetaPhysicL10DualNumberIdNS1_28SemiDynamicSparseNumberArrayIdmNS1_8NWrapperILm53EEEEELb1EEEES9_
FN:55,_ZN28SmallDeformationJ2Plasticity24computeReferenceResidualERKN11MetaPhysicL10DualNumberIdNS0_28SemiDynamicSparseNumberArrayIdmNS0_8NWrapperILm53EEEEELb1EEES8_
FNDA:398,_ZN28SmallDeformationJ2Plasticity24computeReferenceResidualERKN11MetaPhysicL10DualNumberIdNS0_28SemiDynamicSparseNumberArrayIdmNS0_8NWrapperILm53EEEEELb1EEES8_
FN:64,_ZN28SmallDeformationJ2Plasticity15computeResidualERKN11MetaPhysicL10DualNumberIdNS0_28SemiDynamicSparseNumberArrayIdmNS0_8NWrapperILm53EEEEELb1EEES8_
FNDA:140006,_ZN28SmallDeformationJ2Plasticity15computeResidualERKN11MetaPhysicL10DualNumberIdNS0_28SemiDynamicSparseNumberArrayIdmNS0_8NWrapperILm53EEEEELb1EEES8_
FN:73,_ZN28SmallDeformationJ2Plasticity17computeDerivativeERKN11MetaPhysicL10DualNumberIdNS0_28SemiDynamicSparseNumberArrayIdmNS0_8NWrapperILm53EEEEELb1EEES8_
FNDA:398,_ZN28SmallDeformationJ2Plasticity17computeDerivativeERKN11MetaPhysicL10DualNumberIdNS0_28SemiDynamicSparseNumberArrayIdmNS0_8NWrapperILm53EEEEELb1EEES8_
FNF:6
FNH:6
DA:10,163
DA:12,163
DA:13,163
DA:15,163
DA:18,6
DA:19,6
DA:21,6
DA:24,139608
DA:28,139608
DA:29,139608
DA:30,139608
DA:34,139608
DA:35,139608
DA:36,139608
DA:37,49268
DA:38,279216
DA:39,279216
DA:42,139608
DA:43,139608
DA:44,134
DA:45,279216
DA:46,139608
DA:49,279216
DA:50,139608
DA:51,139608
DA:52,139608
DA:55,398
DA:59,398
DA:60,1194
DA:64,140006
DA:67,140006
DA:68,420018
DA:69,420018
DA:73,398
DA:76,398
DA:77,796
LF:36
LH:36
end_of_record
SF:/home/runner/work/raccoon/raccoon/moose/framework/build/header_symlinks/Restartable.h
FN:64,_ZN11RestartableD0Ev
FNDA:0,_ZN11RestartableD0Ev
FN:64,_ZN11RestartableD2Ev
FNDA:0,_ZN11RestartableD2Ev
FNF:2
FNH:0
DA:64,0
DA:64,0
LF:2
LH:0
end_of_record
SF:/usr/share/miniconda/envs/moose/libmesh/include/metaphysicl/dynamicsparsenumberbase_decl.h
FN:71,_ZN11MetaPhysicL23DynamicSparseNumberBaseINS_22DynamicStdArrayWrapperIdNS_8NWrapperILm53EEEEENS1_ImS3_EENS_28SemiDynamicSparseNumberArrayEJdmS3_EEC2EOS7_
FNDA:0,_ZN11MetaPhysicL23DynamicSparseNumberBaseINS_22DynamicStdArrayWrapperIdNS_8NWrapperILm53EEEEENS1_ImS3_EENS_28SemiDynamicSparseNumberArrayEJdmS3_EEC2EOS7_
FN:74,_ZN11MetaPhysicL23DynamicSparseNumberBaseINS_22DynamicStdArrayWrapperIdNS_8NWrapperILm53EEEEENS1_ImS3_EENS_28SemiDynamicSparseNumberArrayEJdmS3_EEaSEOS7_
FNDA:10286400,_ZN11MetaPhysicL23DynamicSparseNumberBaseINS_22DynamicStdArrayWrapperIdNS_8NWrapperILm53EEEEENS1_ImS3_EENS_28SemiDynamicSparseNumberArrayEJdmS3_EEaSEOS7_
FN:78,_ZN11MetaPhysicL23DynamicSparseNumberBaseINS_22DynamicStdArrayWrapperIdNS_8NWrapperILm53EEEEENS1_ImS3_EENS_28SemiDynamicSparseNumberArrayEJdmS3_EEC2ERKS7_
FNDA:199,_ZN11MetaPhysicL23DynamicSparseNumberBaseINS_22DynamicStdArrayWrapperIdNS_8NWrapperILm53EEEEENS1_ImS3_EENS_28SemiDynamicSparseNumberArrayEJdmS3_EEC2ERKS7_
FN:80,_ZN11MetaPhysicL23DynamicSparseNumberBaseINS_22DynamicStdArrayWrapperIdNS_8NWrapperILm53EEEEENS1_ImS3_EENS_28SemiDynamicSparseNumberArrayEJdmS3_EEaSERKS7_
FNDA:0,_ZN11MetaPhysicL23DynamicSparseNumberBaseINS_22DynamicStdArrayWrapperIdNS_8NWrapperILm53EEEEENS1_ImS3_EENS_28SemiDynamicSparseNumberArrayEJdmS3_EEaSERKS7_
FNF:4
FNH:2
DA:71,0
DA:74,10286400
DA:78,199
DA:80,0
LF:4
LH:2
end_of_record
SF:/home/runner/work/raccoon/raccoon/moose/framework/build/header_symlinks/InputParameters.h
FN:52,_ZN15InputParametersD2Ev
FNDA:0,_ZN15InputParametersD2Ev
FN:52,_ZN15InputParametersD0Ev
FNDA:0,_ZN15InputParametersD0Ev
FN:930,_ZNK15InputParameters2atERKNSt7__cxx1112basic_stringIcSt11char_traitsIcESaIcEEE
FNDA:0,_ZNK15InputParameters2atERKNSt7__cxx1112basic_stringIcSt11char_traitsIcESaIcEEE
FN:1029,_ZN15InputParameters3setI20MaterialPropertyNameEERT_RKNSt7__cxx1112basic_stringIcSt11char_traitsIcESaIcEEEb
FNDA:0,_ZN15InputParameters3setI20MaterialPropertyNameEERT_RKNSt7__cxx1112basic_stringIcSt11char_traitsIcESaIcEEEb
FN:1029,_ZN15InputParameters3setIbEERT_RKNSt7__cxx1112basic_stringIcSt11char_traitsIcESaIcEEEb
FNDA:0,_ZN15InputParameters3setIbEERT_RKNSt7__cxx1112basic_stringIcSt11char_traitsIcESaIcEEEb
FN:1029,_ZN15InputParameters3setI9MooseEnumEERT_RKNSt7__cxx1112basic_stringIcSt11char_traitsIcESaIcEEEb
FNDA:0,_ZN15InputParameters3setI9MooseEnumEERT_RKNSt7__cxx1112basic_stringIcSt11char_traitsIcESaIcEEEb
FN:1228,_ZN15InputParameters16addRequiredParamI20MaterialPropertyNameEEvRKNSt7__cxx1112basic_stringIcSt11char_traitsIcESaIcEEES9_
FNDA:0,_ZN15InputParameters16addRequiredParamI20MaterialPropertyNameEEvRKNSt7__cxx1112basic_stringIcSt11char_traitsIcESaIcEEES9_
FN:1228,_ZN15InputParameters16addRequiredParamI12MaterialNameEEvRKNSt7__cxx1112basic_stringIcSt11char_traitsIcESaIcEEES9_
FNDA:0,_ZN15InputParameters16addRequiredParamI12MaterialNameEEvRKNSt7__cxx1112basic_stringIcSt11char_traitsIcESaIcEEES9_
FN:1250,_ZN15InputParameters8addParamI20MaterialPropertyNameA5_cEEvRKNSt7__cxx1112basic_stringIcSt11char_traitsIcESaIcEEERKT0_SA_
FNDA:0,_ZN15InputParameters8addParamI20MaterialPropertyNameA5_cEEvRKNSt7__cxx1112basic_stringIcSt11char_traitsIcESaIcEEERKT0_SA_
FN:1250,_ZN15InputParameters8addParamI20MaterialPropertyNameA2_cEEvRKNSt7__cxx1112basic_stringIcSt11char_traitsIcESaIcEEERKT0_SA_
FNDA:0,_ZN15InputParameters8addParamI20MaterialPropertyNameA2_cEEvRKNSt7__cxx1112basic_stringIcSt11char_traitsIcESaIcEEERKT0_SA_
FN:1250,_ZN15InputParameters8addParamI9MooseEnumS1_EEvRKNSt7__cxx1112basic_stringIcSt11char_traitsIcESaIcEEERKT0_S9_
FNDA:0,_ZN15InputParameters8addParamI9MooseEnumS1_EEvRKNSt7__cxx1112basic_stringIcSt11char_traitsIcESaIcEEERKT0_S9_
FN:1269,_ZN15InputParameters8addParamI12MaterialNameEEvRKNSt7__cxx1112basic_stringIcSt11char_traitsIcESaIcEEES9_
FNDA:0,_ZN15InputParameters8addParamI12MaterialNameEEvRKNSt7__cxx1112basic_stringIcSt11char_traitsIcESaIcEEES9_
FN:1280,_ZN15InputParameters14setParamHelperI20MaterialPropertyNameA2_cEEvRKNSt7__cxx1112basic_stringIcSt11char_traitsIcESaIcEEERT_RKT0_
FNDA:0,_ZN15InputParameters14setParamHelperI20MaterialPropertyNameA2_cEEvRKNSt7__cxx1112basic_stringIcSt11char_traitsIcESaIcEEERT_RKT0_
FN:1280,_ZN15InputParameters14setParamHelperI20MaterialPropertyNameA5_cEEvRKNSt7__cxx1112basic_stringIcSt11char_traitsIcESaIcEEERT_RKT0_
FNDA:0,_ZN15InputParameters14setParamHelperI20MaterialPropertyNameA5_cEEvRKNSt7__cxx1112basic_stringIcSt11char_traitsIcESaIcEEERT_RKT0_
FN:1403,_ZNK15InputParameters19checkConsistentTypeI12MaterialNameEEvRKNSt7__cxx1112basic_stringIcSt11char_traitsIcESaIcEEE
FNDA:0,_ZNK15InputParameters19checkConsistentTypeI12MaterialNameEEvRKNSt7__cxx1112basic_stringIcSt11char_traitsIcESaIcEEE
FN:1403,_ZNK15InputParameters19checkConsistentTypeIbEEvRKNSt7__cxx1112basic_stringIcSt11char_traitsIcESaIcEEE
FNDA:0,_ZNK15InputParameters19checkConsistentTypeIbEEvRKNSt7__cxx1112basic_stringIcSt11char_traitsIcESaIcEEE
FN:1403,_ZNK15InputParameters19checkConsistentTypeI20MaterialPropertyNameEEvRKNSt7__cxx1112basic_stringIcSt11char_traitsIcESaIcEEE
FNDA:0,_ZNK15InputParameters19checkConsistentTypeI20MaterialPropertyNameEEvRKNSt7__cxx1112basic_stringIcSt11char_traitsIcESaIcEEE
FN:1403,_ZNK15InputParameters19checkConsistentTypeI9MooseEnumEEvRKNSt7__cxx1112basic_stringIcSt11char_traitsIcESaIcEEE
FNDA:0,_ZNK15InputParameters19checkConsistentTypeI9MooseEnumEEvRKNSt7__cxx1112basic_stringIcSt11char_traitsIcESaIcEEE
FN:1419,_ZN15InputParameters17suppressParameterIbEEvRKNSt7__cxx1112basic_stringIcSt11char_traitsIcESaIcEEE
FNDA:0,_ZN15InputParameters17suppressParameterIbEEvRKNSt7__cxx1112basic_stringIcSt11char_traitsIcESaIcEEE
FN:1578,_ZN15InputParameters14getParamHelperIbEERKT_RKNSt7__cxx1112basic_stringIcSt11char_traitsIcESaIcEEERKS_PS2_
FNDA:42,_ZN15InputParameters14getParamHelperIbEERKT_RKNSt7__cxx1112basic_stringIcSt11char_traitsIcESaIcEEERKS_PS2_
FN:1685,_ZN5moose8internal15callValidParamsI28SmallDeformationJ2PlasticityEE15InputParametersv
FNDA:163,_ZN5moose8internal15callValidParamsI28SmallDeformationJ2PlasticityEE15InputParametersv
FN:1685,_ZN5moose8internal15callValidParamsI29ComputeSmallDeformationStressEE15InputParametersv
FNDA:211,_ZN5moose8internal15callValidParamsI29ComputeSmallDeformationStressEE15InputParametersv
FN:1685,_ZN5moose8internal15callValidParamsI35SmallDeformationIsotropicElasticityEE15InputParametersv
FNDA:211,_ZN5moose8internal15callValidParamsI35SmallDeformationIsotropicElasticityEE15InputParametersv
FNF:23
FNH:4
DA:52,0
DA:52,0
DA:799,0
DA:930,0
DA:933,0
DA:934,0
DA:1029,0
DA:1031,0
DA:1032,0
DA:1034,0
DA:1035,0
DA:1037,0
DA:1039,0
DA:1040,0
DA:1044,0
DA:1029,0
DA:1031,0
DA:1032,0
DA:1034,0
DA:1035,0
DA:1037,0
DA:1039,0
DA:1040,0
DA:1044,0
DA:1029,0
DA:1031,0
DA:1032,0
DA:1034,0
DA:1035,0
DA:1037,0
DA:1039,0
DA:1040,0
DA:1044,0
DA:1228,0
DA:1230,0
DA:1231,0
DA:1233,0
DA:1234,0
DA:1235,0
DA:1236,0
DA:1228,0
DA:1230,0
DA:1231,0
DA:1233,0
DA:1234,0
DA:1235,0
DA:1236,0
DA:1250,0
DA:1252,0
DA:1253,0
DA:1255,0
DA:1256,0
DA:1264,0
DA:1265,0
DA:1250,0
DA:1252,0
DA:1253,0
DA:1255,0
DA:1256,0
DA:1259,0
DA:1264,0
DA:1265,0
DA:1250,0
DA:1252,0
DA:1253,0
DA:1255,0
DA:1256,0
DA:1259,0
DA:1264,0
DA:1265,0
DA:1269,0
DA:1271,0
DA:1272,0
DA:1274,0
DA:1275,0
DA:1276,0
DA:1280,0
DA:1282,0
DA:1283,0
DA:1280,0
DA:1282,0
DA:1283,0
DA:1282,0
DA:1403,0
DA:1407,0
DA:1408,0
DA:1413,0
DA:1415,0
DA:1403,0
DA:1407,0
DA:1408,0
DA:1413,0
DA:1415,0
DA:1403,0
DA:1407,0
DA:1408,0
DA:1413,0
DA:1415,0
DA:1403,0
DA:1407,0
DA:1408,0
DA:1413,0
DA:1415,0
DA:1419,0
DA:1421,0
DA:1422,0
DA:1424,0
DA:1425,0
DA:1426,0
DA:1427,0
DA:1578,42
DA:1580,42
DA:1581,0
DA:1583,42
DA:1660,585
DA:1665,585
DA:1685,163
DA:1687,163
DA:1685,211
DA:1687,211
DA:1685,211
DA:1687,211
LF:122
LH:11
end_of_record
SF:/usr/share/miniconda/envs/moose/x86_64-conda-linux-gnu/include/c++/10.3.0/bits/basic_string.h
FN:525,_ZNSt7__cxx1112basic_stringIcSt11char_traitsIcESaIcEEC2IS3_EEPKcRKS3_
FNDA:7028,_ZNSt7__cxx1112basic_stringIcSt11char_traitsIcESaIcEEC2IS3_EEPKcRKS3_
FN:1470,_ZNSt7__cxx1112basic_stringIcSt11char_traitsIcESaIcEE6assignIPcvEERS4_T_S8_
FNDA:0,_ZNSt7__cxx1112basic_stringIcSt11char_traitsIcESaIcEE6assignIPcvEERS4_T_S8_
FN:6032,_ZStplIcSt11char_traitsIcESaIcEENSt7__cxx1112basic_stringIT_T0_T1_EERKS8_SA_
FNDA:0,_ZStplIcSt11char_traitsIcESaIcEENSt7__cxx1112basic_stringIT_T0_T1_EERKS8_SA_
FN:6069,_ZStplIcSt11char_traitsIcESaIcEENSt7__cxx1112basic_stringIT_T0_T1_EERKS8_PKS5_
FNDA:42,_ZStplIcSt11char_traitsIcESaIcEENSt7__cxx1112basic_stringIT_T0_T1_EERKS8_PKS5_
FN:6097,_ZStplIcSt11char_traitsIcESaIcEENSt7__cxx1112basic_stringIT_T0_T1_EEOS8_RKS8_
FNDA:0,_ZStplIcSt11char_traitsIcESaIcEENSt7__cxx1112basic_stringIT_T0_T1_EEOS8_RKS8_
FN:6109,_ZStplIcSt11char_traitsIcESaIcEENSt7__cxx1112basic_stringIT_T0_T1_EEOS8_S9_
FNDA:0,_ZStplIcSt11char_traitsIcESaIcEENSt7__cxx1112basic_stringIT_T0_T1_EEOS8_S9_
FN:6143,_ZStplIcSt11char_traitsIcESaIcEENSt7__cxx1112basic_stringIT_T0_T1_EEOS8_PKS5_
FNDA:0,_ZStplIcSt11char_traitsIcESaIcEENSt7__cxx1112basic_stringIT_T0_T1_EEOS8_PKS5_
FNF:7
FNH:2
DA:156,7028
DA:157,7028
DA:159,0
DA:160,0
DA:179,4194
DA:183,7196
DA:187,14392
DA:193,0
DA:203,0
DA:211,4194
DA:217,7196
DA:247,7028
DA:393,168
DA:398,7028
DA:431,0
DA:525,7028
DA:527,7028
DA:552,0
DA:555,0
DA:563,0
DA:572,0
DA:658,4995
DA:667,0
DA:814,0
DA:902,0
DA:908,0
DA:966,0
DA:1041,0
DA:1149,0
DA:1193,0
DA:1366,0
DA:1470,0
DA:1471,0
DA:1640,0
DA:6032,0
DA:6035,0
DA:6037,0
DA:6069,42
DA:6072,42
DA:6073,42
DA:6074,42
DA:6097,0
DA:6099,0
DA:6109,0
DA:6122,0
DA:6123,0
DA:6143,0
DA:6145,0
DA:6280,0
DA:6473,0
LF:50
LH:17
end_of_record
SF:/usr/share/miniconda/envs/moose/libmesh/include/libmesh/dof_object.h
DA:787,0
LF:1
LH:0
end_of_record
SF:/usr/share/miniconda/envs/moose/libmesh/include/libmesh/tensor_value.h
DA:261,139608
DA:262,139608
DA:304,6272880
DA:305,9985220
LF:4
LH:4
end_of_record
SF:/home/runner/work/raccoon/raccoon/build/header_symlinks/BaseNameInterface.h
FN:15,_ZN17BaseNameInterfaceD0Ev
FNDA:0,_ZN17BaseNameInterfaceD0Ev
FN:15,_ZN17BaseNameInterfaceD2Ev
FNDA:0,_ZN17BaseNameInterfaceD2Ev
FNF:2
FNH:0
DA:15,0
DA:15,0
DA:15,0
LF:3
LH:0
end_of_record
SF:/home/runner/work/raccoon/raccoon/moose/framework/build/header_symlinks/MaterialData.h
FN:276,_ZN12MaterialData11resizePropsIdEEvj
FNDA:0,_ZN12MaterialData11resizePropsIdEEvj
FN:276,_ZN12MaterialData11resizePropsI18RankTwoTensorTemplIdEEEvj
FNDA:0,_ZN12MaterialData11resizePropsI18RankTwoTensorTemplIdEEEvj
FN:296,_ZN12MaterialData13resizePropsADI18RankTwoTensorTemplIdEEEvj
FNDA:0,_ZN12MaterialData13resizePropsADI18RankTwoTensorTemplIdEEEvj
FN:296,_ZN12MaterialData13resizePropsADIdEEvj
FNDA:0,_ZN12MaterialData13resizePropsADIdEEvj
FN:323,_ZN12MaterialData17declareADPropertyIdEER18ADMaterialPropertyIT_ERKNSt7__cxx1112basic_stringIcSt11char_traitsIcESaIcEEE
FNDA:0,_ZN12MaterialData17declareADPropertyIdEER18ADMaterialPropertyIT_ERKNSt7__cxx1112basic_stringIcSt11char_traitsIcESaIcEEE
FN:323,_ZN12MaterialData17declareADPropertyI18RankTwoTensorTemplIdEEER18ADMaterialPropertyIT_ERKNSt7__cxx1112basic_stringIcSt11char_traitsIcESaIcEEE
FNDA:0,_ZN12MaterialData17declareADPropertyI18RankTwoTensorTemplIdEEER18ADMaterialPropertyIT_ERKNSt7__cxx1112basic_stringIcSt11char_traitsIcESaIcEEE
FN:346,_ZN12MaterialData13declareHelperIdEER16MaterialPropertyIT_ER18MaterialPropertiesRKNSt7__cxx1112basic_stringIcSt11char_traitsIcESaIcEEEj
FNDA:0,_ZN12MaterialData13declareHelperIdEER16MaterialPropertyIT_ER18MaterialPropertiesRKNSt7__cxx1112basic_stringIcSt11char_traitsIcESaIcEEEj
FN:346,_ZN12MaterialData13declareHelperI18RankTwoTensorTemplIdEEER16MaterialPropertyIT_ER18MaterialPropertiesRKNSt7__cxx1112basic_stringIcSt11char_traitsIcESaIcEEEj
FNDA:0,_ZN12MaterialData13declareHelperI18RankTwoTensorTemplIdEEER16MaterialPropertyIT_ER18MaterialPropertiesRKNSt7__cxx1112basic_stringIcSt11char_traitsIcESaIcEEEj
FN:370,_ZN12MaterialData15declareADHelperIdEER18ADMaterialPropertyIT_ER18MaterialPropertiesRKNSt7__cxx1112basic_stringIcSt11char_traitsIcESaIcEEEj
FNDA:0,_ZN12MaterialData15declareADHelperIdEER18ADMaterialPropertyIT_ER18MaterialPropertiesRKNSt7__cxx1112basic_stringIcSt11char_traitsIcESaIcEEEj
FN:370,_ZN12MaterialData15declareADHelperI18RankTwoTensorTemplIdEEER18ADMaterialPropertyIT_ER18MaterialPropertiesRKNSt7__cxx1112basic_stringIcSt11char_traitsIcESaIcEEEj
FNDA:0,_ZN12MaterialData15declareADHelperI18RankTwoTensorTemplIdEEER18ADMaterialPropertyIT_ER18MaterialPropertiesRKNSt7__cxx1112basic_stringIcSt11char_traitsIcESaIcEEEj
FN:417,_ZN12MaterialData13getADPropertyI18RankTwoTensorTemplIdEEER18ADMaterialPropertyIT_ERKNSt7__cxx1112basic_stringIcSt11char_traitsIcESaIcEEE
FNDA:0,_ZN12MaterialData13getADPropertyI18RankTwoTensorTemplIdEEER18ADMaterialPropertyIT_ERKNSt7__cxx1112basic_stringIcSt11char_traitsIcESaIcEEE
FN:417,_ZN12MaterialData13getADPropertyIdEER18ADMaterialPropertyIT_ERKNSt7__cxx1112basic_stringIcSt11char_traitsIcESaIcEEE
FNDA:0,_ZN12MaterialData13getADPropertyIdEER18ADMaterialPropertyIT_ERKNSt7__cxx1112basic_stringIcSt11char_traitsIcESaIcEEE
FN:441,_ZN12MaterialData14getPropertyOldIdEER16MaterialPropertyIT_ERKNSt7__cxx1112basic_stringIcSt11char_traitsIcESaIcEEE
FNDA:0,_ZN12MaterialData14getPropertyOldIdEER16MaterialPropertyIT_ERKNSt7__cxx1112basic_stringIcSt11char_traitsIcESaIcEEE
FN:441,_ZN12MaterialData14getPropertyOldI18RankTwoTensorTemplIdEEER16MaterialPropertyIT_ERKNSt7__cxx1112basic_stringIcSt11char_traitsIcESaIcEEE
FNDA:0,_ZN12MaterialData14getPropertyOldI18RankTwoTensorTemplIdEEER16MaterialPropertyIT_ERKNSt7__cxx1112basic_stringIcSt11char_traitsIcESaIcEEE
FNF:14
FNH:0
DA:179,0
DA:276,0
DA:278,0
DA:279,0
DA:280,0
DA:281,0
DA:282,0
DA:283,0
DA:284,0
DA:286,0
DA:287,0
DA:288,0
DA:289,0
DA:290,0
DA:291,0
DA:292,0
DA:276,0
DA:278,0
DA:279,0
DA:280,0
DA:281,0
DA:282,0
DA:283,0
DA:284,0
DA:286,0
DA:287,0
DA:288,0
DA:289,0
DA:290,0
DA:291,0
DA:292,0
DA:296,0
DA:298,0
DA:299,0
DA:300,0
DA:301,0
DA:302,0
DA:303,0
DA:304,0
DA:306,0
DA:307,0
DA:308,0
DA:309,0
DA:310,0
DA:311,0
DA:312,0
DA:296,0
DA:298,0
DA:299,0
DA:300,0
DA:301,0
DA:302,0
DA:303,0
DA:304,0
DA:306,0
DA:307,0
DA:308,0
DA:309,0
DA:310,0
DA:311,0
DA:312,0
DA:323,0
DA:325,0
DA:323,0
DA:325,0
DA:346,0
DA:350,0
DA:351,0
DA:352,0
DA:357,0
DA:358,0
DA:359,0
DA:362,0
DA:364,0
DA:365,0
DA:346,0
DA:350,0
DA:351,0
DA:352,0
DA:357,0
DA:358,0
DA:359,0
DA:362,0
DA:364,0
DA:365,0
DA:370,0
DA:374,0
DA:375,0
DA:376,0
DA:381,0
DA:382,0
DA:383,0
DA:386,0
DA:388,0
DA:389,0
DA:370,0
DA:374,0
DA:375,0
DA:376,0
DA:381,0
DA:382,0
DA:383,0
DA:386,0
DA:388,0
DA:389,0
DA:417,0
DA:420,0
DA:421,0
DA:422,0
DA:427,0
DA:428,0
DA:429,0
DA:434,0
DA:436,0
DA:417,0
DA:420,0
DA:421,0
DA:422,0
DA:427,0
DA:428,0
DA:429,0
DA:434,0
DA:436,0
DA:441,0
DA:443,0
DA:441,0
DA:443,0
LF:127
LH:0
end_of_record
SF:/usr/share/miniconda/envs/moose/libmesh/include/libmesh/ostream_proxy.h
DA:116,0
DA:123,0
LF:2
LH:0
end_of_record
SF:/home/runner/work/raccoon/raccoon/moose/framework/contrib/hit/parse.h
LF:0
LH:0
end_of_record
SF:/home/runner/work/raccoon/raccoon/moose/framework/build/header_symlinks/MooseTypes.h
DA:844,42
DA:850,0
DA:853,0
DA:880,0
DA:883,624
DA:889,0
LF:6
LH:2
end_of_record
SF:/usr/share/miniconda/envs/moose/x86_64-conda-linux-gnu/include/c++/10.3.0/bits/stl_uninitialized.h
FN:84,_ZNSt20__uninitialized_copyILb0EE13__uninit_copyIPKSt4pairIbN11MetaPhysicL10DualNumberIdNS3_28SemiDynamicSparseNumberArrayIdmNS3_8NWrapperILm53EEEEELb1EEEEPSA_EET0_T_SF_SE_
FNDA:0,_ZNSt20__uninitialized_copyILb0EE13__uninit_copyIPKSt4pairIbN11MetaPhysicL10DualNumberIdNS3_28SemiDynamicSparseNumberArrayIdmNS3_8NWrapperILm53EEEEELb1EEEEPSA_EET0_T_SF_SE_
FN:84,_ZNSt20__uninitialized_copyILb0EE13__uninit_copyISt13move_iteratorIPSt4pairIbN11MetaPhysicL10DualNumberIdNS4_28SemiDynamicSparseNumberArrayIdmNS4_8NWrapperILm53EEEEELb1EEEEESC_EET0_T_SF_SE_
FNDA:0,_ZNSt20__uninitialized_copyILb0EE13__uninit_copyISt13move_iteratorIPSt4pairIbN11MetaPhysicL10DualNumberIdNS4_28SemiDynamicSparseNumberArrayIdmNS4_8NWrapperILm53EEEEELb1EEEEESC_EET0_T_SF_SE_
FN:84,_ZNSt20__uninitialized_copyILb0EE13__uninit_copyIPKNSt7__cxx1112basic_stringIcSt11char_traitsIcESaIcEEEPS7_EET0_T_SC_SB_
FNDA:0,_ZNSt20__uninitialized_copyILb0EE13__uninit_copyIPKNSt7__cxx1112basic_stringIcSt11char_traitsIcESaIcEEEPS7_EET0_T_SC_SB_
FN:229,_ZNSt22__uninitialized_fill_nILb0EE15__uninit_fill_nIPSt4pairIbN11MetaPhysicL10DualNumberIdNS3_28SemiDynamicSparseNumberArrayIdmNS3_8NWrapperILm53EEEEELb1EEEEmSA_EET_SC_T0_RKT1_
FNDA:0,_ZNSt22__uninitialized_fill_nILb0EE15__uninit_fill_nIPSt4pairIbN11MetaPhysicL10DualNumberIdNS3_28SemiDynamicSparseNumberArrayIdmNS3_8NWrapperILm53EEEEELb1EEEEmSA_EET_SC_T0_RKT1_
FN:1000,_ZSt14__relocate_a_1IPSt6vectorISt4pairIbdESaIS2_EES5_SaIS4_EET0_T_S8_S7_RT1_
FNDA:0,_ZSt14__relocate_a_1IPSt6vectorISt4pairIbdESaIS2_EES5_SaIS4_EET0_T_S8_S7_RT1_
FN:1000,_ZSt14__relocate_a_1IPSt6vectorISt4pairIbN11MetaPhysicL10DualNumberIdNS2_28SemiDynamicSparseNumberArrayIdmNS2_8NWrapperILm53EEEEELb1EEEESaIS9_EESC_SaISB_EET0_T_SF_SE_RT1_
FNDA:0,_ZSt14__relocate_a_1IPSt6vectorISt4pairIbN11MetaPhysicL10DualNumberIdNS2_28SemiDynamicSparseNumberArrayIdmNS2_8NWrapperILm53EEEEELb1EEEESaIS9_EESC_SaISB_EET0_T_SF_SE_RT1_
FNF:6
FNH:0
DA:84,0
DA:90,0
DA:92,0
DA:84,0
DA:90,0
DA:92,0
DA:84,0
DA:90,0
DA:92,0
DA:94,0
DA:97,0
DA:90,0
DA:150,0
DA:229,0
DA:235,0
DA:237,0
DA:289,0
DA:325,0
DA:566,0
DA:1000,0
DA:1013,0
DA:1016,0
DA:1000,0
DA:1013,0
DA:1016,0
DA:1028,0
LF:26
LH:0
end_of_record
SF:/usr/share/miniconda/envs/moose/libmesh/include/metaphysicl/raw_type.h
DA:73,140006
DA:88,0
LF:2
LH:1
end_of_record
SF:/usr/share/miniconda/envs/moose/x86_64-conda-linux-gnu/include/c++/10.3.0/bits/alloc_traits.h
FN:459,_ZNSt16allocator_traitsISaISt4pairIbdEEE8allocateERS2_m
FNDA:0,_ZNSt16allocator_traitsISaISt4pairIbdEEE8allocateERS2_m
FN:459,_ZNSt16allocator_traitsISaISt4pairIbN11MetaPhysicL10DualNumberIdNS1_28SemiDynamicSparseNumberArrayIdmNS1_8NWrapperILm53EEEEELb1EEEEEE8allocateERS9_m
FNDA:0,_ZNSt16allocator_traitsISaISt4pairIbN11MetaPhysicL10DualNumberIdNS1_28SemiDynamicSparseNumberArrayIdmNS1_8NWrapperILm53EEEEELb1EEEEEE8allocateERS9_m
FN:459,_ZNSt16allocator_traitsISaISt6vectorISt4pairIbdESaIS2_EEEE8allocateERS5_m
FNDA:0,_ZNSt16allocator_traitsISaISt6vectorISt4pairIbdESaIS2_EEEE8allocateERS5_m
FN:459,_ZNSt16allocator_traitsISaISt6vectorISt4pairIbN11MetaPhysicL10DualNumberIdNS2_28SemiDynamicSparseNumberArrayIdmNS2_8NWrapperILm53EEEEELb1EEEESaIS9_EEEE8allocateERSC_m
FNDA:0,_ZNSt16allocator_traitsISaISt6vectorISt4pairIbN11MetaPhysicL10DualNumberIdNS2_28SemiDynamicSparseNumberArrayIdmNS2_8NWrapperILm53EEEEELb1EEEESaIS9_EEEE8allocateERSC_m
FN:459,_ZNSt16allocator_traitsISaIPNSt8__detail15_Hash_node_baseEEE8allocateERS3_m
FNDA:0,_ZNSt16allocator_traitsISaIPNSt8__detail15_Hash_node_baseEEE8allocateERS3_m
FN:459,_ZNSt16allocator_traitsISaIP13PropertyValueEE8allocateERS2_m
FNDA:0,_ZNSt16allocator_traitsISaIP13PropertyValueEE8allocateERS2_m
FN:459,_ZNSt16allocator_traitsISaINSt7__cxx1112basic_stringIcSt11char_traitsIcESaIcEEEEE8allocateERS6_m
FNDA:0,_ZNSt16allocator_traitsISaINSt7__cxx1112basic_stringIcSt11char_traitsIcESaIcEEEEE8allocateERS6_m
FN:459,_ZNSt16allocator_traitsISaIdEE8allocateERS0_m
FNDA:0,_ZNSt16allocator_traitsISaIdEE8allocateERS0_m
FNF:8
FNH:0
DA:459,0
DA:460,0
DA:459,0
DA:460,0
DA:459,0
DA:460,0
DA:459,0
DA:460,0
DA:459,0
DA:460,0
DA:459,0
DA:460,0
DA:459,0
DA:460,0
DA:459,0
DA:460,0
DA:492,96
DA:512,0
DA:516,0
LF:19
LH:1
end_of_record
SF:/home/runner/work/raccoon/raccoon/moose/framework/build/header_symlinks/BlockRestrictable.h
FN:86,_ZN17BlockRestrictableD0Ev
FNDA:0,_ZN17BlockRestrictableD0Ev
FN:86,_ZN17BlockRestrictableD2Ev
FNDA:0,_ZN17BlockRestrictableD2Ev
FNF:2
FNH:0
DA:86,0
DA:86,0
LF:2
LH:0
end_of_record
SF:/usr/share/miniconda/envs/moose/x86_64-conda-linux-gnu/include/c++/10.3.0/bits/stl_algobase.h
FN:560,_ZSt4copyIPKmPmET0_T_S4_S3_
FNDA:199,_ZSt4copyIPKmPmET0_T_S4_S3_
FN:560,_ZSt4copyIPKdPdET0_T_S4_S3_
FNDA:199,_ZSt4copyIPKdPdET0_T_S4_S3_
FN:663,_ZNSt20__copy_move_backwardILb1ELb0ESt26random_access_iterator_tagE13__copy_move_bIPSt4pairIbN11MetaPhysicL10DualNumberIdNS4_28SemiDynamicSparseNumberArrayIdmNS4_8NWrapperILm53EEEEELb1EEEESC_EET0_T_SE_SD_
FNDA:0,_ZNSt20__copy_move_backwardILb1ELb0ESt26random_access_iterator_tagE13__copy_move_bIPSt4pairIbN11MetaPhysicL10DualNumberIdNS4_28SemiDynamicSparseNumberArrayIdmNS4_8NWrapperILm53EEEEELb1EEEESC_EET0_T_SE_SD_
FN:680,_ZNSt20__copy_move_backwardILb1ELb1ESt26random_access_iterator_tagE13__copy_move_bIP13PropertyValueEEPT_PKS5_S8_S6_
FNDA:0,_ZNSt20__copy_move_backwardILb1ELb1ESt26random_access_iterator_tagE13__copy_move_bIP13PropertyValueEEPT_PKS5_S8_S6_
FN:833,_ZSt13move_backwardIPSt4pairIbdES2_ET0_T_S4_S3_
FNDA:0,_ZSt13move_backwardIPSt4pairIbdES2_ET0_T_S4_S3_
FN:857,_ZSt9__fill_a1IPSt4pairIbN11MetaPhysicL10DualNumberIdNS1_28SemiDynamicSparseNumberArrayIdmNS1_8NWrapperILm53EEEEELb1EEEES8_EN9__gnu_cxx11__enable_ifIXntsrSt11__is_scalarIT0_E7__valueEvE6__typeET_SH_RKSD_
FNDA:0,_ZSt9__fill_a1IPSt4pairIbN11MetaPhysicL10DualNumberIdNS1_28SemiDynamicSparseNumberArrayIdmNS1_8NWrapperILm53EEEEELb1EEEES8_EN9__gnu_cxx11__enable_ifIXntsrSt11__is_scalarIT0_E7__valueEvE6__typeET_SH_RKSD_
FNF:6
FNH:2
DA:259,0
DA:260,0
DA:424,398
DA:425,0
DA:426,398
DA:427,0
DA:560,199
DA:569,199
DA:560,199
DA:569,199
DA:663,0
DA:666,0
DA:667,0
DA:668,0
DA:669,0
DA:680,0
DA:689,0
DA:690,0
DA:691,0
DA:692,0
DA:709,0
DA:833,0
DA:845,0
DA:857,0
DA:860,0
DA:862,0
DA:871,0
DA:872,0
DA:873,0
DA:914,0
DA:945,0
DA:1060,0
DA:1065,0
LF:33
LH:6
end_of_record
SF:/usr/share/miniconda/envs/moose/x86_64-conda-linux-gnu/include/c++/10.3.0/array
DA:235,20572700
DA:239,597
LF:2
LH:2
end_of_record
SF:/home/runner/work/raccoon/raccoon/moose/framework/build/header_symlinks/MooseEnumItem.h
FN:72,_ZNK13MooseEnumItemltERKS_
FNDA:0,_ZNK13MooseEnumItemltERKS_
FNF:1
FNH:0
DA:24,844
DA:72,0
DA:74,0
LF:3
LH:1
end_of_record
SF:/usr/share/miniconda/envs/moose/libmesh/include/libmesh/int_range.h
DA:63,0
DA:64,0
LF:2
LH:0
end_of_record
SF:/usr/share/miniconda/envs/moose/x86_64-conda-linux-gnu/include/c++/10.3.0/bits/allocated_ptr.h
FN:70,_ZNSt15__allocated_ptrISaISt23_Sp_counted_ptr_inplaceI28SmallDeformationJ2PlasticitySaIS1_ELN9__gnu_cxx12_Lock_policyE2EEEED2Ev
FNDA:12,_ZNSt15__allocated_ptrISaISt23_Sp_counted_ptr_inplaceI28SmallDeformationJ2PlasticitySaIS1_ELN9__gnu_cxx12_Lock_policyE2EEEED2Ev
FN:70,_ZNSt15__allocated_ptrISaISt23_Sp_counted_ptr_inplaceI35SmallDeformationIsotropicElasticitySaIS1_ELN9__gnu_cxx12_Lock_policyE2EEEED2Ev
FNDA:84,_ZNSt15__allocated_ptrISaISt23_Sp_counted_ptr_inplaceI35SmallDeformationIsotropicElasticitySaIS1_ELN9__gnu_cxx12_Lock_policyE2EEEED2Ev
FN:70,_ZNSt15__allocated_ptrISaISt23_Sp_counted_ptr_inplaceI29ComputeSmallDeformationStressSaIS1_ELN9__gnu_cxx12_Lock_policyE2EEEED2Ev
FNDA:84,_ZNSt15__allocated_ptrISaISt23_Sp_counted_ptr_inplaceI29ComputeSmallDeformationStressSaIS1_ELN9__gnu_cxx12_Lock_policyE2EEEED2Ev
FN:70,_ZNSt15__allocated_ptrISaISt23_Sp_counted_ptr_inplaceINSt13__future_base13_State_baseV2ESaIS2_ELN9__gnu_cxx12_Lock_policyE2EEEED2Ev
FNDA:0,_ZNSt15__allocated_ptrISaISt23_Sp_counted_ptr_inplaceINSt13__future_base13_State_baseV2ESaIS2_ELN9__gnu_cxx12_Lock_policyE2EEEED2Ev
FN:70,_ZNSt15__allocated_ptrISaISt23_Sp_counted_ptr_inplaceISt5mutexSaIS1_ELN9__gnu_cxx12_Lock_policyE2EEEED2Ev
FNDA:0,_ZNSt15__allocated_ptrISaISt23_Sp_counted_ptr_inplaceISt5mutexSaIS1_ELN9__gnu_cxx12_Lock_policyE2EEEED2Ev
FNF:5
FNH:3
DA:52,90
DA:53,180
DA:70,12
DA:72,12
DA:74,12
DA:70,84
DA:72,84
DA:74,84
DA:70,84
DA:72,84
DA:74,84
DA:70,0
DA:72,0
DA:74,0
DA:70,0
DA:72,0
DA:74,0
DA:80,90
LF:18
LH:12
end_of_record
SF:/usr/share/miniconda/envs/moose/x86_64-conda-linux-gnu/include/c++/10.3.0/bits/stl_map.h
FN:492,_ZNSt3mapINSt7__cxx1112basic_stringIcSt11char_traitsIcESaIcEEEPN7libMesh10Parameters5ValueESt4lessIS5_ESaISt4pairIKS5_S9_EEEixERSD_
FNDA:0,_ZNSt3mapINSt7__cxx1112basic_stringIcSt11char_traitsIcESaIcEEEPN7libMesh10Parameters5ValueESt4lessIS5_ESaISt4pairIKS5_S9_EEEixERSD_
FN:492,_ZNSt3mapINSt7__cxx1112basic_stringIcSt11char_traitsIcESaIcEEEN15InputParameters8MetadataESt4lessIS5_ESaISt4pairIKS5_S7_EEEixERSB_
FNDA:0,_ZNSt3mapINSt7__cxx1112basic_stringIcSt11char_traitsIcESaIcEEEN15InputParameters8MetadataESt4lessIS5_ESaISt4pairIKS5_S7_EEEixERSB_
FN:546,_ZNKSt3mapINSt7__cxx1112basic_stringIcSt11char_traitsIcESaIcEEEN15InputParameters8MetadataESt4lessIS5_ESaISt4pairIKS5_S7_EEE2atERSB_
FNDA:0,_ZNKSt3mapINSt7__cxx1112basic_stringIcSt11char_traitsIcESaIcEEEN15InputParameters8MetadataESt4lessIS5_ESaISt4pairIKS5_S7_EEE2atERSB_
FN:691,_ZNSt3mapIN5Moose7ElemArgEdSt4lessIS1_ESaISt4pairIKS1_dEEE11try_emplaceIJdEEES4_ISt17_Rb_tree_iteratorIS6_EbERS5_DpOT_
FNDA:0,_ZNSt3mapIN5Moose7ElemArgEdSt4lessIS1_ESaISt4pairIKS1_dEEE11try_emplaceIJdEEES4_ISt17_Rb_tree_iteratorIS6_EbERS5_DpOT_
FN:691,_ZNSt3mapIN5Moose7ElemArgEN11MetaPhysicL10DualNumberIdNS2_28SemiDynamicSparseNumberArrayIdmNS2_8NWrapperILm53EEEEELb1EEESt4lessIS1_ESaISt4pairIKS1_S8_EEE11try_emplaceIJS8_EEESB_ISt17_Rb_tree_iteratorISD_EbERSC_DpOT_
FNDA:0,_ZNSt3mapIN5Moose7ElemArgEN11MetaPhysicL10DualNumberIdNS2_28SemiDynamicSparseNumberArrayIdmNS2_8NWrapperILm53EEEEELb1EEESt4lessIS1_ESaISt4pairIKS1_S8_EEE11try_emplaceIJS8_EEESB_ISt17_Rb_tree_iteratorISD_EbERSC_DpOT_
FN:691,_ZNSt3mapIN5Moose15ElemFromFaceArgEN11MetaPhysicL10DualNumberIdNS2_28SemiDynamicSparseNumberArrayIdmNS2_8NWrapperILm53EEEEELb1EEESt4lessIS1_ESaISt4pairIKS1_S8_EEE11try_emplaceIJS8_EEESB_ISt17_Rb_tree_iteratorISD_EbERSC_DpOT_
FNDA:0,_ZNSt3mapIN5Moose15ElemFromFaceArgEN11MetaPhysicL10DualNumberIdNS2_28SemiDynamicSparseNumberArrayIdmNS2_8NWrapperILm53EEEEELb1EEESt4lessIS1_ESaISt4pairIKS1_S8_EEE11try_emplaceIJS8_EEESB_ISt17_Rb_tree_iteratorISD_EbERSC_DpOT_
FN:691,_ZNSt3mapIN5Moose7FaceArgEN11MetaPhysicL10DualNumberIdNS2_28SemiDynamicSparseNumberArrayIdmNS2_8NWrapperILm53EEEEELb1EEESt4lessIS1_ESaISt4pairIKS1_S8_EEE11try_emplaceIJS8_EEESB_ISt17_Rb_tree_iteratorISD_EbERSC_DpOT_
FNDA:0,_ZNSt3mapIN5Moose7FaceArgEN11MetaPhysicL10DualNumberIdNS2_28SemiDynamicSparseNumberArrayIdmNS2_8NWrapperILm53EEEEELb1EEESt4lessIS1_ESaISt4pairIKS1_S8_EEE11try_emplaceIJS8_EEESB_ISt17_Rb_tree_iteratorISD_EbERSC_DpOT_
FN:691,_ZNSt3mapIN5Moose18SingleSidedFaceArgEN11MetaPhysicL10DualNumberIdNS2_28SemiDynamicSparseNumberArrayIdmNS2_8NWrapperILm53EEEEELb1EEESt4lessIS1_ESaISt4pairIKS1_S8_EEE11try_emplaceIJS8_EEESB_ISt17_Rb_tree_iteratorISD_EbERSC_DpOT_
FNDA:0,_ZNSt3mapIN5Moose18SingleSidedFaceArgEN11MetaPhysicL10DualNumberIdNS2_28SemiDynamicSparseNumberArrayIdmNS2_8NWrapperILm53EEEEELb1EEESt4lessIS1_ESaISt4pairIKS1_S8_EEE11try_emplaceIJS8_EEESB_ISt17_Rb_tree_iteratorISD_EbERSC_DpOT_
FN:691,_ZNSt3mapIN5Moose15ElemFromFaceArgEdSt4lessIS1_ESaISt4pairIKS1_dEEE11try_emplaceIJdEEES4_ISt17_Rb_tree_iteratorIS6_EbERS5_DpOT_
FNDA:0,_ZNSt3mapIN5Moose15ElemFromFaceArgEdSt4lessIS1_ESaISt4pairIKS1_dEEE11try_emplaceIJdEEES4_ISt17_Rb_tree_iteratorIS6_EbERS5_DpOT_
FN:691,_ZNSt3mapIN5Moose7FaceArgEdSt4lessIS1_ESaISt4pairIKS1_dEEE11try_emplaceIJdEEES4_ISt17_Rb_tree_iteratorIS6_EbERS5_DpOT_
FNDA:0,_ZNSt3mapIN5Moose7FaceArgEdSt4lessIS1_ESaISt4pairIKS1_dEEE11try_emplaceIJdEEES4_ISt17_Rb_tree_iteratorIS6_EbERS5_DpOT_
FN:691,_ZNSt3mapIN5Moose18SingleSidedFaceArgEdSt4lessIS1_ESaISt4pairIKS1_dEEE11try_emplaceIJdEEES4_ISt17_Rb_tree_iteratorIS6_EbERS5_DpOT_
FNDA:0,_ZNSt3mapIN5Moose18SingleSidedFaceArgEdSt4lessIS1_ESaISt4pairIKS1_dEEE11try_emplaceIJdEEES4_ISt17_Rb_tree_iteratorIS6_EbERS5_DpOT_
FN:1258,_ZNSt3mapIN5Moose18SingleSidedFaceArgEdSt4lessIS1_ESaISt4pairIKS1_dEEE11lower_boundERS5_
FNDA:0,_ZNSt3mapIN5Moose18SingleSidedFaceArgEdSt4lessIS1_ESaISt4pairIKS1_dEEE11lower_boundERS5_
FN:1258,_ZNSt3mapIN5Moose7ElemArgEN11MetaPhysicL10DualNumberIdNS2_28SemiDynamicSparseNumberArrayIdmNS2_8NWrapperILm53EEEEELb1EEESt4lessIS1_ESaISt4pairIKS1_S8_EEE11lower_boundERSC_
FNDA:0,_ZNSt3mapIN5Moose7ElemArgEN11MetaPhysicL10DualNumberIdNS2_28SemiDynamicSparseNumberArrayIdmNS2_8NWrapperILm53EEEEELb1EEESt4lessIS1_ESaISt4pairIKS1_S8_EEE11lower_boundERSC_
FN:1258,_ZNSt3mapIN5Moose15ElemFromFaceArgEN11MetaPhysicL10DualNumberIdNS2_28SemiDynamicSparseNumberArrayIdmNS2_8NWrapperILm53EEEEELb1EEESt4lessIS1_ESaISt4pairIKS1_S8_EEE11lower_boundERSC_
FNDA:0,_ZNSt3mapIN5Moose15ElemFromFaceArgEN11MetaPhysicL10DualNumberIdNS2_28SemiDynamicSparseNumberArrayIdmNS2_8NWrapperILm53EEEEELb1EEESt4lessIS1_ESaISt4pairIKS1_S8_EEE11lower_boundERSC_
FN:1258,_ZNSt3mapIN5Moose7FaceArgEN11MetaPhysicL10DualNumberIdNS2_28SemiDynamicSparseNumberArrayIdmNS2_8NWrapperILm53EEEEELb1EEESt4lessIS1_ESaISt4pairIKS1_S8_EEE11lower_boundERSC_
FNDA:0,_ZNSt3mapIN5Moose7FaceArgEN11MetaPhysicL10DualNumberIdNS2_28SemiDynamicSparseNumberArrayIdmNS2_8NWrapperILm53EEEEELb1EEESt4lessIS1_ESaISt4pairIKS1_S8_EEE11lower_boundERSC_
FN:1258,_ZNSt3mapIN5Moose18SingleSidedFaceArgEN11MetaPhysicL10DualNumberIdNS2_28SemiDynamicSparseNumberArrayIdmNS2_8NWrapperILm53EEEEELb1EEESt4lessIS1_ESaISt4pairIKS1_S8_EEE11lower_boundERSC_
FNDA:0,_ZNSt3mapIN5Moose18SingleSidedFaceArgEN11MetaPhysicL10DualNumberIdNS2_28SemiDynamicSparseNumberArrayIdmNS2_8NWrapperILm53EEEEELb1EEESt4lessIS1_ESaISt4pairIKS1_S8_EEE11lower_boundERSC_
FN:1258,_ZNSt3mapINSt7__cxx1112basic_stringIcSt11char_traitsIcESaIcEEEN15InputParameters8MetadataESt4lessIS5_ESaISt4pairIKS5_S7_EEE11lower_boundERSB_
FNDA:0,_ZNSt3mapINSt7__cxx1112basic_stringIcSt11char_traitsIcESaIcEEEN15InputParameters8MetadataESt4lessIS5_ESaISt4pairIKS5_S7_EEE11lower_boundERSB_
FN:1258,_ZNSt3mapINSt7__cxx1112basic_stringIcSt11char_traitsIcESaIcEEEPN7libMesh10Parameters5ValueESt4lessIS5_ESaISt4pairIKS5_S9_EEE11lower_boundERSD_
FNDA:0,_ZNSt3mapINSt7__cxx1112basic_stringIcSt11char_traitsIcESaIcEEEPN7libMesh10Parameters5ValueESt4lessIS5_ESaISt4pairIKS5_S9_EEE11lower_boundERSD_
FN:1258,_ZNSt3mapIN5Moose7ElemArgEdSt4lessIS1_ESaISt4pairIKS1_dEEE11lower_boundERS5_
FNDA:0,_ZNSt3mapIN5Moose7ElemArgEdSt4lessIS1_ESaISt4pairIKS1_dEEE11lower_boundERS5_
FN:1258,_ZNSt3mapIN5Moose15ElemFromFaceArgEdSt4lessIS1_ESaISt4pairIKS1_dEEE11lower_boundERS5_
FNDA:0,_ZNSt3mapIN5Moose15ElemFromFaceArgEdSt4lessIS1_ESaISt4pairIKS1_dEEE11lower_boundERS5_
FN:1258,_ZNSt3mapIN5Moose7FaceArgEdSt4lessIS1_ESaISt4pairIKS1_dEEE11lower_boundERS5_
FNDA:0,_ZNSt3mapIN5Moose7FaceArgEdSt4lessIS1_ESaISt4pairIKS1_dEEE11lower_boundERS5_
FN:1283,_ZNKSt3mapINSt7__cxx1112basic_stringIcSt11char_traitsIcESaIcEEEN15InputParameters8MetadataESt4lessIS5_ESaISt4pairIKS5_S7_EEE11lower_boundERSB_
FNDA:0,_ZNKSt3mapINSt7__cxx1112basic_stringIcSt11char_traitsIcESaIcEEEN15InputParameters8MetadataESt4lessIS5_ESaISt4pairIKS5_S7_EEE11lower_boundERSB_
FNF:22
FNH:0
DA:302,211
DA:319,0
DA:492,0
DA:497,0
DA:499,0
DA:501,0
DA:502,0
DA:503,0
DA:507,0
DA:492,0
DA:497,0
DA:499,0
DA:501,0
DA:502,0
DA:503,0
DA:507,0
DA:546,0
DA:548,0
DA:549,0
DA:550,0
DA:551,0
DA:608,0
DA:691,0
DA:693,0
DA:694,0
DA:696,0
DA:700,0
DA:702,0
DA:691,0
DA:693,0
DA:694,0
DA:696,0
DA:700,0
DA:702,0
DA:691,0
DA:693,0
DA:694,0
DA:696,0
DA:700,0
DA:702,0
DA:691,0
DA:693,0
DA:694,0
DA:696,0
DA:700,0
DA:702,0
DA:691,0
DA:693,0
DA:694,0
DA:696,0
DA:700,0
DA:702,0
DA:691,0
DA:693,0
DA:694,0
DA:696,0
DA:700,0
DA:702,0
DA:691,0
DA:693,0
DA:694,0
DA:696,0
DA:700,0
DA:702,0
DA:691,0
DA:693,0
DA:694,0
DA:696,0
DA:700,0
DA:702,0
DA:1038,0
DA:1134,0
DA:1170,0
DA:1195,0
DA:1216,0
DA:1258,0
DA:1259,0
DA:1258,0
DA:1259,0
DA:1258,0
DA:1259,0
DA:1258,0
DA:1259,0
DA:1258,0
DA:1259,0
DA:1258,0
DA:1259,0
DA:1258,0
DA:1259,0
DA:1258,0
DA:1259,0
DA:1258,0
DA:1259,0
DA:1258,0
DA:1259,0
DA:1283,0
DA:1284,0
LF:97
LH:1
end_of_record
SF:/home/runner/work/raccoon/raccoon/moose/framework/build/header_symlinks/MeshChangedInterface.h
FN:34,_ZN20MeshChangedInterface11meshChangedEv
FNDA:0,_ZN20MeshChangedInterface11meshChangedEv
FNF:1
FNH:0
DA:34,0
LF:1
LH:0
end_of_record
SF:/usr/share/miniconda/envs/moose/x86_64-conda-linux-gnu/include/c++/10.3.0/ext/new_allocator.h
FN:148,_ZN9__gnu_cxx13new_allocatorISt13_Rb_tree_nodeISt4pairIKNSt7__cxx1112basic_stringIcSt11char_traitsIcESaIcEEEN15InputParameters8MetadataEEEE9constructISC_JRKSt21piecewise_construct_tSt5tupleIJRS9_EESJ_IJEEEEEvPT_DpOT0_
FNDA:0,_ZN9__gnu_cxx13new_allocatorISt13_Rb_tree_nodeISt4pairIKNSt7__cxx1112basic_stringIcSt11char_traitsIcESaIcEEEN15InputParameters8MetadataEEEE9constructISC_JRKSt21piecewise_construct_tSt5tupleIJRS9_EESJ_IJEEEEEvPT_DpOT0_
FNF:1
FNH:0
DA:105,0
DA:106,0
DA:115,90
DA:133,729
DA:148,0
DA:150,90
DA:156,90
LF:7
LH:4
end_of_record
SF:/usr/share/miniconda/envs/moose/x86_64-conda-linux-gnu/include/c++/10.3.0/bits/stl_tree.h
FN:458,_ZNSt8_Rb_treeI13MooseEnumItemS0_St9_IdentityIS0_ESt4lessIS0_ESaIS0_EE20_Reuse_or_alloc_nodeC2ERS6_
FNDA:0,_ZNSt8_Rb_treeI13MooseEnumItemS0_St9_IdentityIS0_ESt4lessIS0_ESaIS0_EE20_Reuse_or_alloc_nodeC2ERS6_
FN:458,_ZNSt8_Rb_treeI13MooseEnumItemSt4pairIKS0_S0_ESt10_Select1stIS3_ESt4lessIS0_ESaIS3_EE20_Reuse_or_alloc_nodeC2ERS9_
FNDA:0,_ZNSt8_Rb_treeI13MooseEnumItemSt4pairIKS0_S0_ESt10_Select1stIS3_ESt4lessIS0_ESaIS3_EE20_Reuse_or_alloc_nodeC2ERS9_
FN:484,_ZNSt8_Rb_treeI13MooseEnumItemSt4pairIKS0_S0_ESt10_Select1stIS3_ESt4lessIS0_ESaIS3_EE20_Reuse_or_alloc_nodeclIRKS3_EEPSt13_Rb_tree_nodeIS3_EOT_
FNDA:0,_ZNSt8_Rb_treeI13MooseEnumItemSt4pairIKS0_S0_ESt10_Select1stIS3_ESt4lessIS0_ESaIS3_EE20_Reuse_or_alloc_nodeclIRKS3_EEPSt13_Rb_tree_nodeIS3_EOT_
FN:484,_ZNSt8_Rb_treeI13MooseEnumItemS0_St9_IdentityIS0_ESt4lessIS0_ESaIS0_EE20_Reuse_or_alloc_nodeclIRKS0_EEPSt13_Rb_tree_nodeIS0_EOT_
FNDA:0,_ZNSt8_Rb_treeI13MooseEnumItemS0_St9_IdentityIS0_ESt4lessIS0_ESaIS0_EE20_Reuse_or_alloc_nodeclIRKS0_EEPSt13_Rb_tree_nodeIS0_EOT_
FN:500,_ZNSt8_Rb_treeI13MooseEnumItemSt4pairIKS0_S0_ESt10_Select1stIS3_ESt4lessIS0_ESaIS3_EE20_Reuse_or_alloc_node10_M_extractEv
FNDA:0,_ZNSt8_Rb_treeI13MooseEnumItemSt4pairIKS0_S0_ESt10_Select1stIS3_ESt4lessIS0_ESaIS3_EE20_Reuse_or_alloc_node10_M_extractEv
FN:500,_ZNSt8_Rb_treeI13MooseEnumItemS0_St9_IdentityIS0_ESt4lessIS0_ESaIS0_EE20_Reuse_or_alloc_node10_M_extractEv
FNDA:0,_ZNSt8_Rb_treeI13MooseEnumItemS0_St9_IdentityIS0_ESt4lessIS0_ESaIS0_EE20_Reuse_or_alloc_node10_M_extractEv
FN:613,_ZNSt8_Rb_treeINSt7__cxx1112basic_stringIcSt11char_traitsIcESaIcEEESt4pairIKS5_N15InputParameters8MetadataEESt10_Select1stISA_ESt4lessIS5_ESaISA_EE17_M_construct_nodeIJRKSt21piecewise_construct_tSt5tupleIJRS7_EESL_IJEEEEEvPSt13_Rb_tree_nodeISA_EDpOT_
FNDA:0,_ZNSt8_Rb_treeINSt7__cxx1112basic_stringIcSt11char_traitsIcESaIcEEESt4pairIKS5_N15InputParameters8MetadataEESt10_Select1stISA_ESt4lessIS5_ESaISA_EE17_M_construct_nodeIJRKSt21piecewise_construct_tSt5tupleIJRS7_EESL_IJEEEEEvPSt13_Rb_tree_nodeISA_EDpOT_
FN:613,_ZNSt8_Rb_treeINSt7__cxx1112basic_stringIcSt11char_traitsIcESaIcEEESt4pairIKS5_PN7libMesh10Parameters5ValueEESt10_Select1stISC_ESt4lessIS5_ESaISC_EE17_M_construct_nodeIJRKSt21piecewise_construct_tSt5tupleIJRS7_EESN_IJEEEEEvPSt13_Rb_tree_nodeISC_EDpOT_
FNDA:0,_ZNSt8_Rb_treeINSt7__cxx1112basic_stringIcSt11char_traitsIcESaIcEEESt4pairIKS5_PN7libMesh10Parameters5ValueEESt10_Select1stISC_ESt4lessIS5_ESaISC_EE17_M_construct_nodeIJRKSt21piecewise_construct_tSt5tupleIJRS7_EESN_IJEEEEEvPSt13_Rb_tree_nodeISC_EDpOT_
FN:613,_ZNSt8_Rb_treeI13MooseEnumItemSt4pairIKS0_S0_ESt10_Select1stIS3_ESt4lessIS0_ESaIS3_EE17_M_construct_nodeIJRKS3_EEEvPSt13_Rb_tree_nodeIS3_EDpOT_
FNDA:0,_ZNSt8_Rb_treeI13MooseEnumItemSt4pairIKS0_S0_ESt10_Select1stIS3_ESt4lessIS0_ESaIS3_EE17_M_construct_nodeIJRKS3_EEEvPSt13_Rb_tree_nodeIS3_EDpOT_
FN:613,_ZNSt8_Rb_treeINSt7__cxx1112basic_stringIcSt11char_traitsIcESaIcEEES5_St9_IdentityIS5_ESt4lessIS5_ESaIS5_EE17_M_construct_nodeIJRKS5_EEEvPSt13_Rb_tree_nodeIS5_EDpOT_
FNDA:0,_ZNSt8_Rb_treeINSt7__cxx1112basic_stringIcSt11char_traitsIcESaIcEEES5_St9_IdentityIS5_ESt4lessIS5_ESaIS5_EE17_M_construct_nodeIJRKS5_EEEvPSt13_Rb_tree_nodeIS5_EDpOT_
FN:613,_ZNSt8_Rb_treeI13MooseEnumItemS0_St9_IdentityIS0_ESt4lessIS0_ESaIS0_EE17_M_construct_nodeIJRKS0_EEEvPSt13_Rb_tree_nodeIS0_EDpOT_
FNDA:0,_ZNSt8_Rb_treeI13MooseEnumItemS0_St9_IdentityIS0_ESt4lessIS0_ESaIS0_EE17_M_construct_nodeIJRKS0_EEEvPSt13_Rb_tree_nodeIS0_EDpOT_
FN:632,_ZNSt8_Rb_treeINSt7__cxx1112basic_stringIcSt11char_traitsIcESaIcEEESt4pairIKS5_PN7libMesh10Parameters5ValueEESt10_Select1stISC_ESt4lessIS5_ESaISC_EE14_M_create_nodeIJRKSt21piecewise_construct_tSt5tupleIJRS7_EESN_IJEEEEEPSt13_Rb_tree_nodeISC_EDpOT_
FNDA:0,_ZNSt8_Rb_treeINSt7__cxx1112basic_stringIcSt11char_traitsIcESaIcEEESt4pairIKS5_PN7libMesh10Parameters5ValueEESt10_Select1stISC_ESt4lessIS5_ESaISC_EE14_M_create_nodeIJRKSt21piecewise_construct_tSt5tupleIJRS7_EESN_IJEEEEEPSt13_Rb_tree_nodeISC_EDpOT_
FN:632,_ZNSt8_Rb_treeIN5Moose7ElemArgESt4pairIKS1_N11MetaPhysicL10DualNumberIdNS4_28SemiDynamicSparseNumberArrayIdmNS4_8NWrapperILm53EEEEELb1EEEESt10_Select1stISB_ESt4lessIS1_ESaISB_EE14_M_create_nodeIJRKSt21piecewise_construct_tSt5tupleIJRS3_EESM_IJOSA_EEEEEPSt13_Rb_tree_nodeISB_EDpOT_
FNDA:0,_ZNSt8_Rb_treeIN5Moose7ElemArgESt4pairIKS1_N11MetaPhysicL10DualNumberIdNS4_28SemiDynamicSparseNumberArrayIdmNS4_8NWrapperILm53EEEEELb1EEEESt10_Select1stISB_ESt4lessIS1_ESaISB_EE14_M_create_nodeIJRKSt21piecewise_construct_tSt5tupleIJRS3_EESM_IJOSA_EEEEEPSt13_Rb_tree_nodeISB_EDpOT_
FN:632,_ZNSt8_Rb_treeIN5Moose15ElemFromFaceArgESt4pairIKS1_dESt10_Select1stIS4_ESt4lessIS1_ESaIS4_EE14_M_create_nodeIJRKSt21piecewise_construct_tSt5tupleIJRS3_EESF_IJOdEEEEEPSt13_Rb_tree_nodeIS4_EDpOT_
FNDA:0,_ZNSt8_Rb_treeIN5Moose15ElemFromFaceArgESt4pairIKS1_dESt10_Select1stIS4_ESt4lessIS1_ESaIS4_EE14_M_create_nodeIJRKSt21piecewise_construct_tSt5tupleIJRS3_EESF_IJOdEEEEEPSt13_Rb_tree_nodeIS4_EDpOT_
FN:632,_ZNSt8_Rb_treeIN5Moose18SingleSidedFaceArgESt4pairIKS1_N11MetaPhysicL10DualNumberIdNS4_28SemiDynamicSparseNumberArrayIdmNS4_8NWrapperILm53EEEEELb1EEEESt10_Select1stISB_ESt4lessIS1_ESaISB_EE14_M_create_nodeIJRKSt21piecewise_construct_tSt5tupleIJRS3_EESM_IJOSA_EEEEEPSt13_Rb_tree_nodeISB_EDpOT_
FNDA:0,_ZNSt8_Rb_treeIN5Moose18SingleSidedFaceArgESt4pairIKS1_N11MetaPhysicL10DualNumberIdNS4_28SemiDynamicSparseNumberArrayIdmNS4_8NWrapperILm53EEEEELb1EEEESt10_Select1stISB_ESt4lessIS1_ESaISB_EE14_M_create_nodeIJRKSt21piecewise_construct_tSt5tupleIJRS3_EESM_IJOSA_EEEEEPSt13_Rb_tree_nodeISB_EDpOT_
FN:632,_ZNSt8_Rb_treeINSt7__cxx1112basic_stringIcSt11char_traitsIcESaIcEEES5_St9_IdentityIS5_ESt4lessIS5_ESaIS5_EE14_M_create_nodeIJRKS5_EEEPSt13_Rb_tree_nodeIS5_EDpOT_
FNDA:0,_ZNSt8_Rb_treeINSt7__cxx1112basic_stringIcSt11char_traitsIcESaIcEEES5_St9_IdentityIS5_ESt4lessIS5_ESaIS5_EE14_M_create_nodeIJRKS5_EEEPSt13_Rb_tree_nodeIS5_EDpOT_
FN:632,_ZNSt8_Rb_treeIN5Moose7FaceArgESt4pairIKS1_dESt10_Select1stIS4_ESt4lessIS1_ESaIS4_EE14_M_create_nodeIJRKSt21piecewise_construct_tSt5tupleIJRS3_EESF_IJOdEEEEEPSt13_Rb_tree_nodeIS4_EDpOT_
FNDA:0,_ZNSt8_Rb_treeIN5Moose7FaceArgESt4pairIKS1_dESt10_Select1stIS4_ESt4lessIS1_ESaIS4_EE14_M_create_nodeIJRKSt21piecewise_construct_tSt5tupleIJRS3_EESF_IJOdEEEEEPSt13_Rb_tree_nodeIS4_EDpOT_
FN:632,_ZNSt8_Rb_treeINSt7__cxx1112basic_stringIcSt11char_traitsIcESaIcEEESt4pairIKS5_N15InputParameters8MetadataEESt10_Select1stISA_ESt4lessIS5_ESaISA_EE14_M_create_nodeIJRKSt21piecewise_construct_tSt5tupleIJRS7_EESL_IJEEEEEPSt13_Rb_tree_nodeISA_EDpOT_
FNDA:0,_ZNSt8_Rb_treeINSt7__cxx1112basic_stringIcSt11char_traitsIcESaIcEEESt4pairIKS5_N15InputParameters8MetadataEESt10_Select1stISA_ESt4lessIS5_ESaISA_EE14_M_create_nodeIJRKSt21piecewise_construct_tSt5tupleIJRS7_EESL_IJEEEEEPSt13_Rb_tree_nodeISA_EDpOT_
FN:632,_ZNSt8_Rb_treeIN5Moose18SingleSidedFaceArgESt4pairIKS1_dESt10_Select1stIS4_ESt4lessIS1_ESaIS4_EE14_M_create_nodeIJRKSt21piecewise_construct_tSt5tupleIJRS3_EESF_IJOdEEEEEPSt13_Rb_tree_nodeIS4_EDpOT_
FNDA:0,_ZNSt8_Rb_treeIN5Moose18SingleSidedFaceArgESt4pairIKS1_dESt10_Select1stIS4_ESt4lessIS1_ESaIS4_EE14_M_create_nodeIJRKSt21piecewise_construct_tSt5tupleIJRS3_EESF_IJOdEEEEEPSt13_Rb_tree_nodeIS4_EDpOT_
FN:632,_ZNSt8_Rb_treeI13MooseEnumItemS0_St9_IdentityIS0_ESt4lessIS0_ESaIS0_EE14_M_create_nodeIJRKS0_EEEPSt13_Rb_tree_nodeIS0_EDpOT_
FNDA:0,_ZNSt8_Rb_treeI13MooseEnumItemS0_St9_IdentityIS0_ESt4lessIS0_ESaIS0_EE14_M_create_nodeIJRKS0_EEEPSt13_Rb_tree_nodeIS0_EDpOT_
FN:632,_ZNSt8_Rb_treeI13MooseEnumItemSt4pairIKS0_S0_ESt10_Select1stIS3_ESt4lessIS0_ESaIS3_EE14_M_create_nodeIJRKS3_EEEPSt13_Rb_tree_nodeIS3_EDpOT_
FNDA:0,_ZNSt8_Rb_treeI13MooseEnumItemSt4pairIKS0_S0_ESt10_Select1stIS3_ESt4lessIS0_ESaIS3_EE14_M_create_nodeIJRKS3_EEEPSt13_Rb_tree_nodeIS3_EDpOT_
FN:632,_ZNSt8_Rb_treeIN5Moose7FaceArgESt4pairIKS1_N11MetaPhysicL10DualNumberIdNS4_28SemiDynamicSparseNumberArrayIdmNS4_8NWrapperILm53EEEEELb1EEEESt10_Select1stISB_ESt4lessIS1_ESaISB_EE14_M_create_nodeIJRKSt21piecewise_construct_tSt5tupleIJRS3_EESM_IJOSA_EEEEEPSt13_Rb_tree_nodeISB_EDpOT_
FNDA:0,_ZNSt8_Rb_treeIN5Moose7FaceArgESt4pairIKS1_N11MetaPhysicL10DualNumberIdNS4_28SemiDynamicSparseNumberArrayIdmNS4_8NWrapperILm53EEEEELb1EEEESt10_Select1stISB_ESt4lessIS1_ESaISB_EE14_M_create_nodeIJRKSt21piecewise_construct_tSt5tupleIJRS3_EESM_IJOSA_EEEEEPSt13_Rb_tree_nodeISB_EDpOT_
FN:632,_ZNSt8_Rb_treeIN5Moose15ElemFromFaceArgESt4pairIKS1_N11MetaPhysicL10DualNumberIdNS4_28SemiDynamicSparseNumberArrayIdmNS4_8NWrapperILm53EEEEELb1EEEESt10_Select1stISB_ESt4lessIS1_ESaISB_EE14_M_create_nodeIJRKSt21piecewise_construct_tSt5tupleIJRS3_EESM_IJOSA_EEEEEPSt13_Rb_tree_nodeISB_EDpOT_
FNDA:0,_ZNSt8_Rb_treeIN5Moose15ElemFromFaceArgESt4pairIKS1_N11MetaPhysicL10DualNumberIdNS4_28SemiDynamicSparseNumberArrayIdmNS4_8NWrapperILm53EEEEELb1EEEESt10_Select1stISB_ESt4lessIS1_ESaISB_EE14_M_create_nodeIJRKSt21piecewise_construct_tSt5tupleIJRS3_EESM_IJOSA_EEEEEPSt13_Rb_tree_nodeISB_EDpOT_
FN:652,_ZNSt8_Rb_treeINSt7__cxx1112basic_stringIcSt11char_traitsIcESaIcEEESt4pairIKS5_N15InputParameters8MetadataEESt10_Select1stISA_ESt4lessIS5_ESaISA_EE12_M_drop_nodeEPSt13_Rb_tree_nodeISA_E
FNDA:0,_ZNSt8_Rb_treeINSt7__cxx1112basic_stringIcSt11char_traitsIcESaIcEEESt4pairIKS5_N15InputParameters8MetadataEESt10_Select1stISA_ESt4lessIS5_ESaISA_EE12_M_drop_nodeEPSt13_Rb_tree_nodeISA_E
FN:652,_ZNSt8_Rb_treeI17PostprocessorNameSt4pairIKS0_St10unique_ptrIdSt14default_deleteIdEEESt10_Select1stIS7_ESt4lessIS0_ESaIS7_EE12_M_drop_nodeEPSt13_Rb_tree_nodeIS7_E
FNDA:0,_ZNSt8_Rb_treeI17PostprocessorNameSt4pairIKS0_St10unique_ptrIdSt14default_deleteIdEEESt10_Select1stIS7_ESt4lessIS0_ESaIS7_EE12_M_drop_nodeEPSt13_Rb_tree_nodeIS7_E
FN:652,_ZNSt8_Rb_treeI13MooseEnumItemS0_St9_IdentityIS0_ESt4lessIS0_ESaIS0_EE12_M_drop_nodeEPSt13_Rb_tree_nodeIS0_E
FNDA:633,_ZNSt8_Rb_treeI13MooseEnumItemS0_St9_IdentityIS0_ESt4lessIS0_ESaIS0_EE12_M_drop_nodeEPSt13_Rb_tree_nodeIS0_E
FN:895,_ZNSt8_Rb_treeI13MooseEnumItemS0_St9_IdentityIS0_ESt4lessIS0_ESaIS0_EE7_M_copyINS6_20_Reuse_or_alloc_nodeEEEPSt13_Rb_tree_nodeIS0_ERKS6_RT_
FNDA:0,_ZNSt8_Rb_treeI13MooseEnumItemS0_St9_IdentityIS0_ESt4lessIS0_ESaIS0_EE7_M_copyINS6_20_Reuse_or_alloc_nodeEEEPSt13_Rb_tree_nodeIS0_ERKS6_RT_
FN:895,_ZNSt8_Rb_treeI13MooseEnumItemSt4pairIKS0_S0_ESt10_Select1stIS3_ESt4lessIS0_ESaIS3_EE7_M_copyINS9_20_Reuse_or_alloc_nodeEEEPSt13_Rb_tree_nodeIS3_ERKS9_RT_
FNDA:0,_ZNSt8_Rb_treeI13MooseEnumItemSt4pairIKS0_S0_ESt10_Select1stIS3_ESt4lessIS0_ESaIS3_EE7_M_copyINS9_20_Reuse_or_alloc_nodeEEEPSt13_Rb_tree_nodeIS3_ERKS9_RT_
FN:1211,_ZNSt8_Rb_treeINSt7__cxx1112basic_stringIcSt11char_traitsIcESaIcEEESt4pairIKS5_PN7libMesh10Parameters5ValueEESt10_Select1stISC_ESt4lessIS5_ESaISC_EE5eraseB5cxx11ESt17_Rb_tree_iteratorISC_E
FNDA:0,_ZNSt8_Rb_treeINSt7__cxx1112basic_stringIcSt11char_traitsIcESaIcEEESt4pairIKS5_PN7libMesh10Parameters5ValueEESt10_Select1stISC_ESt4lessIS5_ESaISC_EE5eraseB5cxx11ESt17_Rb_tree_iteratorISC_E
FN:1259,_ZNSt8_Rb_treeIN5Moose15ElemFromFaceArgESt4pairIKS1_N11MetaPhysicL10DualNumberIdNS4_28SemiDynamicSparseNumberArrayIdmNS4_8NWrapperILm53EEEEELb1EEEESt10_Select1stISB_ESt4lessIS1_ESaISB_EE5clearEv
FNDA:0,_ZNSt8_Rb_treeIN5Moose15ElemFromFaceArgESt4pairIKS1_N11MetaPhysicL10DualNumberIdNS4_28SemiDynamicSparseNumberArrayIdmNS4_8NWrapperILm53EEEEELb1EEEESt10_Select1stISB_ESt4lessIS1_ESaISB_EE5clearEv
FN:1259,_ZNSt8_Rb_treeIN5Moose7FaceArgESt4pairIKS1_N11MetaPhysicL10DualNumberIdNS4_28SemiDynamicSparseNumberArrayIdmNS4_8NWrapperILm53EEEEELb1EEEESt10_Select1stISB_ESt4lessIS1_ESaISB_EE5clearEv
FNDA:0,_ZNSt8_Rb_treeIN5Moose7FaceArgESt4pairIKS1_N11MetaPhysicL10DualNumberIdNS4_28SemiDynamicSparseNumberArrayIdmNS4_8NWrapperILm53EEEEELb1EEEESt10_Select1stISB_ESt4lessIS1_ESaISB_EE5clearEv
FN:1259,_ZNSt8_Rb_treeIN5Moose18SingleSidedFaceArgESt4pairIKS1_N11MetaPhysicL10DualNumberIdNS4_28SemiDynamicSparseNumberArrayIdmNS4_8NWrapperILm53EEEEELb1EEEESt10_Select1stISB_ESt4lessIS1_ESaISB_EE5clearEv
FNDA:0,_ZNSt8_Rb_treeIN5Moose18SingleSidedFaceArgESt4pairIKS1_N11MetaPhysicL10DualNumberIdNS4_28SemiDynamicSparseNumberArrayIdmNS4_8NWrapperILm53EEEEELb1EEEESt10_Select1stISB_ESt4lessIS1_ESaISB_EE5clearEv
FN:1259,_ZNSt8_Rb_treeIN5Moose7ElemArgESt4pairIKS1_N11MetaPhysicL10DualNumberIdNS4_28SemiDynamicSparseNumberArrayIdmNS4_8NWrapperILm53EEEEELb1EEEESt10_Select1stISB_ESt4lessIS1_ESaISB_EE5clearEv
FNDA:0,_ZNSt8_Rb_treeIN5Moose7ElemArgESt4pairIKS1_N11MetaPhysicL10DualNumberIdNS4_28SemiDynamicSparseNumberArrayIdmNS4_8NWrapperILm53EEEEELb1EEEESt10_Select1stISB_ESt4lessIS1_ESaISB_EE5clearEv
FN:1259,_ZNSt8_Rb_treeIN5Moose7ElemArgESt4pairIKS1_dESt10_Select1stIS4_ESt4lessIS1_ESaIS4_EE5clearEv
FNDA:0,_ZNSt8_Rb_treeIN5Moose7ElemArgESt4pairIKS1_dESt10_Select1stIS4_ESt4lessIS1_ESaIS4_EE5clearEv
FN:1259,_ZNSt8_Rb_treeIN5Moose15ElemFromFaceArgESt4pairIKS1_dESt10_Select1stIS4_ESt4lessIS1_ESaIS4_EE5clearEv
FNDA:0,_ZNSt8_Rb_treeIN5Moose15ElemFromFaceArgESt4pairIKS1_dESt10_Select1stIS4_ESt4lessIS1_ESaIS4_EE5clearEv
FN:1259,_ZNSt8_Rb_treeIN5Moose7FaceArgESt4pairIKS1_dESt10_Select1stIS4_ESt4lessIS1_ESaIS4_EE5clearEv
FNDA:0,_ZNSt8_Rb_treeIN5Moose7FaceArgESt4pairIKS1_dESt10_Select1stIS4_ESt4lessIS1_ESaIS4_EE5clearEv
FN:1259,_ZNSt8_Rb_treeIN5Moose18SingleSidedFaceArgESt4pairIKS1_dESt10_Select1stIS4_ESt4lessIS1_ESaIS4_EE5clearEv
FNDA:0,_ZNSt8_Rb_treeIN5Moose18SingleSidedFaceArgESt4pairIKS1_dESt10_Select1stIS4_ESt4lessIS1_ESaIS4_EE5clearEv
FN:1763,_ZNSt8_Rb_treeI13MooseEnumItemS0_St9_IdentityIS0_ESt4lessIS0_ESaIS0_EEaSERKS6_
FNDA:0,_ZNSt8_Rb_treeI13MooseEnumItemS0_St9_IdentityIS0_ESt4lessIS0_ESaIS0_EEaSERKS6_
FN:1763,_ZNSt8_Rb_treeI13MooseEnumItemSt4pairIKS0_S0_ESt10_Select1stIS3_ESt4lessIS0_ESaIS3_EEaSERKS9_
FNDA:0,_ZNSt8_Rb_treeI13MooseEnumItemSt4pairIKS0_S0_ESt10_Select1stIS3_ESt4lessIS0_ESaIS3_EEaSERKS9_
FN:1803,_ZNSt8_Rb_treeINSt7__cxx1112basic_stringIcSt11char_traitsIcESaIcEEES5_St9_IdentityIS5_ESt4lessIS5_ESaIS5_EE10_M_insert_IRKS5_NSB_11_Alloc_nodeEEESt17_Rb_tree_iteratorIS5_EPSt18_Rb_tree_node_baseSJ_OT_RT0_
FNDA:0,_ZNSt8_Rb_treeINSt7__cxx1112basic_stringIcSt11char_traitsIcESaIcEEES5_St9_IdentityIS5_ESt4lessIS5_ESaIS5_EE10_M_insert_IRKS5_NSB_11_Alloc_nodeEEESt17_Rb_tree_iteratorIS5_EPSt18_Rb_tree_node_baseSJ_OT_RT0_
FN:1803,_ZNSt8_Rb_treeIjjSt9_IdentityIjESt4lessIjESaIjEE10_M_insert_IjNS5_11_Alloc_nodeEEESt17_Rb_tree_iteratorIjEPSt18_Rb_tree_node_baseSB_OT_RT0_
FNDA:0,_ZNSt8_Rb_treeIjjSt9_IdentityIjESt4lessIjESaIjEE10_M_insert_IjNS5_11_Alloc_nodeEEESt17_Rb_tree_iteratorIjEPSt18_Rb_tree_node_baseSB_OT_RT0_
FN:1877,_ZNSt8_Rb_treeI13MooseEnumItemSt4pairIKS0_S0_ESt10_Select1stIS3_ESt4lessIS0_ESaIS3_EE7_M_copyINS9_20_Reuse_or_alloc_nodeEEEPSt13_Rb_tree_nodeIS3_EPKSD_PSt18_Rb_tree_node_baseRT_
FNDA:0,_ZNSt8_Rb_treeI13MooseEnumItemSt4pairIKS0_S0_ESt10_Select1stIS3_ESt4lessIS0_ESaIS3_EE7_M_copyINS9_20_Reuse_or_alloc_nodeEEEPSt13_Rb_tree_nodeIS3_EPKSD_PSt18_Rb_tree_node_baseRT_
FN:1877,_ZNSt8_Rb_treeI13MooseEnumItemS0_St9_IdentityIS0_ESt4lessIS0_ESaIS0_EE7_M_copyINS6_20_Reuse_or_alloc_nodeEEEPSt13_Rb_tree_nodeIS0_EPKSA_PSt18_Rb_tree_node_baseRT_
FNDA:0,_ZNSt8_Rb_treeI13MooseEnumItemS0_St9_IdentityIS0_ESt4lessIS0_ESaIS0_EE7_M_copyINS6_20_Reuse_or_alloc_nodeEEEPSt13_Rb_tree_nodeIS0_EPKSA_PSt18_Rb_tree_node_baseRT_
FN:1913,_ZNSt8_Rb_treeIN5Moose7ElemArgESt4pairIKS1_dESt10_Select1stIS4_ESt4lessIS1_ESaIS4_EE8_M_eraseEPSt13_Rb_tree_nodeIS4_E
FNDA:0,_ZNSt8_Rb_treeIN5Moose7ElemArgESt4pairIKS1_dESt10_Select1stIS4_ESt4lessIS1_ESaIS4_EE8_M_eraseEPSt13_Rb_tree_nodeIS4_E
FN:1913,_ZNSt8_Rb_treeIN5Moose15ElemFromFaceArgESt4pairIKS1_dESt10_Select1stIS4_ESt4lessIS1_ESaIS4_EE8_M_eraseEPSt13_Rb_tree_nodeIS4_E
FNDA:0,_ZNSt8_Rb_treeIN5Moose15ElemFromFaceArgESt4pairIKS1_dESt10_Select1stIS4_ESt4lessIS1_ESaIS4_EE8_M_eraseEPSt13_Rb_tree_nodeIS4_E
FN:1913,_ZNSt8_Rb_treeIN5Moose7FaceArgESt4pairIKS1_dESt10_Select1stIS4_ESt4lessIS1_ESaIS4_EE8_M_eraseEPSt13_Rb_tree_nodeIS4_E
FNDA:0,_ZNSt8_Rb_treeIN5Moose7FaceArgESt4pairIKS1_dESt10_Select1stIS4_ESt4lessIS1_ESaIS4_EE8_M_eraseEPSt13_Rb_tree_nodeIS4_E
FN:1913,_ZNSt8_Rb_treeIN5Moose7ElemArgESt4pairIKS1_N11MetaPhysicL10DualNumberIdNS4_28SemiDynamicSparseNumberArrayIdmNS4_8NWrapperILm53EEEEELb1EEEESt10_Select1stISB_ESt4lessIS1_ESaISB_EE8_M_eraseEPSt13_Rb_tree_nodeISB_E
FNDA:0,_ZNSt8_Rb_treeIN5Moose7ElemArgESt4pairIKS1_N11MetaPhysicL10DualNumberIdNS4_28SemiDynamicSparseNumberArrayIdmNS4_8NWrapperILm53EEEEELb1EEEESt10_Select1stISB_ESt4lessIS1_ESaISB_EE8_M_eraseEPSt13_Rb_tree_nodeISB_E
FN:1913,_ZNSt8_Rb_treeIN5Moose15ElemFromFaceArgESt4pairIKS1_N11MetaPhysicL10DualNumberIdNS4_28SemiDynamicSparseNumberArrayIdmNS4_8NWrapperILm53EEEEELb1EEEESt10_Select1stISB_ESt4lessIS1_ESaISB_EE8_M_eraseEPSt13_Rb_tree_nodeISB_E
FNDA:0,_ZNSt8_Rb_treeIN5Moose15ElemFromFaceArgESt4pairIKS1_N11MetaPhysicL10DualNumberIdNS4_28SemiDynamicSparseNumberArrayIdmNS4_8NWrapperILm53EEEEELb1EEEESt10_Select1stISB_ESt4lessIS1_ESaISB_EE8_M_eraseEPSt13_Rb_tree_nodeISB_E
FN:1913,_ZNSt8_Rb_treeI13MooseEnumItemS0_St9_IdentityIS0_ESt4lessIS0_ESaIS0_EE8_M_eraseEPSt13_Rb_tree_nodeIS0_E
FNDA:844,_ZNSt8_Rb_treeI13MooseEnumItemS0_St9_IdentityIS0_ESt4lessIS0_ESaIS0_EE8_M_eraseEPSt13_Rb_tree_nodeIS0_E
FN:1913,_ZNSt8_Rb_treeI13MooseEnumItemSt4pairIKS0_S0_ESt10_Select1stIS3_ESt4lessIS0_ESaIS3_EE8_M_eraseEPSt13_Rb_tree_nodeIS3_E
FNDA:211,_ZNSt8_Rb_treeI13MooseEnumItemSt4pairIKS0_S0_ESt10_Select1stIS3_ESt4lessIS0_ESaIS3_EE8_M_eraseEPSt13_Rb_tree_nodeIS3_E
FN:1913,_ZNSt8_Rb_treeIN5Moose18SingleSidedFaceArgESt4pairIKS1_dESt10_Select1stIS4_ESt4lessIS1_ESaIS4_EE8_M_eraseEPSt13_Rb_tree_nodeIS4_E
FNDA:0,_ZNSt8_Rb_treeIN5Moose18SingleSidedFaceArgESt4pairIKS1_dESt10_Select1stIS4_ESt4lessIS1_ESaIS4_EE8_M_eraseEPSt13_Rb_tree_nodeIS4_E
FN:1913,_ZNSt8_Rb_treeINSt7__cxx1112basic_stringIcSt11char_traitsIcESaIcEEESt4pairIKS5_iESt10_Select1stIS8_ESt4lessIS5_ESaIS8_EE8_M_eraseEPSt13_Rb_tree_nodeIS8_E
FNDA:0,_ZNSt8_Rb_treeINSt7__cxx1112basic_stringIcSt11char_traitsIcESaIcEEESt4pairIKS5_iESt10_Select1stIS8_ESt4lessIS5_ESaIS8_EE8_M_eraseEPSt13_Rb_tree_nodeIS8_E
FN:1913,_ZNSt8_Rb_treeI10OutputNameS0_St9_IdentityIS0_ESt4lessIS0_ESaIS0_EE8_M_eraseEPSt13_Rb_tree_nodeIS0_E
FNDA:0,_ZNSt8_Rb_treeI10OutputNameS0_St9_IdentityIS0_ESt4lessIS0_ESaIS0_EE8_M_eraseEPSt13_Rb_tree_nodeIS0_E
FN:1913,_ZNSt8_Rb_treeI17PostprocessorNameSt4pairIKS0_St10unique_ptrIdSt14default_deleteIdEEESt10_Select1stIS7_ESt4lessIS0_ESaIS7_EE8_M_eraseEPSt13_Rb_tree_nodeIS7_E
FNDA:0,_ZNSt8_Rb_treeI17PostprocessorNameSt4pairIKS0_St10unique_ptrIdSt14default_deleteIdEEESt10_Select1stIS7_ESt4lessIS0_ESaIS7_EE8_M_eraseEPSt13_Rb_tree_nodeIS7_E
FN:1913,_ZNSt8_Rb_treeIjjSt9_IdentityIjESt4lessIjESaIjEE8_M_eraseEPSt13_Rb_tree_nodeIjE
FNDA:0,_ZNSt8_Rb_treeIjjSt9_IdentityIjESt4lessIjESaIjEE8_M_eraseEPSt13_Rb_tree_nodeIjE
FN:1913,_ZNSt8_Rb_treeIP22MooseVariableFieldBaseS1_St9_IdentityIS1_ESt4lessIS1_ESaIS1_EE8_M_eraseEPSt13_Rb_tree_nodeIS1_E
FNDA:0,_ZNSt8_Rb_treeIP22MooseVariableFieldBaseS1_St9_IdentityIS1_ESt4lessIS1_ESaIS1_EE8_M_eraseEPSt13_Rb_tree_nodeIS1_E
FN:1913,_ZNSt8_Rb_treeINSt7__cxx1112basic_stringIcSt11char_traitsIcESaIcEEES5_St9_IdentityIS5_ESt4lessIS5_ESaIS5_EE8_M_eraseEPSt13_Rb_tree_nodeIS5_E
FNDA:0,_ZNSt8_Rb_treeINSt7__cxx1112basic_stringIcSt11char_traitsIcESaIcEEES5_St9_IdentityIS5_ESt4lessIS5_ESaIS5_EE8_M_eraseEPSt13_Rb_tree_nodeIS5_E
FN:1913,_ZNSt8_Rb_treeIssSt9_IdentityIsESt4lessIsESaIsEE8_M_eraseEPSt13_Rb_tree_nodeIsE
FNDA:0,_ZNSt8_Rb_treeIssSt9_IdentityIsESt4lessIsESaIsEE8_M_eraseEPSt13_Rb_tree_nodeIsE
FN:1913,_ZNSt8_Rb_treeIttSt9_IdentityItESt4lessItESaItEE8_M_eraseEPSt13_Rb_tree_nodeItE
FNDA:0,_ZNSt8_Rb_treeIttSt9_IdentityItESt4lessItESaItEE8_M_eraseEPSt13_Rb_tree_nodeItE
FN:1913,_ZNSt8_Rb_treeINSt7__cxx1112basic_stringIcSt11char_traitsIcESaIcEEESt4pairIKS5_PN7libMesh10Parameters5ValueEESt10_Select1stISC_ESt4lessIS5_ESaISC_EE8_M_eraseEPSt13_Rb_tree_nodeISC_E
FNDA:0,_ZNSt8_Rb_treeINSt7__cxx1112basic_stringIcSt11char_traitsIcESaIcEEESt4pairIKS5_PN7libMesh10Parameters5ValueEESt10_Select1stISC_ESt4lessIS5_ESaISC_EE8_M_eraseEPSt13_Rb_tree_nodeISC_E
FN:1913,_ZNSt8_Rb_treeIN5Moose18SingleSidedFaceArgESt4pairIKS1_N11MetaPhysicL10DualNumberIdNS4_28SemiDynamicSparseNumberArrayIdmNS4_8NWrapperILm53EEEEELb1EEEESt10_Select1stISB_ESt4lessIS1_ESaISB_EE8_M_eraseEPSt13_Rb_tree_nodeISB_E
FNDA:0,_ZNSt8_Rb_treeIN5Moose18SingleSidedFaceArgESt4pairIKS1_N11MetaPhysicL10DualNumberIdNS4_28SemiDynamicSparseNumberArrayIdmNS4_8NWrapperILm53EEEEELb1EEEESt10_Select1stISB_ESt4lessIS1_ESaISB_EE8_M_eraseEPSt13_Rb_tree_nodeISB_E
FN:1913,_ZNSt8_Rb_treeIN5Moose7FaceArgESt4pairIKS1_N11MetaPhysicL10DualNumberIdNS4_28SemiDynamicSparseNumberArrayIdmNS4_8NWrapperILm53EEEEELb1EEEESt10_Select1stISB_ESt4lessIS1_ESaISB_EE8_M_eraseEPSt13_Rb_tree_nodeISB_E
FNDA:0,_ZNSt8_Rb_treeIN5Moose7FaceArgESt4pairIKS1_N11MetaPhysicL10DualNumberIdNS4_28SemiDynamicSparseNumberArrayIdmNS4_8NWrapperILm53EEEEELb1EEEESt10_Select1stISB_ESt4lessIS1_ESaISB_EE8_M_eraseEPSt13_Rb_tree_nodeISB_E
FN:1913,_ZNSt8_Rb_treeINSt7__cxx1112basic_stringIcSt11char_traitsIcESaIcEEESt4pairIKS5_N15InputParameters8MetadataEESt10_Select1stISA_ESt4lessIS5_ESaISA_EE8_M_eraseEPSt13_Rb_tree_nodeISA_E
FNDA:0,_ZNSt8_Rb_treeINSt7__cxx1112basic_stringIcSt11char_traitsIcESaIcEEESt4pairIKS5_N15InputParameters8MetadataEESt10_Select1stISA_ESt4lessIS5_ESaISA_EE8_M_eraseEPSt13_Rb_tree_nodeISA_E
FN:1930,_ZNSt8_Rb_treeIN5Moose7FaceArgESt4pairIKS1_dESt10_Select1stIS4_ESt4lessIS1_ESaIS4_EE14_M_lower_boundEPSt13_Rb_tree_nodeIS4_EPSt18_Rb_tree_node_baseRS3_
FNDA:0,_ZNSt8_Rb_treeIN5Moose7FaceArgESt4pairIKS1_dESt10_Select1stIS4_ESt4lessIS1_ESaIS4_EE14_M_lower_boundEPSt13_Rb_tree_nodeIS4_EPSt18_Rb_tree_node_baseRS3_
FN:1930,_ZNSt8_Rb_treeIN5Moose18SingleSidedFaceArgESt4pairIKS1_N11MetaPhysicL10DualNumberIdNS4_28SemiDynamicSparseNumberArrayIdmNS4_8NWrapperILm53EEEEELb1EEEESt10_Select1stISB_ESt4lessIS1_ESaISB_EE14_M_lower_boundEPSt13_Rb_tree_nodeISB_EPSt18_Rb_tree_node_baseRS3_
FNDA:0,_ZNSt8_Rb_treeIN5Moose18SingleSidedFaceArgESt4pairIKS1_N11MetaPhysicL10DualNumberIdNS4_28SemiDynamicSparseNumberArrayIdmNS4_8NWrapperILm53EEEEELb1EEEESt10_Select1stISB_ESt4lessIS1_ESaISB_EE14_M_lower_boundEPSt13_Rb_tree_nodeISB_EPSt18_Rb_tree_node_baseRS3_
FN:1930,_ZNSt8_Rb_treeIN5Moose7ElemArgESt4pairIKS1_dESt10_Select1stIS4_ESt4lessIS1_ESaIS4_EE14_M_lower_boundEPSt13_Rb_tree_nodeIS4_EPSt18_Rb_tree_node_baseRS3_
FNDA:0,_ZNSt8_Rb_treeIN5Moose7ElemArgESt4pairIKS1_dESt10_Select1stIS4_ESt4lessIS1_ESaIS4_EE14_M_lower_boundEPSt13_Rb_tree_nodeIS4_EPSt18_Rb_tree_node_baseRS3_
FN:1930,_ZNSt8_Rb_treeINSt7__cxx1112basic_stringIcSt11char_traitsIcESaIcEEESt4pairIKS5_N15InputParameters8MetadataEESt10_Select1stISA_ESt4lessIS5_ESaISA_EE14_M_lower_boundEPSt13_Rb_tree_nodeISA_EPSt18_Rb_tree_node_baseRS7_
FNDA:0,_ZNSt8_Rb_treeINSt7__cxx1112basic_stringIcSt11char_traitsIcESaIcEEESt4pairIKS5_N15InputParameters8MetadataEESt10_Select1stISA_ESt4lessIS5_ESaISA_EE14_M_lower_boundEPSt13_Rb_tree_nodeISA_EPSt18_Rb_tree_node_baseRS7_
FN:1930,_ZNSt8_Rb_treeIN5Moose7FaceArgESt4pairIKS1_N11MetaPhysicL10DualNumberIdNS4_28SemiDynamicSparseNumberArrayIdmNS4_8NWrapperILm53EEEEELb1EEEESt10_Select1stISB_ESt4lessIS1_ESaISB_EE14_M_lower_boundEPSt13_Rb_tree_nodeISB_EPSt18_Rb_tree_node_baseRS3_
FNDA:0,_ZNSt8_Rb_treeIN5Moose7FaceArgESt4pairIKS1_N11MetaPhysicL10DualNumberIdNS4_28SemiDynamicSparseNumberArrayIdmNS4_8NWrapperILm53EEEEELb1EEEESt10_Select1stISB_ESt4lessIS1_ESaISB_EE14_M_lower_boundEPSt13_Rb_tree_nodeISB_EPSt18_Rb_tree_node_baseRS3_
FN:1930,_ZNSt8_Rb_treeIN5Moose15ElemFromFaceArgESt4pairIKS1_dESt10_Select1stIS4_ESt4lessIS1_ESaIS4_EE14_M_lower_boundEPSt13_Rb_tree_nodeIS4_EPSt18_Rb_tree_node_baseRS3_
FNDA:0,_ZNSt8_Rb_treeIN5Moose15ElemFromFaceArgESt4pairIKS1_dESt10_Select1stIS4_ESt4lessIS1_ESaIS4_EE14_M_lower_boundEPSt13_Rb_tree_nodeIS4_EPSt18_Rb_tree_node_baseRS3_
FN:1930,_ZNSt8_Rb_treeIN5Moose15ElemFromFaceArgESt4pairIKS1_N11MetaPhysicL10DualNumberIdNS4_28SemiDynamicSparseNumberArrayIdmNS4_8NWrapperILm53EEEEELb1EEEESt10_Select1stISB_ESt4lessIS1_ESaISB_EE14_M_lower_boundEPSt13_Rb_tree_nodeISB_EPSt18_Rb_tree_node_baseRS3_
FNDA:0,_ZNSt8_Rb_treeIN5Moose15ElemFromFaceArgESt4pairIKS1_N11MetaPhysicL10DualNumberIdNS4_28SemiDynamicSparseNumberArrayIdmNS4_8NWrapperILm53EEEEELb1EEEESt10_Select1stISB_ESt4lessIS1_ESaISB_EE14_M_lower_boundEPSt13_Rb_tree_nodeISB_EPSt18_Rb_tree_node_baseRS3_
FN:1930,_ZNSt8_Rb_treeIN5Moose7ElemArgESt4pairIKS1_N11MetaPhysicL10DualNumberIdNS4_28SemiDynamicSparseNumberArrayIdmNS4_8NWrapperILm53EEEEELb1EEEESt10_Select1stISB_ESt4lessIS1_ESaISB_EE14_M_lower_boundEPSt13_Rb_tree_nodeISB_EPSt18_Rb_tree_node_baseRS3_
FNDA:0,_ZNSt8_Rb_treeIN5Moose7ElemArgESt4pairIKS1_N11MetaPhysicL10DualNumberIdNS4_28SemiDynamicSparseNumberArrayIdmNS4_8NWrapperILm53EEEEELb1EEEESt10_Select1stISB_ESt4lessIS1_ESaISB_EE14_M_lower_boundEPSt13_Rb_tree_nodeISB_EPSt18_Rb_tree_node_baseRS3_
FN:1930,_ZNSt8_Rb_treeINSt7__cxx1112basic_stringIcSt11char_traitsIcESaIcEEESt4pairIKS5_PN7libMesh10Parameters5ValueEESt10_Select1stISC_ESt4lessIS5_ESaISC_EE14_M_lower_boundEPSt13_Rb_tree_nodeISC_EPSt18_Rb_tree_node_baseRS7_
FNDA:0,_ZNSt8_Rb_treeINSt7__cxx1112basic_stringIcSt11char_traitsIcESaIcEEESt4pairIKS5_PN7libMesh10Parameters5ValueEESt10_Select1stISC_ESt4lessIS5_ESaISC_EE14_M_lower_boundEPSt13_Rb_tree_nodeISC_EPSt18_Rb_tree_node_baseRS7_
FN:1930,_ZNSt8_Rb_treeIN5Moose18SingleSidedFaceArgESt4pairIKS1_dESt10_Select1stIS4_ESt4lessIS1_ESaIS4_EE14_M_lower_boundEPSt13_Rb_tree_nodeIS4_EPSt18_Rb_tree_node_baseRS3_
FNDA:0,_ZNSt8_Rb_treeIN5Moose18SingleSidedFaceArgESt4pairIKS1_dESt10_Select1stIS4_ESt4lessIS1_ESaIS4_EE14_M_lower_boundEPSt13_Rb_tree_nodeIS4_EPSt18_Rb_tree_node_baseRS3_
FN:1946,_ZNKSt8_Rb_treeINSt7__cxx1112basic_stringIcSt11char_traitsIcESaIcEEESt4pairIKS5_N15InputParameters8MetadataEESt10_Select1stISA_ESt4lessIS5_ESaISA_EE14_M_lower_boundEPKSt13_Rb_tree_nodeISA_EPKSt18_Rb_tree_node_baseRS7_
FNDA:0,_ZNKSt8_Rb_treeINSt7__cxx1112basic_stringIcSt11char_traitsIcESaIcEEESt4pairIKS5_N15InputParameters8MetadataEESt10_Select1stISA_ESt4lessIS5_ESaISA_EE14_M_lower_boundEPKSt13_Rb_tree_nodeISA_EPKSt18_Rb_tree_node_baseRS7_
FN:1946,_ZNKSt8_Rb_treeI13MooseEnumItemS0_St9_IdentityIS0_ESt4lessIS0_ESaIS0_EE14_M_lower_boundEPKSt13_Rb_tree_nodeIS0_EPKSt18_Rb_tree_node_baseRKS0_
FNDA:0,_ZNKSt8_Rb_treeI13MooseEnumItemS0_St9_IdentityIS0_ESt4lessIS0_ESaIS0_EE14_M_lower_boundEPKSt13_Rb_tree_nodeIS0_EPKSt18_Rb_tree_node_baseRKS0_
FN:1946,_ZNKSt8_Rb_treeINSt7__cxx1112basic_stringIcSt11char_traitsIcESaIcEEESt4pairIKS5_PN7libMesh10Parameters5ValueEESt10_Select1stISC_ESt4lessIS5_ESaISC_EE14_M_lower_boundEPKSt13_Rb_tree_nodeISC_EPKSt18_Rb_tree_node_baseRS7_
FNDA:0,_ZNKSt8_Rb_treeINSt7__cxx1112basic_stringIcSt11char_traitsIcESaIcEEESt4pairIKS5_PN7libMesh10Parameters5ValueEESt10_Select1stISC_ESt4lessIS5_ESaISC_EE14_M_lower_boundEPKSt13_Rb_tree_nodeISC_EPKSt18_Rb_tree_node_baseRS7_
FN:2091,_ZNSt8_Rb_treeIN5Moose7FaceArgESt4pairIKS1_dESt10_Select1stIS4_ESt4lessIS1_ESaIS4_EE24_M_get_insert_unique_posERS3_
FNDA:0,_ZNSt8_Rb_treeIN5Moose7FaceArgESt4pairIKS1_dESt10_Select1stIS4_ESt4lessIS1_ESaIS4_EE24_M_get_insert_unique_posERS3_
FN:2091,_ZNSt8_Rb_treeIN5Moose7ElemArgESt4pairIKS1_N11MetaPhysicL10DualNumberIdNS4_28SemiDynamicSparseNumberArrayIdmNS4_8NWrapperILm53EEEEELb1EEEESt10_Select1stISB_ESt4lessIS1_ESaISB_EE24_M_get_insert_unique_posERS3_
FNDA:0,_ZNSt8_Rb_treeIN5Moose7ElemArgESt4pairIKS1_N11MetaPhysicL10DualNumberIdNS4_28SemiDynamicSparseNumberArrayIdmNS4_8NWrapperILm53EEEEELb1EEEESt10_Select1stISB_ESt4lessIS1_ESaISB_EE24_M_get_insert_unique_posERS3_
FN:2091,_ZNSt8_Rb_treeINSt7__cxx1112basic_stringIcSt11char_traitsIcESaIcEEES5_St9_IdentityIS5_ESt4lessIS5_ESaIS5_EE24_M_get_insert_unique_posERKS5_
FNDA:0,_ZNSt8_Rb_treeINSt7__cxx1112basic_stringIcSt11char_traitsIcESaIcEEES5_St9_IdentityIS5_ESt4lessIS5_ESaIS5_EE24_M_get_insert_unique_posERKS5_
FN:2091,_ZNSt8_Rb_treeIN5Moose15ElemFromFaceArgESt4pairIKS1_N11MetaPhysicL10DualNumberIdNS4_28SemiDynamicSparseNumberArrayIdmNS4_8NWrapperILm53EEEEELb1EEEESt10_Select1stISB_ESt4lessIS1_ESaISB_EE24_M_get_insert_unique_posERS3_
FNDA:0,_ZNSt8_Rb_treeIN5Moose15ElemFromFaceArgESt4pairIKS1_N11MetaPhysicL10DualNumberIdNS4_28SemiDynamicSparseNumberArrayIdmNS4_8NWrapperILm53EEEEELb1EEEESt10_Select1stISB_ESt4lessIS1_ESaISB_EE24_M_get_insert_unique_posERS3_
FN:2091,_ZNSt8_Rb_treeIjjSt9_IdentityIjESt4lessIjESaIjEE24_M_get_insert_unique_posERKj
FNDA:0,_ZNSt8_Rb_treeIjjSt9_IdentityIjESt4lessIjESaIjEE24_M_get_insert_unique_posERKj
FN:2091,_ZNSt8_Rb_treeIN5Moose7FaceArgESt4pairIKS1_N11MetaPhysicL10DualNumberIdNS4_28SemiDynamicSparseNumberArrayIdmNS4_8NWrapperILm53EEEEELb1EEEESt10_Select1stISB_ESt4lessIS1_ESaISB_EE24_M_get_insert_unique_posERS3_
FNDA:0,_ZNSt8_Rb_treeIN5Moose7FaceArgESt4pairIKS1_N11MetaPhysicL10DualNumberIdNS4_28SemiDynamicSparseNumberArrayIdmNS4_8NWrapperILm53EEEEELb1EEEESt10_Select1stISB_ESt4lessIS1_ESaISB_EE24_M_get_insert_unique_posERS3_
FN:2091,_ZNSt8_Rb_treeIN5Moose18SingleSidedFaceArgESt4pairIKS1_N11MetaPhysicL10DualNumberIdNS4_28SemiDynamicSparseNumberArrayIdmNS4_8NWrapperILm53EEEEELb1EEEESt10_Select1stISB_ESt4lessIS1_ESaISB_EE24_M_get_insert_unique_posERS3_
FNDA:0,_ZNSt8_Rb_treeIN5Moose18SingleSidedFaceArgESt4pairIKS1_N11MetaPhysicL10DualNumberIdNS4_28SemiDynamicSparseNumberArrayIdmNS4_8NWrapperILm53EEEEELb1EEEESt10_Select1stISB_ESt4lessIS1_ESaISB_EE24_M_get_insert_unique_posERS3_
FN:2091,_ZNSt8_Rb_treeINSt7__cxx1112basic_stringIcSt11char_traitsIcESaIcEEESt4pairIKS5_PN7libMesh10Parameters5ValueEESt10_Select1stISC_ESt4lessIS5_ESaISC_EE24_M_get_insert_unique_posERS7_
FNDA:0,_ZNSt8_Rb_treeINSt7__cxx1112basic_stringIcSt11char_traitsIcESaIcEEESt4pairIKS5_PN7libMesh10Parameters5ValueEESt10_Select1stISC_ESt4lessIS5_ESaISC_EE24_M_get_insert_unique_posERS7_
FN:2091,_ZNSt8_Rb_treeIN5Moose7ElemArgESt4pairIKS1_dESt10_Select1stIS4_ESt4lessIS1_ESaIS4_EE24_M_get_insert_unique_posERS3_
FNDA:0,_ZNSt8_Rb_treeIN5Moose7ElemArgESt4pairIKS1_dESt10_Select1stIS4_ESt4lessIS1_ESaIS4_EE24_M_get_insert_unique_posERS3_
FN:2091,_ZNSt8_Rb_treeIN5Moose15ElemFromFaceArgESt4pairIKS1_dESt10_Select1stIS4_ESt4lessIS1_ESaIS4_EE24_M_get_insert_unique_posERS3_
FNDA:0,_ZNSt8_Rb_treeIN5Moose15ElemFromFaceArgESt4pairIKS1_dESt10_Select1stIS4_ESt4lessIS1_ESaIS4_EE24_M_get_insert_unique_posERS3_
FN:2091,_ZNSt8_Rb_treeINSt7__cxx1112basic_stringIcSt11char_traitsIcESaIcEEESt4pairIKS5_N15InputParameters8MetadataEESt10_Select1stISA_ESt4lessIS5_ESaISA_EE24_M_get_insert_unique_posERS7_
FNDA:0,_ZNSt8_Rb_treeINSt7__cxx1112basic_stringIcSt11char_traitsIcESaIcEEESt4pairIKS5_N15InputParameters8MetadataEESt10_Select1stISA_ESt4lessIS5_ESaISA_EE24_M_get_insert_unique_posERS7_
FN:2091,_ZNSt8_Rb_treeIN5Moose18SingleSidedFaceArgESt4pairIKS1_dESt10_Select1stIS4_ESt4lessIS1_ESaIS4_EE24_M_get_insert_unique_posERS3_
FNDA:0,_ZNSt8_Rb_treeIN5Moose18SingleSidedFaceArgESt4pairIKS1_dESt10_Select1stIS4_ESt4lessIS1_ESaIS4_EE24_M_get_insert_unique_posERS3_
FN:2145,_ZNSt8_Rb_treeINSt7__cxx1112basic_stringIcSt11char_traitsIcESaIcEEES5_St9_IdentityIS5_ESt4lessIS5_ESaIS5_EE16_M_insert_uniqueIRKS5_EESt4pairISt17_Rb_tree_iteratorIS5_EbEOT_
FNDA:0,_ZNSt8_Rb_treeINSt7__cxx1112basic_stringIcSt11char_traitsIcESaIcEEES5_St9_IdentityIS5_ESt4lessIS5_ESaIS5_EE16_M_insert_uniqueIRKS5_EESt4pairISt17_Rb_tree_iteratorIS5_EbEOT_
FN:2145,_ZNSt8_Rb_treeIjjSt9_IdentityIjESt4lessIjESaIjEE16_M_insert_uniqueIjEESt4pairISt17_Rb_tree_iteratorIjEbEOT_
FNDA:0,_ZNSt8_Rb_treeIjjSt9_IdentityIjESt4lessIjESaIjEE16_M_insert_uniqueIjEESt4pairISt17_Rb_tree_iteratorIjEbEOT_
FN:2193,_ZNSt8_Rb_treeINSt7__cxx1112basic_stringIcSt11char_traitsIcESaIcEEESt4pairIKS5_PN7libMesh10Parameters5ValueEESt10_Select1stISC_ESt4lessIS5_ESaISC_EE29_M_get_insert_hint_unique_posESt23_Rb_tree_const_iteratorISC_ERS7_
FNDA:0,_ZNSt8_Rb_treeINSt7__cxx1112basic_stringIcSt11char_traitsIcESaIcEEESt4pairIKS5_PN7libMesh10Parameters5ValueEESt10_Select1stISC_ESt4lessIS5_ESaISC_EE29_M_get_insert_hint_unique_posESt23_Rb_tree_const_iteratorISC_ERS7_
FN:2193,_ZNSt8_Rb_treeIN5Moose18SingleSidedFaceArgESt4pairIKS1_dESt10_Select1stIS4_ESt4lessIS1_ESaIS4_EE29_M_get_insert_hint_unique_posESt23_Rb_tree_const_iteratorIS4_ERS3_
FNDA:0,_ZNSt8_Rb_treeIN5Moose18SingleSidedFaceArgESt4pairIKS1_dESt10_Select1stIS4_ESt4lessIS1_ESaIS4_EE29_M_get_insert_hint_unique_posESt23_Rb_tree_const_iteratorIS4_ERS3_
FN:2193,_ZNSt8_Rb_treeIN5Moose7FaceArgESt4pairIKS1_dESt10_Select1stIS4_ESt4lessIS1_ESaIS4_EE29_M_get_insert_hint_unique_posESt23_Rb_tree_const_iteratorIS4_ERS3_
FNDA:0,_ZNSt8_Rb_treeIN5Moose7FaceArgESt4pairIKS1_dESt10_Select1stIS4_ESt4lessIS1_ESaIS4_EE29_M_get_insert_hint_unique_posESt23_Rb_tree_const_iteratorIS4_ERS3_
FN:2193,_ZNSt8_Rb_treeINSt7__cxx1112basic_stringIcSt11char_traitsIcESaIcEEESt4pairIKS5_N15InputParameters8MetadataEESt10_Select1stISA_ESt4lessIS5_ESaISA_EE29_M_get_insert_hint_unique_posESt23_Rb_tree_const_iteratorISA_ERS7_
FNDA:0,_ZNSt8_Rb_treeINSt7__cxx1112basic_stringIcSt11char_traitsIcESaIcEEESt4pairIKS5_N15InputParameters8MetadataEESt10_Select1stISA_ESt4lessIS5_ESaISA_EE29_M_get_insert_hint_unique_posESt23_Rb_tree_const_iteratorISA_ERS7_
FN:2193,_ZNSt8_Rb_treeIN5Moose7ElemArgESt4pairIKS1_N11MetaPhysicL10DualNumberIdNS4_28SemiDynamicSparseNumberArrayIdmNS4_8NWrapperILm53EEEEELb1EEEESt10_Select1stISB_ESt4lessIS1_ESaISB_EE29_M_get_insert_hint_unique_posESt23_Rb_tree_const_iteratorISB_ERS3_
FNDA:0,_ZNSt8_Rb_treeIN5Moose7ElemArgESt4pairIKS1_N11MetaPhysicL10DualNumberIdNS4_28SemiDynamicSparseNumberArrayIdmNS4_8NWrapperILm53EEEEELb1EEEESt10_Select1stISB_ESt4lessIS1_ESaISB_EE29_M_get_insert_hint_unique_posESt23_Rb_tree_const_iteratorISB_ERS3_
FN:2193,_ZNSt8_Rb_treeIN5Moose15ElemFromFaceArgESt4pairIKS1_N11MetaPhysicL10DualNumberIdNS4_28SemiDynamicSparseNumberArrayIdmNS4_8NWrapperILm53EEEEELb1EEEESt10_Select1stISB_ESt4lessIS1_ESaISB_EE29_M_get_insert_hint_unique_posESt23_Rb_tree_const_iteratorISB_ERS3_
FNDA:0,_ZNSt8_Rb_treeIN5Moose15ElemFromFaceArgESt4pairIKS1_N11MetaPhysicL10DualNumberIdNS4_28SemiDynamicSparseNumberArrayIdmNS4_8NWrapperILm53EEEEELb1EEEESt10_Select1stISB_ESt4lessIS1_ESaISB_EE29_M_get_insert_hint_unique_posESt23_Rb_tree_const_iteratorISB_ERS3_
FN:2193,_ZNSt8_Rb_treeIN5Moose15ElemFromFaceArgESt4pairIKS1_dESt10_Select1stIS4_ESt4lessIS1_ESaIS4_EE29_M_get_insert_hint_unique_posESt23_Rb_tree_const_iteratorIS4_ERS3_
FNDA:0,_ZNSt8_Rb_treeIN5Moose15ElemFromFaceArgESt4pairIKS1_dESt10_Select1stIS4_ESt4lessIS1_ESaIS4_EE29_M_get_insert_hint_unique_posESt23_Rb_tree_const_iteratorIS4_ERS3_
FN:2193,_ZNSt8_Rb_treeIN5Moose18SingleSidedFaceArgESt4pairIKS1_N11MetaPhysicL10DualNumberIdNS4_28SemiDynamicSparseNumberArrayIdmNS4_8NWrapperILm53EEEEELb1EEEESt10_Select1stISB_ESt4lessIS1_ESaISB_EE29_M_get_insert_hint_unique_posESt23_Rb_tree_const_iteratorISB_ERS3_
FNDA:0,_ZNSt8_Rb_treeIN5Moose18SingleSidedFaceArgESt4pairIKS1_N11MetaPhysicL10DualNumberIdNS4_28SemiDynamicSparseNumberArrayIdmNS4_8NWrapperILm53EEEEELb1EEEESt10_Select1stISB_ESt4lessIS1_ESaISB_EE29_M_get_insert_hint_unique_posESt23_Rb_tree_const_iteratorISB_ERS3_
FN:2193,_ZNSt8_Rb_treeIN5Moose7FaceArgESt4pairIKS1_N11MetaPhysicL10DualNumberIdNS4_28SemiDynamicSparseNumberArrayIdmNS4_8NWrapperILm53EEEEELb1EEEESt10_Select1stISB_ESt4lessIS1_ESaISB_EE29_M_get_insert_hint_unique_posESt23_Rb_tree_const_iteratorISB_ERS3_
FNDA:0,_ZNSt8_Rb_treeIN5Moose7FaceArgESt4pairIKS1_N11MetaPhysicL10DualNumberIdNS4_28SemiDynamicSparseNumberArrayIdmNS4_8NWrapperILm53EEEEELb1EEEESt10_Select1stISB_ESt4lessIS1_ESaISB_EE29_M_get_insert_hint_unique_posESt23_Rb_tree_const_iteratorISB_ERS3_
FN:2193,_ZNSt8_Rb_treeIN5Moose7ElemArgESt4pairIKS1_dESt10_Select1stIS4_ESt4lessIS1_ESaIS4_EE29_M_get_insert_hint_unique_posESt23_Rb_tree_const_iteratorIS4_ERS3_
FNDA:0,_ZNSt8_Rb_treeIN5Moose7ElemArgESt4pairIKS1_dESt10_Select1stIS4_ESt4lessIS1_ESaIS4_EE29_M_get_insert_hint_unique_posESt23_Rb_tree_const_iteratorIS4_ERS3_
FN:2360,_ZNSt8_Rb_treeIN5Moose15ElemFromFaceArgESt4pairIKS1_N11MetaPhysicL10DualNumberIdNS4_28SemiDynamicSparseNumberArrayIdmNS4_8NWrapperILm53EEEEELb1EEEESt10_Select1stISB_ESt4lessIS1_ESaISB_EE14_M_insert_nodeEPSt18_Rb_tree_node_baseSJ_PSt13_Rb_tree_nodeISB_E
FNDA:0,_ZNSt8_Rb_treeIN5Moose15ElemFromFaceArgESt4pairIKS1_N11MetaPhysicL10DualNumberIdNS4_28SemiDynamicSparseNumberArrayIdmNS4_8NWrapperILm53EEEEELb1EEEESt10_Select1stISB_ESt4lessIS1_ESaISB_EE14_M_insert_nodeEPSt18_Rb_tree_node_baseSJ_PSt13_Rb_tree_nodeISB_E
FN:2360,_ZNSt8_Rb_treeINSt7__cxx1112basic_stringIcSt11char_traitsIcESaIcEEESt4pairIKS5_N15InputParameters8MetadataEESt10_Select1stISA_ESt4lessIS5_ESaISA_EE14_M_insert_nodeEPSt18_Rb_tree_node_baseSI_PSt13_Rb_tree_nodeISA_E
FNDA:0,_ZNSt8_Rb_treeINSt7__cxx1112basic_stringIcSt11char_traitsIcESaIcEEESt4pairIKS5_N15InputParameters8MetadataEESt10_Select1stISA_ESt4lessIS5_ESaISA_EE14_M_insert_nodeEPSt18_Rb_tree_node_baseSI_PSt13_Rb_tree_nodeISA_E
FN:2360,_ZNSt8_Rb_treeIN5Moose7ElemArgESt4pairIKS1_dESt10_Select1stIS4_ESt4lessIS1_ESaIS4_EE14_M_insert_nodeEPSt18_Rb_tree_node_baseSC_PSt13_Rb_tree_nodeIS4_E
FNDA:0,_ZNSt8_Rb_treeIN5Moose7ElemArgESt4pairIKS1_dESt10_Select1stIS4_ESt4lessIS1_ESaIS4_EE14_M_insert_nodeEPSt18_Rb_tree_node_baseSC_PSt13_Rb_tree_nodeIS4_E
FN:2360,_ZNSt8_Rb_treeIN5Moose7ElemArgESt4pairIKS1_N11MetaPhysicL10DualNumberIdNS4_28SemiDynamicSparseNumberArrayIdmNS4_8NWrapperILm53EEEEELb1EEEESt10_Select1stISB_ESt4lessIS1_ESaISB_EE14_M_insert_nodeEPSt18_Rb_tree_node_baseSJ_PSt13_Rb_tree_nodeISB_E
FNDA:0,_ZNSt8_Rb_treeIN5Moose7ElemArgESt4pairIKS1_N11MetaPhysicL10DualNumberIdNS4_28SemiDynamicSparseNumberArrayIdmNS4_8NWrapperILm53EEEEELb1EEEESt10_Select1stISB_ESt4lessIS1_ESaISB_EE14_M_insert_nodeEPSt18_Rb_tree_node_baseSJ_PSt13_Rb_tree_nodeISB_E
FN:2360,_ZNSt8_Rb_treeINSt7__cxx1112basic_stringIcSt11char_traitsIcESaIcEEESt4pairIKS5_PN7libMesh10Parameters5ValueEESt10_Select1stISC_ESt4lessIS5_ESaISC_EE14_M_insert_nodeEPSt18_Rb_tree_node_baseSK_PSt13_Rb_tree_nodeISC_E
FNDA:0,_ZNSt8_Rb_treeINSt7__cxx1112basic_stringIcSt11char_traitsIcESaIcEEESt4pairIKS5_PN7libMesh10Parameters5ValueEESt10_Select1stISC_ESt4lessIS5_ESaISC_EE14_M_insert_nodeEPSt18_Rb_tree_node_baseSK_PSt13_Rb_tree_nodeISC_E
FN:2360,_ZNSt8_Rb_treeIN5Moose18SingleSidedFaceArgESt4pairIKS1_N11MetaPhysicL10DualNumberIdNS4_28SemiDynamicSparseNumberArrayIdmNS4_8NWrapperILm53EEEEELb1EEEESt10_Select1stISB_ESt4lessIS1_ESaISB_EE14_M_insert_nodeEPSt18_Rb_tree_node_baseSJ_PSt13_Rb_tree_nodeISB_E
FNDA:0,_ZNSt8_Rb_treeIN5Moose18SingleSidedFaceArgESt4pairIKS1_N11MetaPhysicL10DualNumberIdNS4_28SemiDynamicSparseNumberArrayIdmNS4_8NWrapperILm53EEEEELb1EEEESt10_Select1stISB_ESt4lessIS1_ESaISB_EE14_M_insert_nodeEPSt18_Rb_tree_node_baseSJ_PSt13_Rb_tree_nodeISB_E
FN:2360,_ZNSt8_Rb_treeIN5Moose7FaceArgESt4pairIKS1_dESt10_Select1stIS4_ESt4lessIS1_ESaIS4_EE14_M_insert_nodeEPSt18_Rb_tree_node_baseSC_PSt13_Rb_tree_nodeIS4_E
FNDA:0,_ZNSt8_Rb_treeIN5Moose7FaceArgESt4pairIKS1_dESt10_Select1stIS4_ESt4lessIS1_ESaIS4_EE14_M_insert_nodeEPSt18_Rb_tree_node_baseSC_PSt13_Rb_tree_nodeIS4_E
FN:2360,_ZNSt8_Rb_treeIN5Moose15ElemFromFaceArgESt4pairIKS1_dESt10_Select1stIS4_ESt4lessIS1_ESaIS4_EE14_M_insert_nodeEPSt18_Rb_tree_node_baseSC_PSt13_Rb_tree_nodeIS4_E
FNDA:0,_ZNSt8_Rb_treeIN5Moose15ElemFromFaceArgESt4pairIKS1_dESt10_Select1stIS4_ESt4lessIS1_ESaIS4_EE14_M_insert_nodeEPSt18_Rb_tree_node_baseSC_PSt13_Rb_tree_nodeIS4_E
FN:2360,_ZNSt8_Rb_treeIN5Moose18SingleSidedFaceArgESt4pairIKS1_dESt10_Select1stIS4_ESt4lessIS1_ESaIS4_EE14_M_insert_nodeEPSt18_Rb_tree_node_baseSC_PSt13_Rb_tree_nodeIS4_E
FNDA:0,_ZNSt8_Rb_treeIN5Moose18SingleSidedFaceArgESt4pairIKS1_dESt10_Select1stIS4_ESt4lessIS1_ESaIS4_EE14_M_insert_nodeEPSt18_Rb_tree_node_baseSC_PSt13_Rb_tree_nodeIS4_E
FN:2360,_ZNSt8_Rb_treeIN5Moose7FaceArgESt4pairIKS1_N11MetaPhysicL10DualNumberIdNS4_28SemiDynamicSparseNumberArrayIdmNS4_8NWrapperILm53EEEEELb1EEEESt10_Select1stISB_ESt4lessIS1_ESaISB_EE14_M_insert_nodeEPSt18_Rb_tree_node_baseSJ_PSt13_Rb_tree_nodeISB_E
FNDA:0,_ZNSt8_Rb_treeIN5Moose7FaceArgESt4pairIKS1_N11MetaPhysicL10DualNumberIdNS4_28SemiDynamicSparseNumberArrayIdmNS4_8NWrapperILm53EEEEELb1EEEESt10_Select1stISB_ESt4lessIS1_ESaISB_EE14_M_insert_nodeEPSt18_Rb_tree_node_baseSJ_PSt13_Rb_tree_nodeISB_E
FN:2458,_ZNSt8_Rb_treeIN5Moose18SingleSidedFaceArgESt4pairIKS1_dESt10_Select1stIS4_ESt4lessIS1_ESaIS4_EE22_M_emplace_hint_uniqueIJRKSt21piecewise_construct_tSt5tupleIJRS3_EESF_IJOdEEEEESt17_Rb_tree_iteratorIS4_ESt23_Rb_tree_const_iteratorIS4_EDpOT_
FNDA:0,_ZNSt8_Rb_treeIN5Moose18SingleSidedFaceArgESt4pairIKS1_dESt10_Select1stIS4_ESt4lessIS1_ESaIS4_EE22_M_emplace_hint_uniqueIJRKSt21piecewise_construct_tSt5tupleIJRS3_EESF_IJOdEEEEESt17_Rb_tree_iteratorIS4_ESt23_Rb_tree_const_iteratorIS4_EDpOT_
FN:2458,_ZNSt8_Rb_treeINSt7__cxx1112basic_stringIcSt11char_traitsIcESaIcEEESt4pairIKS5_PN7libMesh10Parameters5ValueEESt10_Select1stISC_ESt4lessIS5_ESaISC_EE22_M_emplace_hint_uniqueIJRKSt21piecewise_construct_tSt5tupleIJRS7_EESN_IJEEEEESt17_Rb_tree_iteratorISC_ESt23_Rb_tree_const_iteratorISC_EDpOT_
FNDA:0,_ZNSt8_Rb_treeINSt7__cxx1112basic_stringIcSt11char_traitsIcESaIcEEESt4pairIKS5_PN7libMesh10Parameters5ValueEESt10_Select1stISC_ESt4lessIS5_ESaISC_EE22_M_emplace_hint_uniqueIJRKSt21piecewise_construct_tSt5tupleIJRS7_EESN_IJEEEEESt17_Rb_tree_iteratorISC_ESt23_Rb_tree_const_iteratorISC_EDpOT_
FN:2458,_ZNSt8_Rb_treeIN5Moose7ElemArgESt4pairIKS1_N11MetaPhysicL10DualNumberIdNS4_28SemiDynamicSparseNumberArrayIdmNS4_8NWrapperILm53EEEEELb1EEEESt10_Select1stISB_ESt4lessIS1_ESaISB_EE22_M_emplace_hint_uniqueIJRKSt21piecewise_construct_tSt5tupleIJRS3_EESM_IJOSA_EEEEESt17_Rb_tree_iteratorISB_ESt23_Rb_tree_const_iteratorISB_EDpOT_
FNDA:0,_ZNSt8_Rb_treeIN5Moose7ElemArgESt4pairIKS1_N11MetaPhysicL10DualNumberIdNS4_28SemiDynamicSparseNumberArrayIdmNS4_8NWrapperILm53EEEEELb1EEEESt10_Select1stISB_ESt4lessIS1_ESaISB_EE22_M_emplace_hint_uniqueIJRKSt21piecewise_construct_tSt5tupleIJRS3_EESM_IJOSA_EEEEESt17_Rb_tree_iteratorISB_ESt23_Rb_tree_const_iteratorISB_EDpOT_
FN:2458,_ZNSt8_Rb_treeIN5Moose15ElemFromFaceArgESt4pairIKS1_N11MetaPhysicL10DualNumberIdNS4_28SemiDynamicSparseNumberArrayIdmNS4_8NWrapperILm53EEEEELb1EEEESt10_Select1stISB_ESt4lessIS1_ESaISB_EE22_M_emplace_hint_uniqueIJRKSt21piecewise_construct_tSt5tupleIJRS3_EESM_IJOSA_EEEEESt17_Rb_tree_iteratorISB_ESt23_Rb_tree_const_iteratorISB_EDpOT_
FNDA:0,_ZNSt8_Rb_treeIN5Moose15ElemFromFaceArgESt4pairIKS1_N11MetaPhysicL10DualNumberIdNS4_28SemiDynamicSparseNumberArrayIdmNS4_8NWrapperILm53EEEEELb1EEEESt10_Select1stISB_ESt4lessIS1_ESaISB_EE22_M_emplace_hint_uniqueIJRKSt21piecewise_construct_tSt5tupleIJRS3_EESM_IJOSA_EEEEESt17_Rb_tree_iteratorISB_ESt23_Rb_tree_const_iteratorISB_EDpOT_
FN:2458,_ZNSt8_Rb_treeINSt7__cxx1112basic_stringIcSt11char_traitsIcESaIcEEESt4pairIKS5_N15InputParameters8MetadataEESt10_Select1stISA_ESt4lessIS5_ESaISA_EE22_M_emplace_hint_uniqueIJRKSt21piecewise_construct_tSt5tupleIJRS7_EESL_IJEEEEESt17_Rb_tree_iteratorISA_ESt23_Rb_tree_const_iteratorISA_EDpOT_
FNDA:0,_ZNSt8_Rb_treeINSt7__cxx1112basic_stringIcSt11char_traitsIcESaIcEEESt4pairIKS5_N15InputParameters8MetadataEESt10_Select1stISA_ESt4lessIS5_ESaISA_EE22_M_emplace_hint_uniqueIJRKSt21piecewise_construct_tSt5tupleIJRS7_EESL_IJEEEEESt17_Rb_tree_iteratorISA_ESt23_Rb_tree_const_iteratorISA_EDpOT_
FN:2458,_ZNSt8_Rb_treeIN5Moose7FaceArgESt4pairIKS1_N11MetaPhysicL10DualNumberIdNS4_28SemiDynamicSparseNumberArrayIdmNS4_8NWrapperILm53EEEEELb1EEEESt10_Select1stISB_ESt4lessIS1_ESaISB_EE22_M_emplace_hint_uniqueIJRKSt21piecewise_construct_tSt5tupleIJRS3_EESM_IJOSA_EEEEESt17_Rb_tree_iteratorISB_ESt23_Rb_tree_const_iteratorISB_EDpOT_
FNDA:0,_ZNSt8_Rb_treeIN5Moose7FaceArgESt4pairIKS1_N11MetaPhysicL10DualNumberIdNS4_28SemiDynamicSparseNumberArrayIdmNS4_8NWrapperILm53EEEEELb1EEEESt10_Select1stISB_ESt4lessIS1_ESaISB_EE22_M_emplace_hint_uniqueIJRKSt21piecewise_construct_tSt5tupleIJRS3_EESM_IJOSA_EEEEESt17_Rb_tree_iteratorISB_ESt23_Rb_tree_const_iteratorISB_EDpOT_
FN:2458,_ZNSt8_Rb_treeIN5Moose18SingleSidedFaceArgESt4pairIKS1_N11MetaPhysicL10DualNumberIdNS4_28SemiDynamicSparseNumberArrayIdmNS4_8NWrapperILm53EEEEELb1EEEESt10_Select1stISB_ESt4lessIS1_ESaISB_EE22_M_emplace_hint_uniqueIJRKSt21piecewise_construct_tSt5tupleIJRS3_EESM_IJOSA_EEEEESt17_Rb_tree_iteratorISB_ESt23_Rb_tree_const_iteratorISB_EDpOT_
FNDA:0,_ZNSt8_Rb_treeIN5Moose18SingleSidedFaceArgESt4pairIKS1_N11MetaPhysicL10DualNumberIdNS4_28SemiDynamicSparseNumberArrayIdmNS4_8NWrapperILm53EEEEELb1EEEESt10_Select1stISB_ESt4lessIS1_ESaISB_EE22_M_emplace_hint_uniqueIJRKSt21piecewise_construct_tSt5tupleIJRS3_EESM_IJOSA_EEEEESt17_Rb_tree_iteratorISB_ESt23_Rb_tree_const_iteratorISB_EDpOT_
FN:2458,_ZNSt8_Rb_treeIN5Moose7ElemArgESt4pairIKS1_dESt10_Select1stIS4_ESt4lessIS1_ESaIS4_EE22_M_emplace_hint_uniqueIJRKSt21piecewise_construct_tSt5tupleIJRS3_EESF_IJOdEEEEESt17_Rb_tree_iteratorIS4_ESt23_Rb_tree_const_iteratorIS4_EDpOT_
FNDA:0,_ZNSt8_Rb_treeIN5Moose7ElemArgESt4pairIKS1_dESt10_Select1stIS4_ESt4lessIS1_ESaIS4_EE22_M_emplace_hint_uniqueIJRKSt21piecewise_construct_tSt5tupleIJRS3_EESF_IJOdEEEEESt17_Rb_tree_iteratorIS4_ESt23_Rb_tree_const_iteratorIS4_EDpOT_
FN:2458,_ZNSt8_Rb_treeIN5Moose15ElemFromFaceArgESt4pairIKS1_dESt10_Select1stIS4_ESt4lessIS1_ESaIS4_EE22_M_emplace_hint_uniqueIJRKSt21piecewise_construct_tSt5tupleIJRS3_EESF_IJOdEEEEESt17_Rb_tree_iteratorIS4_ESt23_Rb_tree_const_iteratorIS4_EDpOT_
FNDA:0,_ZNSt8_Rb_treeIN5Moose15ElemFromFaceArgESt4pairIKS1_dESt10_Select1stIS4_ESt4lessIS1_ESaIS4_EE22_M_emplace_hint_uniqueIJRKSt21piecewise_construct_tSt5tupleIJRS3_EESF_IJOdEEEEESt17_Rb_tree_iteratorIS4_ESt23_Rb_tree_const_iteratorIS4_EDpOT_
FN:2458,_ZNSt8_Rb_treeIN5Moose7FaceArgESt4pairIKS1_dESt10_Select1stIS4_ESt4lessIS1_ESaIS4_EE22_M_emplace_hint_uniqueIJRKSt21piecewise_construct_tSt5tupleIJRS3_EESF_IJOdEEEEESt17_Rb_tree_iteratorIS4_ESt23_Rb_tree_const_iteratorIS4_EDpOT_
FNDA:0,_ZNSt8_Rb_treeIN5Moose7FaceArgESt4pairIKS1_dESt10_Select1stIS4_ESt4lessIS1_ESaIS4_EE22_M_emplace_hint_uniqueIJRKSt21piecewise_construct_tSt5tupleIJRS3_EESF_IJOdEEEEESt17_Rb_tree_iteratorIS4_ESt23_Rb_tree_const_iteratorIS4_EDpOT_
FN:2510,_ZNSt8_Rb_treeINSt7__cxx1112basic_stringIcSt11char_traitsIcESaIcEEESt4pairIKS5_PN7libMesh10Parameters5ValueEESt10_Select1stISC_ESt4lessIS5_ESaISC_EE12_M_erase_auxESt23_Rb_tree_const_iteratorISC_E
FNDA:0,_ZNSt8_Rb_treeINSt7__cxx1112basic_stringIcSt11char_traitsIcESaIcEEESt4pairIKS5_PN7libMesh10Parameters5ValueEESt10_Select1stISC_ESt4lessIS5_ESaISC_EE12_M_erase_auxESt23_Rb_tree_const_iteratorISC_E
FN:2550,_ZNSt8_Rb_treeINSt7__cxx1112basic_stringIcSt11char_traitsIcESaIcEEESt4pairIKS5_PN7libMesh10Parameters5ValueEESt10_Select1stISC_ESt4lessIS5_ESaISC_EE4findERS7_
FNDA:0,_ZNSt8_Rb_treeINSt7__cxx1112basic_stringIcSt11char_traitsIcESaIcEEESt4pairIKS5_PN7libMesh10Parameters5ValueEESt10_Select1stISC_ESt4lessIS5_ESaISC_EE4findERS7_
FN:2563,_ZNKSt8_Rb_treeINSt7__cxx1112basic_stringIcSt11char_traitsIcESaIcEEESt4pairIKS5_N15InputParameters8MetadataEESt10_Select1stISA_ESt4lessIS5_ESaISA_EE4findERS7_
FNDA:0,_ZNKSt8_Rb_treeINSt7__cxx1112basic_stringIcSt11char_traitsIcESaIcEEESt4pairIKS5_N15InputParameters8MetadataEESt10_Select1stISA_ESt4lessIS5_ESaISA_EE4findERS7_
FN:2563,_ZNKSt8_Rb_treeI13MooseEnumItemS0_St9_IdentityIS0_ESt4lessIS0_ESaIS0_EE4findERKS0_
FNDA:0,_ZNKSt8_Rb_treeI13MooseEnumItemS0_St9_IdentityIS0_ESt4lessIS0_ESaIS0_EE4findERKS0_
FN:2563,_ZNKSt8_Rb_treeINSt7__cxx1112basic_stringIcSt11char_traitsIcESaIcEEESt4pairIKS5_PN7libMesh10Parameters5ValueEESt10_Select1stISC_ESt4lessIS5_ESaISC_EE4findERS7_
FNDA:0,_ZNKSt8_Rb_treeINSt7__cxx1112basic_stringIcSt11char_traitsIcESaIcEEESt4pairIKS5_PN7libMesh10Parameters5ValueEESt10_Select1stISC_ESt4lessIS5_ESaISC_EE4findERS7_
FNF:125
FNH:3
DA:114,0
DA:128,0
DA:208,0
DA:209,0
DA:210,0
DA:211,0
DA:282,0
DA:287,0
DA:302,0
DA:303,0
DA:350,0
DA:351,0
DA:355,0
DA:368,0
DA:369,0
DA:397,0
DA:458,0
DA:459,0
DA:461,0
DA:463,0
DA:465,0
DA:466,0
DA:469,0
DA:470,0
DA:458,0
DA:459,0
DA:461,0
DA:463,0
DA:465,0
DA:466,0
DA:469,0
DA:470,0
DA:477,0
DA:484,0
DA:487,0
DA:488,0
DA:491,0
DA:492,0
DA:495,0
DA:484,0
DA:487,0
DA:488,0
DA:491,0
DA:492,0
DA:495,0
DA:500,0
DA:502,0
DA:506,0
DA:507,0
DA:509,0
DA:511,0
DA:513,0
DA:515,0
DA:517,0
DA:518,0
DA:520,0
DA:521,0
DA:525,0
DA:528,0
DA:500,0
DA:502,0
DA:506,0
DA:507,0
DA:509,0
DA:511,0
DA:513,0
DA:515,0
DA:517,0
DA:518,0
DA:520,0
DA:521,0
DA:525,0
DA:528,0
DA:542,0
DA:543,0
DA:552,0
DA:571,0
DA:613,0
DA:622,0
DA:624,0
DA:626,0
DA:628,0
DA:613,0
DA:622,0
DA:624,0
DA:626,0
DA:628,0
DA:613,0
DA:622,0
DA:624,0
DA:626,0
DA:628,0
DA:613,0
DA:622,0
DA:624,0
DA:626,0
DA:628,0
DA:613,0
DA:622,0
DA:624,0
DA:626,0
DA:628,0
DA:632,0
DA:636,0
DA:632,0
DA:636,0
DA:632,0
DA:636,0
DA:632,0
DA:636,0
DA:632,0
DA:636,0
DA:632,0
DA:636,0
DA:632,0
DA:636,0
DA:632,0
DA:635,0
DA:636,0
DA:632,0
DA:635,0
DA:636,0
DA:632,0
DA:635,0
DA:636,0
DA:632,0
DA:635,0
DA:636,0
DA:632,0
DA:635,0
DA:636,0
DA:647,633
DA:652,633
DA:656,633
DA:652,0
DA:656,0
DA:652,0
DA:656,0
DA:662,0
DA:663,0
DA:664,0
DA:665,0
DA:729,0
DA:749,422
DA:755,0
DA:760,0
DA:764,0
DA:790,0
DA:794,0
DA:798,0
DA:802,0
DA:895,0
DA:897,0
DA:898,0
DA:899,0
DA:900,0
DA:901,0
DA:895,0
DA:897,0
DA:898,0
DA:899,0
DA:900,0
DA:901,0
DA:991,211
DA:1003,0
DA:1007,0
DA:1011,0
DA:1015,0
DA:1035,0
DA:1039,0
DA:1211,0
DA:1214,0
DA:1216,0
DA:1217,0
DA:1259,0
DA:1261,0
DA:1263,0
DA:1259,0
DA:1261,0
DA:1263,0
DA:1259,0
DA:1261,0
DA:1263,0
DA:1259,0
DA:1261,0
DA:1263,0
DA:1259,0
DA:1261,0
DA:1263,0
DA:1259,0
DA:1261,0
DA:1263,0
DA:1259,0
DA:1261,0
DA:1263,0
DA:1259,0
DA:1261,0
DA:1263,0
DA:1277,0
DA:1281,0
DA:1763,0
DA:1766,0
DA:1785,0
DA:1788,0
DA:1789,0
DA:1792,0
DA:1763,0
DA:1766,0
DA:1785,0
DA:1788,0
DA:1789,0
DA:1792,0
DA:1803,0
DA:1812,0
DA:1813,0
DA:1818,0
DA:1819,0
DA:1820,0
DA:1821,0
DA:1803,0
DA:1812,0
DA:1813,0
DA:1818,0
DA:1819,0
DA:1820,0
DA:1821,0
DA:1877,0
DA:1882,0
DA:1886,0
DA:1887,0
DA:1891,0
DA:1894,0
DA:1895,0
DA:1896,0
DA:1897,0
DA:1902,0
DA:1904,0
DA:1905,0
DA:1907,0
DA:1877,0
DA:1882,0
DA:1886,0
DA:1887,0
DA:1891,0
DA:1894,0
DA:1895,0
DA:1896,0
DA:1897,0
DA:1902,0
DA:1904,0
DA:1905,0
DA:1907,0
DA:1913,844
DA:1917,1477
DA:1919,633
DA:1921,633
DA:1924,844
DA:1913,0
DA:1917,0
DA:1919,0
DA:1924,0
DA:1913,0
DA:1917,0
DA:1919,0
DA:1924,0
DA:1913,0
DA:1917,0
DA:1919,0
DA:1924,0
DA:1913,0
DA:1917,0
DA:1919,0
DA:1924,0
DA:1913,0
DA:1917,0
DA:1919,0
DA:1924,0
DA:1913,0
DA:1917,0
DA:1919,0
DA:1924,0
DA:1913,0
DA:1917,0
DA:1919,0
DA:1921,0
DA:1924,0
DA:1913,0
DA:1917,0
DA:1919,0
DA:1924,0
DA:1913,0
DA:1917,0
DA:1919,0
DA:1924,0
DA:1913,0
DA:1917,0
DA:1919,0
DA:1921,0
DA:1924,0
DA:1913,211
DA:1917,211
DA:1919,0
DA:1924,211
DA:1913,0
DA:1917,0
DA:1919,0
DA:1924,0
DA:1913,0
DA:1917,0
DA:1919,0
DA:1924,0
DA:1913,0
DA:1917,0
DA:1919,0
DA:1924,0
DA:1913,0
DA:1917,0
DA:1919,0
DA:1924,0
DA:1913,0
DA:1917,0
DA:1919,0
DA:1924,0
DA:1913,0
DA:1917,0
DA:1919,0
DA:1924,0
DA:1913,0
DA:1917,0
DA:1919,0
DA:1924,0
DA:1913,0
DA:1917,0
DA:1919,0
DA:1924,0
DA:1930,0
DA:1934,0
DA:1935,0
DA:1939,0
DA:1930,0
DA:1934,0
DA:1935,0
DA:1939,0
DA:1930,0
DA:1934,0
DA:1935,0
DA:1939,0
DA:1930,0
DA:1934,0
DA:1935,0
DA:1939,0
DA:1930,0
DA:1934,0
DA:1935,0
DA:1939,0
DA:1930,0
DA:1934,0
DA:1935,0
DA:1939,0
DA:1930,0
DA:1934,0
DA:1935,0
DA:1939,0
DA:1930,0
DA:1934,0
DA:1935,0
DA:1939,0
DA:1930,0
DA:1934,0
DA:1935,0
DA:1939,0
DA:1930,0
DA:1934,0
DA:1935,0
DA:1939,0
DA:1946,0
DA:1950,0
DA:1951,0
DA:1955,0
DA:1946,0
DA:1950,0
DA:1951,0
DA:1955,0
DA:1946,0
DA:1950,0
DA:1951,0
DA:1955,0
DA:2091,0
DA:2098,0
DA:2102,0
DA:2105,0
DA:2107,0
DA:2108,0
DA:2112,0
DA:2113,0
DA:2114,0
DA:2091,0
DA:2098,0
DA:2102,0
DA:2105,0
DA:2107,0
DA:2108,0
DA:2112,0
DA:2113,0
DA:2114,0
DA:2091,0
DA:2098,0
DA:2102,0
DA:2105,0
DA:2107,0
DA:2108,0
DA:2112,0
DA:2113,0
DA:2114,0
DA:2091,0
DA:2098,0
DA:2102,0
DA:2105,0
DA:2107,0
DA:2108,0
DA:2112,0
DA:2113,0
DA:2114,0
DA:2091,0
DA:2098,0
DA:2102,0
DA:2105,0
DA:2107,0
DA:2108,0
DA:2112,0
DA:2113,0
DA:2114,0
DA:2091,0
DA:2098,0
DA:2102,0
DA:2105,0
DA:2107,0
DA:2108,0
DA:2112,0
DA:2113,0
DA:2114,0
DA:2091,0
DA:2098,0
DA:2102,0
DA:2105,0
DA:2107,0
DA:2108,0
DA:2112,0
DA:2113,0
DA:2114,0
DA:2091,0
DA:2098,0
DA:2102,0
DA:2105,0
DA:2107,0
DA:2108,0
DA:2112,0
DA:2113,0
DA:2114,0
DA:2091,0
DA:2098,0
DA:2102,0
DA:2105,0
DA:2107,0
DA:2108,0
DA:2112,0
DA:2113,0
DA:2114,0
DA:2091,0
DA:2098,0
DA:2102,0
DA:2105,0
DA:2107,0
DA:2108,0
DA:2112,0
DA:2113,0
DA:2114,0
DA:2091,0
DA:2098,0
DA:2102,0
DA:2105,0
DA:2107,0
DA:2108,0
DA:2112,0
DA:2113,0
DA:2114,0
DA:2091,0
DA:2098,0
DA:2102,0
DA:2105,0
DA:2107,0
DA:2108,0
DA:2112,0
DA:2113,0
DA:2114,0
DA:2145,0
DA:2154,0
DA:2156,0
DA:2159,0
DA:2161,0
DA:2164,0
DA:2145,0
DA:2154,0
DA:2156,0
DA:2159,0
DA:2161,0
DA:2164,0
DA:2193,0
DA:2201,0
DA:2204,0
DA:2205,0
DA:2207,0
DA:2209,0
DA:2213,0
DA:2214,0
DA:2215,0
DA:2217,0
DA:2218,0
DA:2220,0
DA:2223,0
DA:2225,0
DA:2229,0
DA:2230,0
DA:2231,0
DA:2233,0
DA:2234,0
DA:2236,0
DA:2239,0
DA:2243,0
DA:2193,0
DA:2201,0
DA:2204,0
DA:2205,0
DA:2207,0
DA:2209,0
DA:2213,0
DA:2214,0
DA:2215,0
DA:2217,0
DA:2218,0
DA:2220,0
DA:2223,0
DA:2225,0
DA:2229,0
DA:2230,0
DA:2231,0
DA:2233,0
DA:2234,0
DA:2236,0
DA:2239,0
DA:2243,0
DA:2193,0
DA:2201,0
DA:2204,0
DA:2205,0
DA:2207,0
DA:2209,0
DA:2213,0
DA:2214,0
DA:2215,0
DA:2217,0
DA:2218,0
DA:2220,0
DA:2223,0
DA:2225,0
DA:2229,0
DA:2230,0
DA:2231,0
DA:2233,0
DA:2234,0
DA:2236,0
DA:2239,0
DA:2243,0
DA:2193,0
DA:2201,0
DA:2204,0
DA:2205,0
DA:2207,0
DA:2209,0
DA:2213,0
DA:2214,0
DA:2215,0
DA:2217,0
DA:2218,0
DA:2220,0
DA:2223,0
DA:2225,0
DA:2229,0
DA:2230,0
DA:2231,0
DA:2233,0
DA:2234,0
DA:2236,0
DA:2239,0
DA:2243,0
DA:2193,0
DA:2201,0
DA:2204,0
DA:2205,0
DA:2207,0
DA:2209,0
DA:2213,0
DA:2214,0
DA:2215,0
DA:2217,0
DA:2218,0
DA:2220,0
DA:2223,0
DA:2225,0
DA:2229,0
DA:2230,0
DA:2231,0
DA:2233,0
DA:2234,0
DA:2236,0
DA:2239,0
DA:2243,0
DA:2193,0
DA:2201,0
DA:2204,0
DA:2205,0
DA:2207,0
DA:2209,0
DA:2213,0
DA:2214,0
DA:2215,0
DA:2217,0
DA:2218,0
DA:2220,0
DA:2223,0
DA:2225,0
DA:2229,0
DA:2230,0
DA:2231,0
DA:2233,0
DA:2234,0
DA:2236,0
DA:2239,0
DA:2243,0
DA:2193,0
DA:2201,0
DA:2204,0
DA:2205,0
DA:2207,0
DA:2209,0
DA:2213,0
DA:2214,0
DA:2215,0
DA:2217,0
DA:2218,0
DA:2220,0
DA:2223,0
DA:2225,0
DA:2229,0
DA:2230,0
DA:2231,0
DA:2233,0
DA:2234,0
DA:2236,0
DA:2239,0
DA:2243,0
DA:2193,0
DA:2201,0
DA:2204,0
DA:2205,0
DA:2207,0
DA:2209,0
DA:2213,0
DA:2214,0
DA:2215,0
DA:2217,0
DA:2218,0
DA:2220,0
DA:2223,0
DA:2225,0
DA:2229,0
DA:2230,0
DA:2231,0
DA:2233,0
DA:2234,0
DA:2236,0
DA:2239,0
DA:2243,0
DA:2193,0
DA:2201,0
DA:2204,0
DA:2205,0
DA:2207,0
DA:2209,0
DA:2213,0
DA:2214,0
DA:2215,0
DA:2217,0
DA:2218,0
DA:2220,0
DA:2223,0
DA:2225,0
DA:2229,0
DA:2230,0
DA:2231,0
DA:2233,0
DA:2234,0
DA:2236,0
DA:2239,0
DA:2243,0
DA:2193,0
DA:2201,0
DA:2204,0
DA:2205,0
DA:2207,0
DA:2209,0
DA:2213,0
DA:2214,0
DA:2215,0
DA:2217,0
DA:2218,0
DA:2220,0
DA:2223,0
DA:2225,0
DA:2229,0
DA:2230,0
DA:2231,0
DA:2233,0
DA:2234,0
DA:2236,0
DA:2239,0
DA:2243,0
DA:2360,0
DA:2363,0
DA:2364,0
DA:2367,0
DA:2368,0
DA:2369,0
DA:2370,0
DA:2360,0
DA:2363,0
DA:2364,0
DA:2367,0
DA:2368,0
DA:2369,0
DA:2370,0
DA:2360,0
DA:2363,0
DA:2364,0
DA:2367,0
DA:2368,0
DA:2369,0
DA:2370,0
DA:2360,0
DA:2363,0
DA:2364,0
DA:2367,0
DA:2368,0
DA:2369,0
DA:2370,0
DA:2360,0
DA:2363,0
DA:2364,0
DA:2367,0
DA:2368,0
DA:2369,0
DA:2370,0
DA:2360,0
DA:2363,0
DA:2364,0
DA:2367,0
DA:2368,0
DA:2369,0
DA:2370,0
DA:2360,0
DA:2363,0
DA:2364,0
DA:2367,0
DA:2368,0
DA:2369,0
DA:2370,0
DA:2360,0
DA:2363,0
DA:2364,0
DA:2367,0
DA:2368,0
DA:2369,0
DA:2370,0
DA:2360,0
DA:2363,0
DA:2364,0
DA:2367,0
DA:2368,0
DA:2369,0
DA:2370,0
DA:2360,0
DA:2363,0
DA:2364,0
DA:2367,0
DA:2368,0
DA:2369,0
DA:2370,0
DA:2458,0
DA:2461,0
DA:2465,0
DA:2467,0
DA:2468,0
DA:2471,0
DA:2458,0
DA:2461,0
DA:2465,0
DA:2467,0
DA:2468,0
DA:2471,0
DA:2458,0
DA:2461,0
DA:2465,0
DA:2467,0
DA:2468,0
DA:2471,0
DA:2458,0
DA:2465,0
DA:2467,0
DA:2468,0
DA:2471,0
DA:2458,0
DA:2461,0
DA:2465,0
DA:2467,0
DA:2468,0
DA:2471,0
DA:2458,0
DA:2461,0
DA:2465,0
DA:2467,0
DA:2468,0
DA:2471,0
DA:2458,0
DA:2461,0
DA:2465,0
DA:2467,0
DA:2468,0
DA:2471,0
DA:2458,0
DA:2461,0
DA:2465,0
DA:2467,0
DA:2468,0
DA:2471,0
DA:2458,0
DA:2461,0
DA:2465,0
DA:2467,0
DA:2468,0
DA:2470,0
DA:2471,0
DA:2458,0
DA:2461,0
DA:2465,0
DA:2467,0
DA:2468,0
DA:2471,0
DA:2510,0
DA:2515,0
DA:2516,0
DA:2518,0
DA:2519,0
DA:2550,0
DA:2553,0
DA:2555,0
DA:2556,0
DA:2563,0
DA:2566,0
DA:2568,0
DA:2569,0
DA:2563,0
DA:2566,0
DA:2568,0
DA:2569,0
DA:2563,0
DA:2566,0
DA:2568,0
DA:2569,0
LF:878
LH:13
end_of_record
SF:/usr/share/miniconda/envs/moose/x86_64-conda-linux-gnu/include/c++/10.3.0/bits/hashtable.h
FN:276,_ZNSt10_HashtableImSt4pairIKmSt6vectorIS0_IbN11MetaPhysicL10DualNumberIdNS3_28SemiDynamicSparseNumberArrayIdmNS3_8NWrapperILm53EEEEELb1EEEESaISA_EEESaISD_ENSt8__detail10_Select1stESt8equal_toImESt4hashImENSF_18_Mod_range_hashingENSF_20_Default_ranged_hashENSF_20_Prime_rehash_policyENSF_17_Hashtable_traitsILb0ELb0ELb1EEEE12_Scoped_nodeD2Ev
FNDA:0,_ZNSt10_HashtableImSt4pairIKmSt6vectorIS0_IbN11MetaPhysicL10DualNumberIdNS3_28SemiDynamicSparseNumberArrayIdmNS3_8NWrapperILm53EEEEELb1EEEESaISA_EEESaISD_ENSt8__detail10_Select1stESt8equal_toImESt4hashImENSF_18_Mod_range_hashingENSF_20_Default_ranged_hashENSF_20_Prime_rehash_policyENSF_17_Hashtable_traitsILb0ELb0ELb1EEEE12_Scoped_nodeD2Ev
FN:276,_ZNSt10_HashtableImSt4pairIKmSt6vectorIS2_IS0_IbN11MetaPhysicL10DualNumberIdNS3_28SemiDynamicSparseNumberArrayIdmNS3_8NWrapperILm53EEEEELb1EEEESaISA_EESaISC_EEESaISF_ENSt8__detail10_Select1stESt8equal_toImESt4hashImENSH_18_Mod_range_hashingENSH_20_Default_ranged_hashENSH_20_Prime_rehash_policyENSH_17_Hashtable_traitsILb0ELb0ELb1EEEE12_Scoped_nodeD2Ev
FNDA:0,_ZNSt10_HashtableImSt4pairIKmSt6vectorIS2_IS0_IbN11MetaPhysicL10DualNumberIdNS3_28SemiDynamicSparseNumberArrayIdmNS3_8NWrapperILm53EEEEELb1EEEESaISA_EESaISC_EEESaISF_ENSt8__detail10_Select1stESt8equal_toImESt4hashImENSH_18_Mod_range_hashingENSH_20_Default_ranged_hashENSH_20_Prime_rehash_policyENSH_17_Hashtable_traitsILb0ELb0ELb1EEEE12_Scoped_nodeD2Ev
FN:276,_ZNSt10_HashtableImSt4pairIKmSt6vectorIS0_IbdESaIS3_EEESaIS6_ENSt8__detail10_Select1stESt8equal_toImESt4hashImENS8_18_Mod_range_hashingENS8_20_Default_ranged_hashENS8_20_Prime_rehash_policyENS8_17_Hashtable_traitsILb0ELb0ELb1EEEE12_Scoped_nodeD2Ev
FNDA:0,_ZNSt10_HashtableImSt4pairIKmSt6vectorIS0_IbdESaIS3_EEESaIS6_ENSt8__detail10_Select1stESt8equal_toImESt4hashImENS8_18_Mod_range_hashingENS8_20_Default_ranged_hashENS8_20_Prime_rehash_policyENS8_17_Hashtable_traitsILb0ELb0ELb1EEEE12_Scoped_nodeD2Ev
FN:276,_ZNSt10_HashtableImSt4pairIKmSt6vectorIS2_IS0_IbdESaIS3_EESaIS5_EEESaIS8_ENSt8__detail10_Select1stESt8equal_toImESt4hashImENSA_18_Mod_range_hashingENSA_20_Default_ranged_hashENSA_20_Prime_rehash_policyENSA_17_Hashtable_traitsILb0ELb0ELb1EEEE12_Scoped_nodeD2Ev
FNDA:0,_ZNSt10_HashtableImSt4pairIKmSt6vectorIS2_IS0_IbdESaIS3_EESaIS5_EEESaIS8_ENSt8__detail10_Select1stESt8equal_toImESt4hashImENSA_18_Mod_range_hashingENSA_20_Default_ranged_hashENSA_20_Prime_rehash_policyENSA_17_Hashtable_traitsILb0ELb0ELb1EEEE12_Scoped_nodeD2Ev
FN:411,_ZNSt10_HashtableINSt7__cxx1112basic_stringIcSt11char_traitsIcESaIcEEESt4pairIKS5_St6vectorIP19MooseVariableScalarSaISA_EEESaISD_ENSt8__detail10_Select1stESt8equal_toIS5_ESt4hashIS5_ENSF_18_Mod_range_hashingENSF_20_Default_ranged_hashENSF_20_Prime_rehash_policyENSF_17_Hashtable_traitsILb1ELb0ELb1EEEE21_M_deallocate_bucketsEv
FNDA:0,_ZNSt10_HashtableINSt7__cxx1112basic_stringIcSt11char_traitsIcESaIcEEESt4pairIKS5_St6vectorIP19MooseVariableScalarSaISA_EEESaISD_ENSt8__detail10_Select1stESt8equal_toIS5_ESt4hashIS5_ENSF_18_Mod_range_hashingENSF_20_Default_ranged_hashENSF_20_Prime_rehash_policyENSF_17_Hashtable_traitsILb1ELb0ELb1EEEE21_M_deallocate_bucketsEv
FN:411,_ZNSt10_HashtableINSt7__cxx1112basic_stringIcSt11char_traitsIcESaIcEEESt4pairIKS5_St10unique_ptrI10MooseArrayIN7libMesh11VectorValueIN11MetaPhysicL10DualNumberIdNSC_28SemiDynamicSparseNumberArrayIdmNSC_8NWrapperILm53EEEEELb1EEEEEESt14default_deleteISK_EEESaISO_ENSt8__detail10_Select1stESt8equal_toIS5_ESt4hashIS5_ENSQ_18_Mod_range_hashingENSQ_20_Default_ranged_hashENSQ_20_Prime_rehash_policyENSQ_17_Hashtable_traitsILb1ELb0ELb1EEEE21_M_deallocate_bucketsEv
FNDA:0,_ZNSt10_HashtableINSt7__cxx1112basic_stringIcSt11char_traitsIcESaIcEEESt4pairIKS5_St10unique_ptrI10MooseArrayIN7libMesh11VectorValueIN11MetaPhysicL10DualNumberIdNSC_28SemiDynamicSparseNumberArrayIdmNSC_8NWrapperILm53EEEEELb1EEEEEESt14default_deleteISK_EEESaISO_ENSt8__detail10_Select1stESt8equal_toIS5_ESt4hashIS5_ENSQ_18_Mod_range_hashingENSQ_20_Default_ranged_hashENSQ_20_Prime_rehash_policyENSQ_17_Hashtable_traitsILb1ELb0ELb1EEEE21_M_deallocate_bucketsEv
FN:411,_ZNSt10_HashtableINSt7__cxx1112basic_stringIcSt11char_traitsIcESaIcEEESt4pairIKS5_St10unique_ptrI10MooseArrayIN5Eigen6MatrixIdLin1ELi1ELi0ELin1ELi1EEEESt14default_deleteISD_EEESaISH_ENSt8__detail10_Select1stESt8equal_toIS5_ESt4hashIS5_ENSJ_18_Mod_range_hashingENSJ_20_Default_ranged_hashENSJ_20_Prime_rehash_policyENSJ_17_Hashtable_traitsILb1ELb0ELb1EEEE21_M_deallocate_bucketsEv
FNDA:0,_ZNSt10_HashtableINSt7__cxx1112basic_stringIcSt11char_traitsIcESaIcEEESt4pairIKS5_St10unique_ptrI10MooseArrayIN5Eigen6MatrixIdLin1ELi1ELi0ELin1ELi1EEEESt14default_deleteISD_EEESaISH_ENSt8__detail10_Select1stESt8equal_toIS5_ESt4hashIS5_ENSJ_18_Mod_range_hashingENSJ_20_Default_ranged_hashENSJ_20_Prime_rehash_policyENSJ_17_Hashtable_traitsILb1ELb0ELb1EEEE21_M_deallocate_bucketsEv
FN:411,_ZNSt10_HashtableINSt7__cxx1112basic_stringIcSt11char_traitsIcESaIcEEESt4pairIKS5_St6vectorIjSaIjEEESaISB_ENSt8__detail10_Select1stESt8equal_toIS5_ESt4hashIS5_ENSD_18_Mod_range_hashingENSD_20_Default_ranged_hashENSD_20_Prime_rehash_policyENSD_17_Hashtable_traitsILb1ELb0ELb1EEEE21_M_deallocate_bucketsEv
FNDA:0,_ZNSt10_HashtableINSt7__cxx1112basic_stringIcSt11char_traitsIcESaIcEEESt4pairIKS5_St6vectorIjSaIjEEESaISB_ENSt8__detail10_Select1stESt8equal_toIS5_ESt4hashIS5_ENSD_18_Mod_range_hashingENSD_20_Default_ranged_hashENSD_20_Prime_rehash_policyENSD_17_Hashtable_traitsILb1ELb0ELb1EEEE21_M_deallocate_bucketsEv
FN:411,_ZNSt10_HashtableImSt4pairIKmSt6vectorIS0_IbdESaIS3_EEESaIS6_ENSt8__detail10_Select1stESt8equal_toImESt4hashImENS8_18_Mod_range_hashingENS8_20_Default_ranged_hashENS8_20_Prime_rehash_policyENS8_17_Hashtable_traitsILb0ELb0ELb1EEEE21_M_deallocate_bucketsEv
FNDA:0,_ZNSt10_HashtableImSt4pairIKmSt6vectorIS0_IbdESaIS3_EEESaIS6_ENSt8__detail10_Select1stESt8equal_toImESt4hashImENS8_18_Mod_range_hashingENS8_20_Default_ranged_hashENS8_20_Prime_rehash_policyENS8_17_Hashtable_traitsILb0ELb0ELb1EEEE21_M_deallocate_bucketsEv
FN:411,_ZNSt10_HashtableINSt7__cxx1112basic_stringIcSt11char_traitsIcESaIcEEESt4pairIKS5_St10unique_ptrI10MooseArrayIN7libMesh11VectorValueIdEEESt14default_deleteISD_EEESaISH_ENSt8__detail10_Select1stESt8equal_toIS5_ESt4hashIS5_ENSJ_18_Mod_range_hashingENSJ_20_Default_ranged_hashENSJ_20_Prime_rehash_policyENSJ_17_Hashtable_traitsILb1ELb0ELb1EEEE21_M_deallocate_bucketsEv
FNDA:0,_ZNSt10_HashtableINSt7__cxx1112basic_stringIcSt11char_traitsIcESaIcEEESt4pairIKS5_St10unique_ptrI10MooseArrayIN7libMesh11VectorValueIdEEESt14default_deleteISD_EEESaISH_ENSt8__detail10_Select1stESt8equal_toIS5_ESt4hashIS5_ENSJ_18_Mod_range_hashingENSJ_20_Default_ranged_hashENSJ_20_Prime_rehash_policyENSJ_17_Hashtable_traitsILb1ELb0ELb1EEEE21_M_deallocate_bucketsEv
FN:411,_ZNSt10_HashtableImSt4pairIKmSt6vectorIS2_IS0_IbdESaIS3_EESaIS5_EEESaIS8_ENSt8__detail10_Select1stESt8equal_toImESt4hashImENSA_18_Mod_range_hashingENSA_20_Default_ranged_hashENSA_20_Prime_rehash_policyENSA_17_Hashtable_traitsILb0ELb0ELb1EEEE21_M_deallocate_bucketsEv
FNDA:0,_ZNSt10_HashtableImSt4pairIKmSt6vectorIS2_IS0_IbdESaIS3_EESaIS5_EEESaIS8_ENSt8__detail10_Select1stESt8equal_toImESt4hashImENSA_18_Mod_range_hashingENSA_20_Default_ranged_hashENSA_20_Prime_rehash_policyENSA_17_Hashtable_traitsILb0ELb0ELb1EEEE21_M_deallocate_bucketsEv
FN:411,_ZNSt10_HashtableImSt4pairIKmSt6vectorIS0_IbN11MetaPhysicL10DualNumberIdNS3_28SemiDynamicSparseNumberArrayIdmNS3_8NWrapperILm53EEEEELb1EEEESaISA_EEESaISD_ENSt8__detail10_Select1stESt8equal_toImESt4hashImENSF_18_Mod_range_hashingENSF_20_Default_ranged_hashENSF_20_Prime_rehash_policyENSF_17_Hashtable_traitsILb0ELb0ELb1EEEE21_M_deallocate_bucketsEv
FNDA:0,_ZNSt10_HashtableImSt4pairIKmSt6vectorIS0_IbN11MetaPhysicL10DualNumberIdNS3_28SemiDynamicSparseNumberArrayIdmNS3_8NWrapperILm53EEEEELb1EEEESaISA_EEESaISD_ENSt8__detail10_Select1stESt8equal_toImESt4hashImENSF_18_Mod_range_hashingENSF_20_Default_ranged_hashENSF_20_Prime_rehash_policyENSF_17_Hashtable_traitsILb0ELb0ELb1EEEE21_M_deallocate_bucketsEv
FN:411,_ZNSt10_HashtableINSt7__cxx1112basic_stringIcSt11char_traitsIcESaIcEEESt4pairIKS5_St6vectorISt10unique_ptrI10MooseArrayIdESt14default_deleteISB_EESaISE_EEESaISH_ENSt8__detail10_Select1stESt8equal_toIS5_ESt4hashIS5_ENSJ_18_Mod_range_hashingENSJ_20_Default_ranged_hashENSJ_20_Prime_rehash_policyENSJ_17_Hashtable_traitsILb1ELb0ELb1EEEE21_M_deallocate_bucketsEv
FNDA:0,_ZNSt10_HashtableINSt7__cxx1112basic_stringIcSt11char_traitsIcESaIcEEESt4pairIKS5_St6vectorISt10unique_ptrI10MooseArrayIdESt14default_deleteISB_EESaISE_EEESaISH_ENSt8__detail10_Select1stESt8equal_toIS5_ESt4hashIS5_ENSJ_18_Mod_range_hashingENSJ_20_Default_ranged_hashENSJ_20_Prime_rehash_policyENSJ_17_Hashtable_traitsILb1ELb0ELb1EEEE21_M_deallocate_bucketsEv
FN:411,_ZNSt10_HashtableImSt4pairIKmSt6vectorIS2_IS0_IbN11MetaPhysicL10DualNumberIdNS3_28SemiDynamicSparseNumberArrayIdmNS3_8NWrapperILm53EEEEELb1EEEESaISA_EESaISC_EEESaISF_ENSt8__detail10_Select1stESt8equal_toImESt4hashImENSH_18_Mod_range_hashingENSH_20_Default_ranged_hashENSH_20_Prime_rehash_policyENSH_17_Hashtable_traitsILb0ELb0ELb1EEEE21_M_deallocate_bucketsEv
FNDA:0,_ZNSt10_HashtableImSt4pairIKmSt6vectorIS2_IS0_IbN11MetaPhysicL10DualNumberIdNS3_28SemiDynamicSparseNumberArrayIdmNS3_8NWrapperILm53EEEEELb1EEEESaISA_EESaISC_EEESaISF_ENSt8__detail10_Select1stESt8equal_toImESt4hashImENSH_18_Mod_range_hashingENSH_20_Default_ranged_hashENSH_20_Prime_rehash_policyENSH_17_Hashtable_traitsILb0ELb0ELb1EEEE21_M_deallocate_bucketsEv
FN:411,_ZNSt10_HashtableINSt7__cxx1112basic_stringIcSt11char_traitsIcESaIcEEESt4pairIKS5_S5_ESaIS8_ENSt8__detail10_Select1stESt8equal_toIS5_ESt4hashIS5_ENSA_18_Mod_range_hashingENSA_20_Default_ranged_hashENSA_20_Prime_rehash_policyENSA_17_Hashtable_traitsILb1ELb0ELb1EEEE21_M_deallocate_bucketsEv
FNDA:0,_ZNSt10_HashtableINSt7__cxx1112basic_stringIcSt11char_traitsIcESaIcEEESt4pairIKS5_S5_ESaIS8_ENSt8__detail10_Select1stESt8equal_toIS5_ESt4hashIS5_ENSA_18_Mod_range_hashingENSA_20_Default_ranged_hashENSA_20_Prime_rehash_policyENSA_17_Hashtable_traitsILb1ELb0ELb1EEEE21_M_deallocate_bucketsEv
FN:411,_ZNSt10_HashtableINSt7__cxx1112basic_stringIcSt11char_traitsIcESaIcEEESt4pairIKS5_St6vectorIP22MooseVariableFieldBaseSaISA_EEESaISD_ENSt8__detail10_Select1stESt8equal_toIS5_ESt4hashIS5_ENSF_18_Mod_range_hashingENSF_20_Default_ranged_hashENSF_20_Prime_rehash_policyENSF_17_Hashtable_traitsILb1ELb0ELb1EEEE21_M_deallocate_bucketsEv
FNDA:0,_ZNSt10_HashtableINSt7__cxx1112basic_stringIcSt11char_traitsIcESaIcEEESt4pairIKS5_St6vectorIP22MooseVariableFieldBaseSaISA_EEESaISD_ENSt8__detail10_Select1stESt8equal_toIS5_ESt4hashIS5_ENSF_18_Mod_range_hashingENSF_20_Default_ranged_hashENSF_20_Prime_rehash_policyENSF_17_Hashtable_traitsILb1ELb0ELb1EEEE21_M_deallocate_bucketsEv
FN:411,_ZNSt10_HashtableINSt7__cxx1112basic_stringIcSt11char_traitsIcESaIcEEESt4pairIKS5_St10unique_ptrI10MooseArrayIdESt14default_deleteISA_EEESaISE_ENSt8__detail10_Select1stESt8equal_toIS5_ESt4hashIS5_ENSG_18_Mod_range_hashingENSG_20_Default_ranged_hashENSG_20_Prime_rehash_policyENSG_17_Hashtable_traitsILb1ELb0ELb1EEEE21_M_deallocate_bucketsEv
FNDA:0,_ZNSt10_HashtableINSt7__cxx1112basic_stringIcSt11char_traitsIcESaIcEEESt4pairIKS5_St10unique_ptrI10MooseArrayIdESt14default_deleteISA_EEESaISE_ENSt8__detail10_Select1stESt8equal_toIS5_ESt4hashIS5_ENSG_18_Mod_range_hashingENSG_20_Default_ranged_hashENSG_20_Prime_rehash_policyENSG_17_Hashtable_traitsILb1ELb0ELb1EEEE21_M_deallocate_bucketsEv
FN:411,_ZNSt10_HashtableINSt7__cxx1112basic_stringIcSt11char_traitsIcESaIcEEESt4pairIKS5_St10unique_ptrI10MooseArrayIN11MetaPhysicL10DualNumberIdNSA_28SemiDynamicSparseNumberArrayIdmNSA_8NWrapperILm53EEEEELb1EEEESt14default_deleteISH_EEESaISL_ENSt8__detail10_Select1stESt8equal_toIS5_ESt4hashIS5_ENSN_18_Mod_range_hashingENSN_20_Default_ranged_hashENSN_20_Prime_rehash_policyENSN_17_Hashtable_traitsILb1ELb0ELb1EEEE21_M_deallocate_bucketsEv
FNDA:0,_ZNSt10_HashtableINSt7__cxx1112basic_stringIcSt11char_traitsIcESaIcEEESt4pairIKS5_St10unique_ptrI10MooseArrayIN11MetaPhysicL10DualNumberIdNSA_28SemiDynamicSparseNumberArrayIdmNSA_8NWrapperILm53EEEEELb1EEEESt14default_deleteISH_EEESaISL_ENSt8__detail10_Select1stESt8equal_toIS5_ESt4hashIS5_ENSN_18_Mod_range_hashingENSN_20_Default_ranged_hashENSN_20_Prime_rehash_policyENSN_17_Hashtable_traitsILb1ELb0ELb1EEEE21_M_deallocate_bucketsEv
FN:1567,_ZNKSt10_HashtableImSt4pairIKmSt6vectorIS0_IbN11MetaPhysicL10DualNumberIdNS3_28SemiDynamicSparseNumberArrayIdmNS3_8NWrapperILm53EEEEELb1EEEESaISA_EEESaISD_ENSt8__detail10_Select1stESt8equal_toImESt4hashImENSF_18_Mod_range_hashingENSF_20_Default_ranged_hashENSF_20_Prime_rehash_policyENSF_17_Hashtable_traitsILb0ELb0ELb1EEEE19_M_find_before_nodeEmRS1_m
FNDA:0,_ZNKSt10_HashtableImSt4pairIKmSt6vectorIS0_IbN11MetaPhysicL10DualNumberIdNS3_28SemiDynamicSparseNumberArrayIdmNS3_8NWrapperILm53EEEEELb1EEEESaISA_EEESaISD_ENSt8__detail10_Select1stESt8equal_toImESt4hashImENSF_18_Mod_range_hashingENSF_20_Default_ranged_hashENSF_20_Prime_rehash_policyENSF_17_Hashtable_traitsILb0ELb0ELb1EEEE19_M_find_before_nodeEmRS1_m
FN:1567,_ZNKSt10_HashtableImSt4pairIKmSt6vectorIS2_IS0_IbN11MetaPhysicL10DualNumberIdNS3_28SemiDynamicSparseNumberArrayIdmNS3_8NWrapperILm53EEEEELb1EEEESaISA_EESaISC_EEESaISF_ENSt8__detail10_Select1stESt8equal_toImESt4hashImENSH_18_Mod_range_hashingENSH_20_Default_ranged_hashENSH_20_Prime_rehash_policyENSH_17_Hashtable_traitsILb0ELb0ELb1EEEE19_M_find_before_nodeEmRS1_m
FNDA:0,_ZNKSt10_HashtableImSt4pairIKmSt6vectorIS2_IS0_IbN11MetaPhysicL10DualNumberIdNS3_28SemiDynamicSparseNumberArrayIdmNS3_8NWrapperILm53EEEEELb1EEEESaISA_EESaISC_EEESaISF_ENSt8__detail10_Select1stESt8equal_toImESt4hashImENSH_18_Mod_range_hashingENSH_20_Default_ranged_hashENSH_20_Prime_rehash_policyENSH_17_Hashtable_traitsILb0ELb0ELb1EEEE19_M_find_before_nodeEmRS1_m
FN:1567,_ZNKSt10_HashtableImSt4pairIKmSt6vectorIS2_IS0_IbdESaIS3_EESaIS5_EEESaIS8_ENSt8__detail10_Select1stESt8equal_toImESt4hashImENSA_18_Mod_range_hashingENSA_20_Default_ranged_hashENSA_20_Prime_rehash_policyENSA_17_Hashtable_traitsILb0ELb0ELb1EEEE19_M_find_before_nodeEmRS1_m
FNDA:0,_ZNKSt10_HashtableImSt4pairIKmSt6vectorIS2_IS0_IbdESaIS3_EESaIS5_EEESaIS8_ENSt8__detail10_Select1stESt8equal_toImESt4hashImENSA_18_Mod_range_hashingENSA_20_Default_ranged_hashENSA_20_Prime_rehash_policyENSA_17_Hashtable_traitsILb0ELb0ELb1EEEE19_M_find_before_nodeEmRS1_m
FN:1567,_ZNKSt10_HashtableImSt4pairIKmSt6vectorIS0_IbdESaIS3_EEESaIS6_ENSt8__detail10_Select1stESt8equal_toImESt4hashImENS8_18_Mod_range_hashingENS8_20_Default_ranged_hashENS8_20_Prime_rehash_policyENS8_17_Hashtable_traitsILb0ELb0ELb1EEEE19_M_find_before_nodeEmRS1_m
FNDA:0,_ZNKSt10_HashtableImSt4pairIKmSt6vectorIS0_IbdESaIS3_EEESaIS6_ENSt8__detail10_Select1stESt8equal_toImESt4hashImENS8_18_Mod_range_hashingENS8_20_Default_ranged_hashENS8_20_Prime_rehash_policyENS8_17_Hashtable_traitsILb0ELb0ELb1EEEE19_M_find_before_nodeEmRS1_m
FN:1595,_ZNSt10_HashtableImSt4pairIKmSt6vectorIS0_IbN11MetaPhysicL10DualNumberIdNS3_28SemiDynamicSparseNumberArrayIdmNS3_8NWrapperILm53EEEEELb1EEEESaISA_EEESaISD_ENSt8__detail10_Select1stESt8equal_toImESt4hashImENSF_18_Mod_range_hashingENSF_20_Default_ranged_hashENSF_20_Prime_rehash_policyENSF_17_Hashtable_traitsILb0ELb0ELb1EEEE22_M_insert_bucket_beginEmPNSF_10_Hash_nodeISD_Lb0EEE
FNDA:0,_ZNSt10_HashtableImSt4pairIKmSt6vectorIS0_IbN11MetaPhysicL10DualNumberIdNS3_28SemiDynamicSparseNumberArrayIdmNS3_8NWrapperILm53EEEEELb1EEEESaISA_EEESaISD_ENSt8__detail10_Select1stESt8equal_toImESt4hashImENSF_18_Mod_range_hashingENSF_20_Default_ranged_hashENSF_20_Prime_rehash_policyENSF_17_Hashtable_traitsILb0ELb0ELb1EEEE22_M_insert_bucket_beginEmPNSF_10_Hash_nodeISD_Lb0EEE
FN:1595,_ZNSt10_HashtableImSt4pairIKmSt6vectorIS2_IS0_IbdESaIS3_EESaIS5_EEESaIS8_ENSt8__detail10_Select1stESt8equal_toImESt4hashImENSA_18_Mod_range_hashingENSA_20_Default_ranged_hashENSA_20_Prime_rehash_policyENSA_17_Hashtable_traitsILb0ELb0ELb1EEEE22_M_insert_bucket_beginEmPNSA_10_Hash_nodeIS8_Lb0EEE
FNDA:0,_ZNSt10_HashtableImSt4pairIKmSt6vectorIS2_IS0_IbdESaIS3_EESaIS5_EEESaIS8_ENSt8__detail10_Select1stESt8equal_toImESt4hashImENSA_18_Mod_range_hashingENSA_20_Default_ranged_hashENSA_20_Prime_rehash_policyENSA_17_Hashtable_traitsILb0ELb0ELb1EEEE22_M_insert_bucket_beginEmPNSA_10_Hash_nodeIS8_Lb0EEE
FN:1595,_ZNSt10_HashtableImSt4pairIKmSt6vectorIS0_IbdESaIS3_EEESaIS6_ENSt8__detail10_Select1stESt8equal_toImESt4hashImENS8_18_Mod_range_hashingENS8_20_Default_ranged_hashENS8_20_Prime_rehash_policyENS8_17_Hashtable_traitsILb0ELb0ELb1EEEE22_M_insert_bucket_beginEmPNS8_10_Hash_nodeIS6_Lb0EEE
FNDA:0,_ZNSt10_HashtableImSt4pairIKmSt6vectorIS0_IbdESaIS3_EEESaIS6_ENSt8__detail10_Select1stESt8equal_toImESt4hashImENS8_18_Mod_range_hashingENS8_20_Default_ranged_hashENS8_20_Prime_rehash_policyENS8_17_Hashtable_traitsILb0ELb0ELb1EEEE22_M_insert_bucket_beginEmPNS8_10_Hash_nodeIS6_Lb0EEE
FN:1595,_ZNSt10_HashtableImSt4pairIKmSt6vectorIS2_IS0_IbN11MetaPhysicL10DualNumberIdNS3_28SemiDynamicSparseNumberArrayIdmNS3_8NWrapperILm53EEEEELb1EEEESaISA_EESaISC_EEESaISF_ENSt8__detail10_Select1stESt8equal_toImESt4hashImENSH_18_Mod_range_hashingENSH_20_Default_ranged_hashENSH_20_Prime_rehash_policyENSH_17_Hashtable_traitsILb0ELb0ELb1EEEE22_M_insert_bucket_beginEmPNSH_10_Hash_nodeISF_Lb0EEE
FNDA:0,_ZNSt10_HashtableImSt4pairIKmSt6vectorIS2_IS0_IbN11MetaPhysicL10DualNumberIdNS3_28SemiDynamicSparseNumberArrayIdmNS3_8NWrapperILm53EEEEELb1EEEESaISA_EESaISC_EEESaISF_ENSt8__detail10_Select1stESt8equal_toImESt4hashImENSH_18_Mod_range_hashingENSH_20_Default_ranged_hashENSH_20_Prime_rehash_policyENSH_17_Hashtable_traitsILb0ELb0ELb1EEEE22_M_insert_bucket_beginEmPNSH_10_Hash_nodeISF_Lb0EEE
FN:1714,_ZNSt10_HashtableImSt4pairIKmSt6vectorIS2_IS0_IbdESaIS3_EESaIS5_EEESaIS8_ENSt8__detail10_Select1stESt8equal_toImESt4hashImENSA_18_Mod_range_hashingENSA_20_Default_ranged_hashENSA_20_Prime_rehash_policyENSA_17_Hashtable_traitsILb0ELb0ELb1EEEE21_M_insert_unique_nodeERS1_mmPNSA_10_Hash_nodeIS8_Lb0EEEm
FNDA:0,_ZNSt10_HashtableImSt4pairIKmSt6vectorIS2_IS0_IbdESaIS3_EESaIS5_EEESaIS8_ENSt8__detail10_Select1stESt8equal_toImESt4hashImENSA_18_Mod_range_hashingENSA_20_Default_ranged_hashENSA_20_Prime_rehash_policyENSA_17_Hashtable_traitsILb0ELb0ELb1EEEE21_M_insert_unique_nodeERS1_mmPNSA_10_Hash_nodeIS8_Lb0EEEm
FN:1714,_ZNSt10_HashtableImSt4pairIKmSt6vectorIS0_IbN11MetaPhysicL10DualNumberIdNS3_28SemiDynamicSparseNumberArrayIdmNS3_8NWrapperILm53EEEEELb1EEEESaISA_EEESaISD_ENSt8__detail10_Select1stESt8equal_toImESt4hashImENSF_18_Mod_range_hashingENSF_20_Default_ranged_hashENSF_20_Prime_rehash_policyENSF_17_Hashtable_traitsILb0ELb0ELb1EEEE21_M_insert_unique_nodeERS1_mmPNSF_10_Hash_nodeISD_Lb0EEEm
FNDA:0,_ZNSt10_HashtableImSt4pairIKmSt6vectorIS0_IbN11MetaPhysicL10DualNumberIdNS3_28SemiDynamicSparseNumberArrayIdmNS3_8NWrapperILm53EEEEELb1EEEESaISA_EEESaISD_ENSt8__detail10_Select1stESt8equal_toImESt4hashImENSF_18_Mod_range_hashingENSF_20_Default_ranged_hashENSF_20_Prime_rehash_policyENSF_17_Hashtable_traitsILb0ELb0ELb1EEEE21_M_insert_unique_nodeERS1_mmPNSF_10_Hash_nodeISD_Lb0EEEm
FN:1714,_ZNSt10_HashtableImSt4pairIKmSt6vectorIS2_IS0_IbN11MetaPhysicL10DualNumberIdNS3_28SemiDynamicSparseNumberArrayIdmNS3_8NWrapperILm53EEEEELb1EEEESaISA_EESaISC_EEESaISF_ENSt8__detail10_Select1stESt8equal_toImESt4hashImENSH_18_Mod_range_hashingENSH_20_Default_ranged_hashENSH_20_Prime_rehash_policyENSH_17_Hashtable_traitsILb0ELb0ELb1EEEE21_M_insert_unique_nodeERS1_mmPNSH_10_Hash_nodeISF_Lb0EEEm
FNDA:0,_ZNSt10_HashtableImSt4pairIKmSt6vectorIS2_IS0_IbN11MetaPhysicL10DualNumberIdNS3_28SemiDynamicSparseNumberArrayIdmNS3_8NWrapperILm53EEEEELb1EEEESaISA_EESaISC_EEESaISF_ENSt8__detail10_Select1stESt8equal_toImESt4hashImENSH_18_Mod_range_hashingENSH_20_Default_ranged_hashENSH_20_Prime_rehash_policyENSH_17_Hashtable_traitsILb0ELb0ELb1EEEE21_M_insert_unique_nodeERS1_mmPNSH_10_Hash_nodeISF_Lb0EEEm
FN:1714,_ZNSt10_HashtableImSt4pairIKmSt6vectorIS0_IbdESaIS3_EEESaIS6_ENSt8__detail10_Select1stESt8equal_toImESt4hashImENS8_18_Mod_range_hashingENS8_20_Default_ranged_hashENS8_20_Prime_rehash_policyENS8_17_Hashtable_traitsILb0ELb0ELb1EEEE21_M_insert_unique_nodeERS1_mmPNS8_10_Hash_nodeIS6_Lb0EEEm
FNDA:0,_ZNSt10_HashtableImSt4pairIKmSt6vectorIS0_IbdESaIS3_EEESaIS6_ENSt8__detail10_Select1stESt8equal_toImESt4hashImENS8_18_Mod_range_hashingENS8_20_Default_ranged_hashENS8_20_Prime_rehash_policyENS8_17_Hashtable_traitsILb0ELb0ELb1EEEE21_M_insert_unique_nodeERS1_mmPNS8_10_Hash_nodeIS6_Lb0EEEm
FN:2026,_ZNSt10_HashtableINSt7__cxx1112basic_stringIcSt11char_traitsIcESaIcEEESt4pairIKS5_St6vectorISt10unique_ptrI10MooseArrayIdESt14default_deleteISB_EESaISE_EEESaISH_ENSt8__detail10_Select1stESt8equal_toIS5_ESt4hashIS5_ENSJ_18_Mod_range_hashingENSJ_20_Default_ranged_hashENSJ_20_Prime_rehash_policyENSJ_17_Hashtable_traitsILb1ELb0ELb1EEEE5clearEv
FNDA:0,_ZNSt10_HashtableINSt7__cxx1112basic_stringIcSt11char_traitsIcESaIcEEESt4pairIKS5_St6vectorISt10unique_ptrI10MooseArrayIdESt14default_deleteISB_EESaISE_EEESaISH_ENSt8__detail10_Select1stESt8equal_toIS5_ESt4hashIS5_ENSJ_18_Mod_range_hashingENSJ_20_Default_ranged_hashENSJ_20_Prime_rehash_policyENSJ_17_Hashtable_traitsILb1ELb0ELb1EEEE5clearEv
FN:2026,_ZNSt10_HashtableINSt7__cxx1112basic_stringIcSt11char_traitsIcESaIcEEESt4pairIKS5_St6vectorIP22MooseVariableFieldBaseSaISA_EEESaISD_ENSt8__detail10_Select1stESt8equal_toIS5_ESt4hashIS5_ENSF_18_Mod_range_hashingENSF_20_Default_ranged_hashENSF_20_Prime_rehash_policyENSF_17_Hashtable_traitsILb1ELb0ELb1EEEE5clearEv
FNDA:0,_ZNSt10_HashtableINSt7__cxx1112basic_stringIcSt11char_traitsIcESaIcEEESt4pairIKS5_St6vectorIP22MooseVariableFieldBaseSaISA_EEESaISD_ENSt8__detail10_Select1stESt8equal_toIS5_ESt4hashIS5_ENSF_18_Mod_range_hashingENSF_20_Default_ranged_hashENSF_20_Prime_rehash_policyENSF_17_Hashtable_traitsILb1ELb0ELb1EEEE5clearEv
FN:2026,_ZNSt10_HashtableINSt7__cxx1112basic_stringIcSt11char_traitsIcESaIcEEESt4pairIKS5_St10unique_ptrI10MooseArrayIN7libMesh11VectorValueIdEEESt14default_deleteISD_EEESaISH_ENSt8__detail10_Select1stESt8equal_toIS5_ESt4hashIS5_ENSJ_18_Mod_range_hashingENSJ_20_Default_ranged_hashENSJ_20_Prime_rehash_policyENSJ_17_Hashtable_traitsILb1ELb0ELb1EEEE5clearEv
FNDA:0,_ZNSt10_HashtableINSt7__cxx1112basic_stringIcSt11char_traitsIcESaIcEEESt4pairIKS5_St10unique_ptrI10MooseArrayIN7libMesh11VectorValueIdEEESt14default_deleteISD_EEESaISH_ENSt8__detail10_Select1stESt8equal_toIS5_ESt4hashIS5_ENSJ_18_Mod_range_hashingENSJ_20_Default_ranged_hashENSJ_20_Prime_rehash_policyENSJ_17_Hashtable_traitsILb1ELb0ELb1EEEE5clearEv
FN:2026,_ZNSt10_HashtableINSt7__cxx1112basic_stringIcSt11char_traitsIcESaIcEEESt4pairIKS5_St10unique_ptrI10MooseArrayIN11MetaPhysicL10DualNumberIdNSA_28SemiDynamicSparseNumberArrayIdmNSA_8NWrapperILm53EEEEELb1EEEESt14default_deleteISH_EEESaISL_ENSt8__detail10_Select1stESt8equal_toIS5_ESt4hashIS5_ENSN_18_Mod_range_hashingENSN_20_Default_ranged_hashENSN_20_Prime_rehash_policyENSN_17_Hashtable_traitsILb1ELb0ELb1EEEE5clearEv
FNDA:0,_ZNSt10_HashtableINSt7__cxx1112basic_stringIcSt11char_traitsIcESaIcEEESt4pairIKS5_St10unique_ptrI10MooseArrayIN11MetaPhysicL10DualNumberIdNSA_28SemiDynamicSparseNumberArrayIdmNSA_8NWrapperILm53EEEEELb1EEEESt14default_deleteISH_EEESaISL_ENSt8__detail10_Select1stESt8equal_toIS5_ESt4hashIS5_ENSN_18_Mod_range_hashingENSN_20_Default_ranged_hashENSN_20_Prime_rehash_policyENSN_17_Hashtable_traitsILb1ELb0ELb1EEEE5clearEv
FN:2026,_ZNSt10_HashtableINSt7__cxx1112basic_stringIcSt11char_traitsIcESaIcEEESt4pairIKS5_St10unique_ptrI10MooseArrayIN5Eigen6MatrixIdLin1ELi1ELi0ELin1ELi1EEEESt14default_deleteISD_EEESaISH_ENSt8__detail10_Select1stESt8equal_toIS5_ESt4hashIS5_ENSJ_18_Mod_range_hashingENSJ_20_Default_ranged_hashENSJ_20_Prime_rehash_policyENSJ_17_Hashtable_traitsILb1ELb0ELb1EEEE5clearEv
FNDA:0,_ZNSt10_HashtableINSt7__cxx1112basic_stringIcSt11char_traitsIcESaIcEEESt4pairIKS5_St10unique_ptrI10MooseArrayIN5Eigen6MatrixIdLin1ELi1ELi0ELin1ELi1EEEESt14default_deleteISD_EEESaISH_ENSt8__detail10_Select1stESt8equal_toIS5_ESt4hashIS5_ENSJ_18_Mod_range_hashingENSJ_20_Default_ranged_hashENSJ_20_Prime_rehash_policyENSJ_17_Hashtable_traitsILb1ELb0ELb1EEEE5clearEv
FN:2026,_ZNSt10_HashtableINSt7__cxx1112basic_stringIcSt11char_traitsIcESaIcEEESt4pairIKS5_St10unique_ptrI10MooseArrayIdESt14default_deleteISA_EEESaISE_ENSt8__detail10_Select1stESt8equal_toIS5_ESt4hashIS5_ENSG_18_Mod_range_hashingENSG_20_Default_ranged_hashENSG_20_Prime_rehash_policyENSG_17_Hashtable_traitsILb1ELb0ELb1EEEE5clearEv
FNDA:0,_ZNSt10_HashtableINSt7__cxx1112basic_stringIcSt11char_traitsIcESaIcEEESt4pairIKS5_St10unique_ptrI10MooseArrayIdESt14default_deleteISA_EEESaISE_ENSt8__detail10_Select1stESt8equal_toIS5_ESt4hashIS5_ENSG_18_Mod_range_hashingENSG_20_Default_ranged_hashENSG_20_Prime_rehash_policyENSG_17_Hashtable_traitsILb1ELb0ELb1EEEE5clearEv
FN:2026,_ZNSt10_HashtableINSt7__cxx1112basic_stringIcSt11char_traitsIcESaIcEEESt4pairIKS5_St6vectorIP19MooseVariableScalarSaISA_EEESaISD_ENSt8__detail10_Select1stESt8equal_toIS5_ESt4hashIS5_ENSF_18_Mod_range_hashingENSF_20_Default_ranged_hashENSF_20_Prime_rehash_policyENSF_17_Hashtable_traitsILb1ELb0ELb1EEEE5clearEv
FNDA:0,_ZNSt10_HashtableINSt7__cxx1112basic_stringIcSt11char_traitsIcESaIcEEESt4pairIKS5_St6vectorIP19MooseVariableScalarSaISA_EEESaISD_ENSt8__detail10_Select1stESt8equal_toIS5_ESt4hashIS5_ENSF_18_Mod_range_hashingENSF_20_Default_ranged_hashENSF_20_Prime_rehash_policyENSF_17_Hashtable_traitsILb1ELb0ELb1EEEE5clearEv
FN:2026,_ZNSt10_HashtableINSt7__cxx1112basic_stringIcSt11char_traitsIcESaIcEEESt4pairIKS5_St10unique_ptrI10MooseArrayIN7libMesh11VectorValueIN11MetaPhysicL10DualNumberIdNSC_28SemiDynamicSparseNumberArrayIdmNSC_8NWrapperILm53EEEEELb1EEEEEESt14default_deleteISK_EEESaISO_ENSt8__detail10_Select1stESt8equal_toIS5_ESt4hashIS5_ENSQ_18_Mod_range_hashingENSQ_20_Default_ranged_hashENSQ_20_Prime_rehash_policyENSQ_17_Hashtable_traitsILb1ELb0ELb1EEEE5clearEv
FNDA:0,_ZNSt10_HashtableINSt7__cxx1112basic_stringIcSt11char_traitsIcESaIcEEESt4pairIKS5_St10unique_ptrI10MooseArrayIN7libMesh11VectorValueIN11MetaPhysicL10DualNumberIdNSC_28SemiDynamicSparseNumberArrayIdmNSC_8NWrapperILm53EEEEELb1EEEEEESt14default_deleteISK_EEESaISO_ENSt8__detail10_Select1stESt8equal_toIS5_ESt4hashIS5_ENSQ_18_Mod_range_hashingENSQ_20_Default_ranged_hashENSQ_20_Prime_rehash_policyENSQ_17_Hashtable_traitsILb1ELb0ELb1EEEE5clearEv
FN:2026,_ZNSt10_HashtableINSt7__cxx1112basic_stringIcSt11char_traitsIcESaIcEEESt4pairIKS5_St6vectorIjSaIjEEESaISB_ENSt8__detail10_Select1stESt8equal_toIS5_ESt4hashIS5_ENSD_18_Mod_range_hashingENSD_20_Default_ranged_hashENSD_20_Prime_rehash_policyENSD_17_Hashtable_traitsILb1ELb0ELb1EEEE5clearEv
FNDA:0,_ZNSt10_HashtableINSt7__cxx1112basic_stringIcSt11char_traitsIcESaIcEEESt4pairIKS5_St6vectorIjSaIjEEESaISB_ENSt8__detail10_Select1stESt8equal_toIS5_ESt4hashIS5_ENSD_18_Mod_range_hashingENSD_20_Default_ranged_hashENSD_20_Prime_rehash_policyENSD_17_Hashtable_traitsILb1ELb0ELb1EEEE5clearEv
FN:2026,_ZNSt10_HashtableImSt4pairIKmSt6vectorIS0_IbdESaIS3_EEESaIS6_ENSt8__detail10_Select1stESt8equal_toImESt4hashImENS8_18_Mod_range_hashingENS8_20_Default_ranged_hashENS8_20_Prime_rehash_policyENS8_17_Hashtable_traitsILb0ELb0ELb1EEEE5clearEv
FNDA:0,_ZNSt10_HashtableImSt4pairIKmSt6vectorIS0_IbdESaIS3_EEESaIS6_ENSt8__detail10_Select1stESt8equal_toImESt4hashImENS8_18_Mod_range_hashingENS8_20_Default_ranged_hashENS8_20_Prime_rehash_policyENS8_17_Hashtable_traitsILb0ELb0ELb1EEEE5clearEv
FN:2026,_ZNSt10_HashtableImSt4pairIKmSt6vectorIS2_IS0_IbdESaIS3_EESaIS5_EEESaIS8_ENSt8__detail10_Select1stESt8equal_toImESt4hashImENSA_18_Mod_range_hashingENSA_20_Default_ranged_hashENSA_20_Prime_rehash_policyENSA_17_Hashtable_traitsILb0ELb0ELb1EEEE5clearEv
FNDA:0,_ZNSt10_HashtableImSt4pairIKmSt6vectorIS2_IS0_IbdESaIS3_EESaIS5_EEESaIS8_ENSt8__detail10_Select1stESt8equal_toImESt4hashImENSA_18_Mod_range_hashingENSA_20_Default_ranged_hashENSA_20_Prime_rehash_policyENSA_17_Hashtable_traitsILb0ELb0ELb1EEEE5clearEv
FN:2026,_ZNSt10_HashtableImSt4pairIKmSt6vectorIS0_IbN11MetaPhysicL10DualNumberIdNS3_28SemiDynamicSparseNumberArrayIdmNS3_8NWrapperILm53EEEEELb1EEEESaISA_EEESaISD_ENSt8__detail10_Select1stESt8equal_toImESt4hashImENSF_18_Mod_range_hashingENSF_20_Default_ranged_hashENSF_20_Prime_rehash_policyENSF_17_Hashtable_traitsILb0ELb0ELb1EEEE5clearEv
FNDA:0,_ZNSt10_HashtableImSt4pairIKmSt6vectorIS0_IbN11MetaPhysicL10DualNumberIdNS3_28SemiDynamicSparseNumberArrayIdmNS3_8NWrapperILm53EEEEELb1EEEESaISA_EEESaISD_ENSt8__detail10_Select1stESt8equal_toImESt4hashImENSF_18_Mod_range_hashingENSF_20_Default_ranged_hashENSF_20_Prime_rehash_policyENSF_17_Hashtable_traitsILb0ELb0ELb1EEEE5clearEv
FN:2026,_ZNSt10_HashtableImSt4pairIKmSt6vectorIS2_IS0_IbN11MetaPhysicL10DualNumberIdNS3_28SemiDynamicSparseNumberArrayIdmNS3_8NWrapperILm53EEEEELb1EEEESaISA_EESaISC_EEESaISF_ENSt8__detail10_Select1stESt8equal_toImESt4hashImENSH_18_Mod_range_hashingENSH_20_Default_ranged_hashENSH_20_Prime_rehash_policyENSH_17_Hashtable_traitsILb0ELb0ELb1EEEE5clearEv
FNDA:0,_ZNSt10_HashtableImSt4pairIKmSt6vectorIS2_IS0_IbN11MetaPhysicL10DualNumberIdNS3_28SemiDynamicSparseNumberArrayIdmNS3_8NWrapperILm53EEEEELb1EEEESaISA_EESaISC_EEESaISF_ENSt8__detail10_Select1stESt8equal_toImESt4hashImENSH_18_Mod_range_hashingENSH_20_Default_ranged_hashENSH_20_Prime_rehash_policyENSH_17_Hashtable_traitsILb0ELb0ELb1EEEE5clearEv
FN:2026,_ZNSt10_HashtableINSt7__cxx1112basic_stringIcSt11char_traitsIcESaIcEEESt4pairIKS5_S5_ESaIS8_ENSt8__detail10_Select1stESt8equal_toIS5_ESt4hashIS5_ENSA_18_Mod_range_hashingENSA_20_Default_ranged_hashENSA_20_Prime_rehash_policyENSA_17_Hashtable_traitsILb1ELb0ELb1EEEE5clearEv
FNDA:0,_ZNSt10_HashtableINSt7__cxx1112basic_stringIcSt11char_traitsIcESaIcEEESt4pairIKS5_S5_ESaIS8_ENSt8__detail10_Select1stESt8equal_toIS5_ESt4hashIS5_ENSA_18_Mod_range_hashingENSA_20_Default_ranged_hashENSA_20_Prime_rehash_policyENSA_17_Hashtable_traitsILb1ELb0ELb1EEEE5clearEv
FN:2064,_ZNSt10_HashtableImSt4pairIKmSt6vectorIS0_IbN11MetaPhysicL10DualNumberIdNS3_28SemiDynamicSparseNumberArrayIdmNS3_8NWrapperILm53EEEEELb1EEEESaISA_EEESaISD_ENSt8__detail10_Select1stESt8equal_toImESt4hashImENSF_18_Mod_range_hashingENSF_20_Default_ranged_hashENSF_20_Prime_rehash_policyENSF_17_Hashtable_traitsILb0ELb0ELb1EEEE9_M_rehashEmRS1_
FNDA:0,_ZNSt10_HashtableImSt4pairIKmSt6vectorIS0_IbN11MetaPhysicL10DualNumberIdNS3_28SemiDynamicSparseNumberArrayIdmNS3_8NWrapperILm53EEEEELb1EEEESaISA_EEESaISD_ENSt8__detail10_Select1stESt8equal_toImESt4hashImENSF_18_Mod_range_hashingENSF_20_Default_ranged_hashENSF_20_Prime_rehash_policyENSF_17_Hashtable_traitsILb0ELb0ELb1EEEE9_M_rehashEmRS1_
FN:2064,_ZNSt10_HashtableImSt4pairIKmSt6vectorIS2_IS0_IbN11MetaPhysicL10DualNumberIdNS3_28SemiDynamicSparseNumberArrayIdmNS3_8NWrapperILm53EEEEELb1EEEESaISA_EESaISC_EEESaISF_ENSt8__detail10_Select1stESt8equal_toImESt4hashImENSH_18_Mod_range_hashingENSH_20_Default_ranged_hashENSH_20_Prime_rehash_policyENSH_17_Hashtable_traitsILb0ELb0ELb1EEEE9_M_rehashEmRS1_
FNDA:0,_ZNSt10_HashtableImSt4pairIKmSt6vectorIS2_IS0_IbN11MetaPhysicL10DualNumberIdNS3_28SemiDynamicSparseNumberArrayIdmNS3_8NWrapperILm53EEEEELb1EEEESaISA_EESaISC_EEESaISF_ENSt8__detail10_Select1stESt8equal_toImESt4hashImENSH_18_Mod_range_hashingENSH_20_Default_ranged_hashENSH_20_Prime_rehash_policyENSH_17_Hashtable_traitsILb0ELb0ELb1EEEE9_M_rehashEmRS1_
FN:2064,_ZNSt10_HashtableImSt4pairIKmSt6vectorIS0_IbdESaIS3_EEESaIS6_ENSt8__detail10_Select1stESt8equal_toImESt4hashImENS8_18_Mod_range_hashingENS8_20_Default_ranged_hashENS8_20_Prime_rehash_policyENS8_17_Hashtable_traitsILb0ELb0ELb1EEEE9_M_rehashEmRS1_
FNDA:0,_ZNSt10_HashtableImSt4pairIKmSt6vectorIS0_IbdESaIS3_EEESaIS6_ENSt8__detail10_Select1stESt8equal_toImESt4hashImENS8_18_Mod_range_hashingENS8_20_Default_ranged_hashENS8_20_Prime_rehash_policyENS8_17_Hashtable_traitsILb0ELb0ELb1EEEE9_M_rehashEmRS1_
FN:2064,_ZNSt10_HashtableImSt4pairIKmSt6vectorIS2_IS0_IbdESaIS3_EESaIS5_EEESaIS8_ENSt8__detail10_Select1stESt8equal_toImESt4hashImENSA_18_Mod_range_hashingENSA_20_Default_ranged_hashENSA_20_Prime_rehash_policyENSA_17_Hashtable_traitsILb0ELb0ELb1EEEE9_M_rehashEmRS1_
FNDA:0,_ZNSt10_HashtableImSt4pairIKmSt6vectorIS2_IS0_IbdESaIS3_EESaIS5_EEESaIS8_ENSt8__detail10_Select1stESt8equal_toImESt4hashImENSA_18_Mod_range_hashingENSA_20_Default_ranged_hashENSA_20_Prime_rehash_policyENSA_17_Hashtable_traitsILb0ELb0ELb1EEEE9_M_rehashEmRS1_
FN:2087,_ZNSt10_HashtableImSt4pairIKmSt6vectorIS0_IbN11MetaPhysicL10DualNumberIdNS3_28SemiDynamicSparseNumberArrayIdmNS3_8NWrapperILm53EEEEELb1EEEESaISA_EEESaISD_ENSt8__detail10_Select1stESt8equal_toImESt4hashImENSF_18_Mod_range_hashingENSF_20_Default_ranged_hashENSF_20_Prime_rehash_policyENSF_17_Hashtable_traitsILb0ELb0ELb1EEEE13_M_rehash_auxEmSt17integral_constantIbLb1EE
FNDA:0,_ZNSt10_HashtableImSt4pairIKmSt6vectorIS0_IbN11MetaPhysicL10DualNumberIdNS3_28SemiDynamicSparseNumberArrayIdmNS3_8NWrapperILm53EEEEELb1EEEESaISA_EEESaISD_ENSt8__detail10_Select1stESt8equal_toImESt4hashImENSF_18_Mod_range_hashingENSF_20_Default_ranged_hashENSF_20_Prime_rehash_policyENSF_17_Hashtable_traitsILb0ELb0ELb1EEEE13_M_rehash_auxEmSt17integral_constantIbLb1EE
FN:2087,_ZNSt10_HashtableImSt4pairIKmSt6vectorIS2_IS0_IbN11MetaPhysicL10DualNumberIdNS3_28SemiDynamicSparseNumberArrayIdmNS3_8NWrapperILm53EEEEELb1EEEESaISA_EESaISC_EEESaISF_ENSt8__detail10_Select1stESt8equal_toImESt4hashImENSH_18_Mod_range_hashingENSH_20_Default_ranged_hashENSH_20_Prime_rehash_policyENSH_17_Hashtable_traitsILb0ELb0ELb1EEEE13_M_rehash_auxEmSt17integral_constantIbLb1EE
FNDA:0,_ZNSt10_HashtableImSt4pairIKmSt6vectorIS2_IS0_IbN11MetaPhysicL10DualNumberIdNS3_28SemiDynamicSparseNumberArrayIdmNS3_8NWrapperILm53EEEEELb1EEEESaISA_EESaISC_EEESaISF_ENSt8__detail10_Select1stESt8equal_toImESt4hashImENSH_18_Mod_range_hashingENSH_20_Default_ranged_hashENSH_20_Prime_rehash_policyENSH_17_Hashtable_traitsILb0ELb0ELb1EEEE13_M_rehash_auxEmSt17integral_constantIbLb1EE
FN:2087,_ZNSt10_HashtableImSt4pairIKmSt6vectorIS0_IbdESaIS3_EEESaIS6_ENSt8__detail10_Select1stESt8equal_toImESt4hashImENS8_18_Mod_range_hashingENS8_20_Default_ranged_hashENS8_20_Prime_rehash_policyENS8_17_Hashtable_traitsILb0ELb0ELb1EEEE13_M_rehash_auxEmSt17integral_constantIbLb1EE
FNDA:0,_ZNSt10_HashtableImSt4pairIKmSt6vectorIS0_IbdESaIS3_EEESaIS6_ENSt8__detail10_Select1stESt8equal_toImESt4hashImENS8_18_Mod_range_hashingENS8_20_Default_ranged_hashENS8_20_Prime_rehash_policyENS8_17_Hashtable_traitsILb0ELb0ELb1EEEE13_M_rehash_auxEmSt17integral_constantIbLb1EE
FN:2087,_ZNSt10_HashtableImSt4pairIKmSt6vectorIS2_IS0_IbdESaIS3_EESaIS5_EEESaIS8_ENSt8__detail10_Select1stESt8equal_toImESt4hashImENSA_18_Mod_range_hashingENSA_20_Default_ranged_hashENSA_20_Prime_rehash_policyENSA_17_Hashtable_traitsILb0ELb0ELb1EEEE13_M_rehash_auxEmSt17integral_constantIbLb1EE
FNDA:0,_ZNSt10_HashtableImSt4pairIKmSt6vectorIS2_IS0_IbdESaIS3_EESaIS5_EEESaIS8_ENSt8__detail10_Select1stESt8equal_toImESt4hashImENSA_18_Mod_range_hashingENSA_20_Default_ranged_hashENSA_20_Prime_rehash_policyENSA_17_Hashtable_traitsILb0ELb0ELb1EEEE13_M_rehash_auxEmSt17integral_constantIbLb1EE
FNF:52
FNH:0
DA:270,0
DA:272,0
DA:276,0
DA:276,0
DA:276,0
DA:276,0
DA:380,0
DA:392,0
DA:394,0
DA:395,0
DA:398,0
DA:404,0
DA:411,0
DA:412,0
DA:411,0
DA:412,0
DA:411,0
DA:412,0
DA:411,0
DA:412,0
DA:411,0
DA:412,0
DA:411,0
DA:412,0
DA:411,0
DA:412,0
DA:411,0
DA:412,0
DA:411,0
DA:412,0
DA:411,0
DA:412,0
DA:411,0
DA:412,0
DA:411,0
DA:412,0
DA:411,0
DA:412,0
DA:411,0
DA:412,0
DA:421,0
DA:678,0
DA:682,0
DA:693,0
DA:694,0
DA:695,0
DA:1387,0
DA:1388,0
DA:1567,0
DA:1573,0
DA:1574,0
DA:1577,0
DA:1581,0
DA:1583,0
DA:1567,0
DA:1573,0
DA:1574,0
DA:1577,0
DA:1581,0
DA:1583,0
DA:1567,0
DA:1573,0
DA:1574,0
DA:1577,0
DA:1581,0
DA:1583,0
DA:1567,0
DA:1573,0
DA:1574,0
DA:1577,0
DA:1581,0
DA:1583,0
DA:1595,0
DA:1599,0
DA:1603,0
DA:1604,0
DA:1611,0
DA:1612,0
DA:1613,0
DA:1616,0
DA:1617,0
DA:1619,0
DA:1595,0
DA:1599,0
DA:1603,0
DA:1604,0
DA:1611,0
DA:1612,0
DA:1613,0
DA:1616,0
DA:1617,0
DA:1619,0
DA:1595,0
DA:1599,0
DA:1603,0
DA:1604,0
DA:1611,0
DA:1612,0
DA:1613,0
DA:1616,0
DA:1617,0
DA:1619,0
DA:1595,0
DA:1599,0
DA:1603,0
DA:1604,0
DA:1611,0
DA:1612,0
DA:1613,0
DA:1616,0
DA:1617,0
DA:1619,0
DA:1714,0
DA:1721,0
DA:1723,0
DA:1726,0
DA:1728,0
DA:1735,0
DA:1736,0
DA:1737,0
DA:1714,0
DA:1721,0
DA:1723,0
DA:1726,0
DA:1728,0
DA:1735,0
DA:1736,0
DA:1737,0
DA:1714,0
DA:1721,0
DA:1723,0
DA:1726,0
DA:1728,0
DA:1735,0
DA:1736,0
DA:1737,0
DA:1714,0
DA:1721,0
DA:1723,0
DA:1726,0
DA:1728,0
DA:1735,0
DA:1736,0
DA:1737,0
DA:2026,0
DA:2031,0
DA:2032,0
DA:2033,0
DA:2034,0
DA:2026,0
DA:2030,0
DA:2031,0
DA:2032,0
DA:2033,0
DA:2034,0
DA:2026,0
DA:2030,0
DA:2031,0
DA:2032,0
DA:2033,0
DA:2034,0
DA:2026,0
DA:2030,0
DA:2031,0
DA:2032,0
DA:2033,0
DA:2034,0
DA:2026,0
DA:2030,0
DA:2031,0
DA:2032,0
DA:2033,0
DA:2034,0
DA:2026,0
DA:2031,0
DA:2032,0
DA:2033,0
DA:2034,0
DA:2026,0
DA:2031,0
DA:2032,0
DA:2033,0
DA:2034,0
DA:2026,0
DA:2031,0
DA:2032,0
DA:2033,0
DA:2034,0
DA:2026,0
DA:2031,0
DA:2032,0
DA:2033,0
DA:2034,0
DA:2026,0
DA:2031,0
DA:2032,0
DA:2033,0
DA:2034,0
DA:2026,0
DA:2031,0
DA:2032,0
DA:2033,0
DA:2034,0
DA:2026,0
DA:2031,0
DA:2032,0
DA:2033,0
DA:2034,0
DA:2026,0
DA:2031,0
DA:2032,0
DA:2033,0
DA:2034,0
DA:2026,0
DA:2031,0
DA:2032,0
DA:2033,0
DA:2034,0
DA:2064,0
DA:2070,0
DA:2072,0
DA:2076,0
DA:2077,0
DA:2079,0
DA:2064,0
DA:2070,0
DA:2072,0
DA:2076,0
DA:2077,0
DA:2079,0
DA:2064,0
DA:2070,0
DA:2072,0
DA:2076,0
DA:2077,0
DA:2079,0
DA:2064,0
DA:2070,0
DA:2072,0
DA:2076,0
DA:2077,0
DA:2079,0
DA:2087,0
DA:2093,0
DA:2095,0
DA:2100,0
DA:2102,0
DA:2103,0
DA:2104,0
DA:2105,0
DA:2106,0
DA:2111,0
DA:2112,0
DA:2117,0
DA:2118,0
DA:2119,0
DA:2120,0
DA:2087,0
DA:2093,0
DA:2095,0
DA:2100,0
DA:2102,0
DA:2103,0
DA:2104,0
DA:2105,0
DA:2106,0
DA:2111,0
DA:2112,0
DA:2117,0
DA:2118,0
DA:2119,0
DA:2120,0
DA:2087,0
DA:2093,0
DA:2095,0
DA:2100,0
DA:2102,0
DA:2103,0
DA:2104,0
DA:2105,0
DA:2106,0
DA:2111,0
DA:2112,0
DA:2117,0
DA:2118,0
DA:2119,0
DA:2120,0
DA:2087,0
DA:2093,0
DA:2095,0
DA:2100,0
DA:2102,0
DA:2103,0
DA:2104,0
DA:2105,0
DA:2106,0
DA:2111,0
DA:2112,0
DA:2117,0
DA:2118,0
DA:2119,0
DA:2120,0
LF:302
LH:0
end_of_record
SF:/home/runner/work/raccoon/raccoon/moose/framework/build/header_symlinks/RankTwoTensor.h
FN:543,_ZN11MetaPhysicL7RawTypeI18RankTwoTensorTemplIdEvE5valueERKS2_
FNDA:0,_ZN11MetaPhysicL7RawTypeI18RankTwoTensorTemplIdEvE5valueERKS2_
FN:543,_ZN11MetaPhysicL7RawTypeI18RankTwoTensorTemplINS_10DualNumberIdNS_28SemiDynamicSparseNumberArrayIdmNS_8NWrapperILm53EEEEELb1EEEEvE5valueERKS8_
FNDA:0,_ZN11MetaPhysicL7RawTypeI18RankTwoTensorTemplINS_10DualNumberIdNS_28SemiDynamicSparseNumberArrayIdmNS_8NWrapperILm53EEEEELb1EEEEvE5valueERKS8_
FN:558,_ZNK18RankTwoTensorTemplIdEplIN11MetaPhysicL10DualNumberIdNS2_28SemiDynamicSparseNumberArrayIdmNS2_8NWrapperILm53EEEEELb1EEEEES_IN7libMesh12CompareTypesIdT_E9supertypeEERKNS9_10TypeTensorISB_EE
FNDA:139608,_ZNK18RankTwoTensorTemplIdEplIN11MetaPhysicL10DualNumberIdNS2_28SemiDynamicSparseNumberArrayIdmNS2_8NWrapperILm53EEEEELb1EEEEES_IN7libMesh12CompareTypesIdT_E9supertypeEERKNS9_10TypeTensorISB_EE
FN:566,_ZNK18RankTwoTensorTemplIN11MetaPhysicL10DualNumberIdNS0_28SemiDynamicSparseNumberArrayIdmNS0_8NWrapperILm53EEEEELb1EEEEmiIS6_EES_IN7libMesh12CompareTypesIS6_T_E9supertypeEERKNS9_10TypeTensorISB_EE
FNDA:0,_ZNK18RankTwoTensorTemplIN11MetaPhysicL10DualNumberIdNS0_28SemiDynamicSparseNumberArrayIdmNS0_8NWrapperILm53EEEEELb1EEEEmiIS6_EES_IN7libMesh12CompareTypesIS6_T_E9supertypeEERKNS9_10TypeTensorISB_EE
FNF:4
FNH:1
DA:75,14849000
DA:543,0
DA:545,0
DA:546,0
DA:547,0
DA:548,0
DA:550,0
DA:543,0
DA:545,0
DA:546,0
DA:547,0
DA:548,0
DA:550,0
DA:558,139608
DA:560,139608
DA:566,0
DA:568,0
LF:17
LH:3
end_of_record
SF:/home/runner/work/raccoon/raccoon/moose/framework/build/header_symlinks/ElementIDInterface.h
LF:0
LH:0
end_of_record
SF:/home/runner/work/raccoon/raccoon/src/materials/small_deformation_models/SmallDeformationPlasticityModel.C
FN:9,_ZN31SmallDeformationPlasticityModel11validParamsEv
FNDA:163,_ZN31SmallDeformationPlasticityModel11validParamsEv
FN:23,_ZN31SmallDeformationPlasticityModelC2ERK15InputParameters
FNDA:6,_ZN31SmallDeformationPlasticityModelC2ERK15InputParameters
FN:37,_ZN31SmallDeformationPlasticityModel12initialSetupEv
FNDA:6,_ZN31SmallDeformationPlasticityModel12initialSetupEv
FN:47,_ZN31SmallDeformationPlasticityModel5setQpEj
FNDA:139608,_ZN31SmallDeformationPlasticityModel5setQpEj
FN:54,_ZN31SmallDeformationPlasticityModel18setElasticityModelEP31SmallDeformationElasticityModel
FNDA:6,_ZN31SmallDeformationPlasticityModel18setElasticityModelEP31SmallDeformationElasticityModel
FN:61,_ZN31SmallDeformationPlasticityModel24initQpStatefulPropertiesEv
FNDA:11508,_ZN31SmallDeformationPlasticityModel24initQpStatefulPropertiesEv
FNF:6
FNH:6
DA:9,163
DA:11,163
DA:12,163
DA:13,163
DA:15,326
DA:17,163
DA:18,163
DA:20,163
DA:23,6
DA:27,12
DA:29,12
DA:30,12
DA:31,12
DA:32,36
DA:34,6
DA:37,6
DA:39,6
DA:40,6
DA:41,0
DA:42,0
DA:43,0
DA:44,6
DA:47,139608
DA:49,139608
DA:50,139608
DA:51,139608
DA:54,6
DA:57,6
DA:58,6
DA:61,11508
DA:63,11508
DA:64,11508
DA:65,11508
LF:33
LH:30
end_of_record
SF:/home/runner/work/raccoon/raccoon/moose/framework/build/header_symlinks/VectorPostprocessorInterface.h
FN:311,_ZNK28VectorPostprocessorInterface38addVectorPostprocessorDependencyHelperERK23VectorPostprocessorName
FNDA:0,_ZNK28VectorPostprocessorInterface38addVectorPostprocessorDependencyHelperERK23VectorPostprocessorName
FNF:1
FNH:0
DA:311,0
DA:313,0
LF:2
LH:0
end_of_record
SF:/usr/share/miniconda/envs/moose/libmesh/include/timpi/message_tag.h
LF:0
LH:0
end_of_record
SF:/home/runner/work/raccoon/raccoon/moose/framework/build/header_symlinks/DataIO.h
DA:171,0
DA:376,0
DA:377,0
DA:424,0
DA:454,0
DA:648,0
DA:649,0
DA:697,0
DA:726,0
DA:790,0
LF:10
LH:0
end_of_record
SF:/home/runner/work/raccoon/raccoon/moose/framework/build/header_symlinks/FunctorInterface.h
LF:0
LH:0
end_of_record
SF:/usr/share/miniconda/envs/moose/x86_64-conda-linux-gnu/include/c++/10.3.0/bits/stl_vector.h
FN:333,_ZNSt12_Vector_baseIP22MooseVariableFieldBaseSaIS1_EED2Ev
FNDA:0,_ZNSt12_Vector_baseIP22MooseVariableFieldBaseSaIS1_EED2Ev
FN:333,_ZNSt12_Vector_baseISt6vectorIaSaIaEESaIS2_EED2Ev
FNDA:0,_ZNSt12_Vector_baseISt6vectorIaSaIaEESaIS2_EED2Ev
FN:333,_ZNSt12_Vector_baseISt6vectorIS0_ISt4pairIhhESaIS2_EESaIS4_EESaIS6_EED2Ev
FNDA:0,_ZNSt12_Vector_baseISt6vectorIS0_ISt4pairIhhESaIS2_EESaIS4_EESaIS6_EED2Ev
FN:333,_ZNSt12_Vector_baseISt10unique_ptrI33OptionalMaterialPropertyProxyBaseI8MaterialESt14default_deleteIS3_EESaIS6_EED2Ev
FNDA:0,_ZNSt12_Vector_baseISt10unique_ptrI33OptionalMaterialPropertyProxyBaseI8MaterialESt14default_deleteIS3_EESaIS6_EED2Ev
FN:333,_ZNSt12_Vector_baseISt10unique_ptrI33OptionalMaterialPropertyProxyBaseI25MaterialPropertyInterfaceESt14default_deleteIS3_EESaIS6_EED2Ev
FNDA:0,_ZNSt12_Vector_baseISt10unique_ptrI33OptionalMaterialPropertyProxyBaseI25MaterialPropertyInterfaceESt14default_deleteIS3_EESaIS6_EED2Ev
FN:333,_ZNSt12_Vector_baseISt10unique_ptrI16MaterialPropertyIN7libMesh11VectorValueIdEEESt14default_deleteIS5_EESaIS8_EED2Ev
FNDA:0,_ZNSt12_Vector_baseISt10unique_ptrI16MaterialPropertyIN7libMesh11VectorValueIdEEESt14default_deleteIS5_EESaIS8_EED2Ev
FN:333,_ZNSt12_Vector_baseISt10unique_ptrI18ADMaterialPropertyIdESt14default_deleteIS2_EESaIS5_EED2Ev
FNDA:0,_ZNSt12_Vector_baseISt10unique_ptrI18ADMaterialPropertyIdESt14default_deleteIS2_EESaIS5_EED2Ev
FN:333,_ZNSt12_Vector_baseISt10unique_ptrI16MaterialPropertyIdESt14default_deleteIS2_EESaIS5_EED2Ev
FNDA:0,_ZNSt12_Vector_baseISt10unique_ptrI16MaterialPropertyIdESt14default_deleteIS2_EESaIS5_EED2Ev
FN:333,_ZNSt12_Vector_baseIP15MooseVariableFVIdESaIS2_EED2Ev
FNDA:0,_ZNSt12_Vector_baseIP15MooseVariableFVIdESaIS2_EED2Ev
FN:333,_ZNSt12_Vector_baseIP15MooseVariableFEIN5Eigen6MatrixIdLin1ELi1ELi0ELin1ELi1EEEESaIS5_EED2Ev
FNDA:0,_ZNSt12_Vector_baseIP15MooseVariableFEIN5Eigen6MatrixIdLin1ELi1ELi0ELin1ELi1EEEESaIS5_EED2Ev
FN:333,_ZNSt12_Vector_baseIP15MooseVariableFEIN7libMesh11VectorValueIdEEESaIS5_EED2Ev
FNDA:0,_ZNSt12_Vector_baseIP15MooseVariableFEIN7libMesh11VectorValueIdEEESaIS5_EED2Ev
FN:333,_ZNSt12_Vector_baseIP15MooseVariableFEIdESaIS2_EED2Ev
FNDA:0,_ZNSt12_Vector_baseIP15MooseVariableFEIdESaIS2_EED2Ev
FN:333,_ZNSt12_Vector_baseISt10unique_ptrI18ADMaterialPropertyIN7libMesh11VectorValueIdEEESt14default_deleteIS5_EESaIS8_EED2Ev
FNDA:0,_ZNSt12_Vector_baseISt10unique_ptrI18ADMaterialPropertyIN7libMesh11VectorValueIdEEESt14default_deleteIS5_EESaIS8_EED2Ev
FN:333,_ZNSt12_Vector_baseISt10unique_ptrIN5Moose15FunctorEnvelopeIN11MetaPhysicL10DualNumberIdNS3_28SemiDynamicSparseNumberArrayIdmNS3_8NWrapperILm53EEEEELb1EEEEESt14default_deleteISA_EESaISD_EED2Ev
FNDA:0,_ZNSt12_Vector_baseISt10unique_ptrIN5Moose15FunctorEnvelopeIN11MetaPhysicL10DualNumberIdNS3_28SemiDynamicSparseNumberArrayIdmNS3_8NWrapperILm53EEEEELb1EEEEESt14default_deleteISA_EESaISD_EED2Ev
FN:333,_ZNSt12_Vector_baseISt10unique_ptrIN5Moose15FunctorEnvelopeIdEESt14default_deleteIS3_EESaIS6_EED2Ev
FNDA:0,_ZNSt12_Vector_baseISt10unique_ptrIN5Moose15FunctorEnvelopeIdEESt14default_deleteIS3_EESaIS6_EED2Ev
FN:333,_ZNSt12_Vector_baseIP19MooseVariableScalarSaIS1_EED2Ev
FNDA:0,_ZNSt12_Vector_baseIP19MooseVariableScalarSaIS1_EED2Ev
FN:333,_ZNSt12_Vector_baseI13SubdomainNameSaIS0_EED2Ev
FNDA:0,_ZNSt12_Vector_baseI13SubdomainNameSaIS0_EED2Ev
FN:333,_ZNSt12_Vector_baseItSaItEED2Ev
FNDA:0,_ZNSt12_Vector_baseItSaItEED2Ev
FN:333,_ZNSt12_Vector_baseIdSaIdEED2Ev
FNDA:6,_ZNSt12_Vector_baseIdSaIdEED2Ev
FN:333,_ZNSt12_Vector_baseIjSaIjEED2Ev
FNDA:0,_ZNSt12_Vector_baseIjSaIjEED2Ev
FN:333,_ZNSt12_Vector_baseISt6vectorIS0_IaSaIaEESaIS2_EESaIS4_EED2Ev
FNDA:0,_ZNSt12_Vector_baseISt6vectorIS0_IaSaIaEESaIS2_EESaIS4_EED2Ev
FN:333,_ZNSt12_Vector_baseISt6vectorIS0_IS0_ISt4pairIhhESaIS2_EESaIS4_EESaIS6_EESaIS8_EED2Ev
FNDA:0,_ZNSt12_Vector_baseISt6vectorIS0_IS0_ISt4pairIhhESaIS2_EESaIS4_EESaIS6_EESaIS8_EED2Ev
FN:333,_ZNSt12_Vector_baseINSt7__cxx1112basic_stringIcSt11char_traitsIcESaIcEEESaIS5_EED2Ev
FNDA:0,_ZNSt12_Vector_baseINSt7__cxx1112basic_stringIcSt11char_traitsIcESaIcEEESaIS5_EED2Ev
FN:333,_ZNSt12_Vector_baseISt10unique_ptrI10MooseArrayIdESt14default_deleteIS2_EESaIS5_EED2Ev
FNDA:0,_ZNSt12_Vector_baseISt10unique_ptrI10MooseArrayIdESt14default_deleteIS2_EESaIS5_EED2Ev
FN:333,_ZNSt12_Vector_baseISt5tupleIJNSt7__cxx1112basic_stringIcSt11char_traitsIcESaIcEEEN5Moose23RelationshipManagerTypeESt8functionIFvRK15InputParametersRSA_EEEESaISG_EED2Ev
FNDA:0,_ZNSt12_Vector_baseISt5tupleIJNSt7__cxx1112basic_stringIcSt11char_traitsIcESaIcEEEN5Moose23RelationshipManagerTypeESt8functionIFvRK15InputParametersRSA_EEEESaISG_EED2Ev
FN:333,_ZNSt12_Vector_baseISt4pairIhhESaIS1_EED2Ev
FNDA:0,_ZNSt12_Vector_baseISt4pairIhhESaIS1_EED2Ev
FN:333,_ZNSt12_Vector_baseISt6vectorISt4pairIbN11MetaPhysicL10DualNumberIdNS2_28SemiDynamicSparseNumberArrayIdmNS2_8NWrapperILm53EEEEELb1EEEESaIS9_EESaISB_EED2Ev
FNDA:0,_ZNSt12_Vector_baseISt6vectorISt4pairIbN11MetaPhysicL10DualNumberIdNS2_28SemiDynamicSparseNumberArrayIdmNS2_8NWrapperILm53EEEEELb1EEEESaIS9_EESaISB_EED2Ev
FN:333,_ZNSt12_Vector_baseISt4pairIbN11MetaPhysicL10DualNumberIdNS1_28SemiDynamicSparseNumberArrayIdmNS1_8NWrapperILm53EEEEELb1EEEESaIS8_EED2Ev
FNDA:0,_ZNSt12_Vector_baseISt4pairIbN11MetaPhysicL10DualNumberIdNS1_28SemiDynamicSparseNumberArrayIdmNS1_8NWrapperILm53EEEEELb1EEEESaIS8_EED2Ev
FN:333,_ZNSt12_Vector_baseISt6vectorISt4pairIbdESaIS2_EESaIS4_EED2Ev
FNDA:0,_ZNSt12_Vector_baseISt6vectorISt4pairIbdESaIS2_EESaIS4_EED2Ev
FN:333,_ZNSt12_Vector_baseISt4pairIbdESaIS1_EED2Ev
FNDA:0,_ZNSt12_Vector_baseISt4pairIbdESaIS1_EED2Ev
FN:333,_ZNSt12_Vector_baseIaSaIaEED2Ev
FNDA:0,_ZNSt12_Vector_baseIaSaIaEED2Ev
FN:333,_ZNSt12_Vector_baseISt6vectorISt4pairIhhESaIS2_EESaIS4_EED2Ev
FNDA:0,_ZNSt12_Vector_baseISt6vectorISt4pairIhhESaIS2_EESaIS4_EED2Ev
FN:625,_ZNSt6vectorIdSaIdEEC2ESt16initializer_listIdERKS0_
FNDA:0,_ZNSt6vectorIdSaIdEEC2ESt16initializer_listIdERKS0_
FN:625,_ZNSt6vectorINSt7__cxx1112basic_stringIcSt11char_traitsIcESaIcEEESaIS5_EEC2ESt16initializer_listIS5_ERKS6_
FNDA:0,_ZNSt6vectorINSt7__cxx1112basic_stringIcSt11char_traitsIcESaIcEEESaIS5_EEC2ESt16initializer_listIS5_ERKS6_
FN:678,_ZNSt6vectorISt10unique_ptrIN5Moose15FunctorEnvelopeIdEESt14default_deleteIS3_EESaIS6_EED2Ev
FNDA:0,_ZNSt6vectorISt10unique_ptrIN5Moose15FunctorEnvelopeIdEESt14default_deleteIS3_EESaIS6_EED2Ev
FN:678,_ZNSt6vectorISt10unique_ptrI16MaterialPropertyIdESt14default_deleteIS2_EESaIS5_EED2Ev
FNDA:0,_ZNSt6vectorISt10unique_ptrI16MaterialPropertyIdESt14default_deleteIS2_EESaIS5_EED2Ev
FN:678,_ZNSt6vectorISt10unique_ptrI18ADMaterialPropertyIdESt14default_deleteIS2_EESaIS5_EED2Ev
FNDA:0,_ZNSt6vectorISt10unique_ptrI18ADMaterialPropertyIdESt14default_deleteIS2_EESaIS5_EED2Ev
FN:678,_ZNSt6vectorISt10unique_ptrI16MaterialPropertyIN7libMesh11VectorValueIdEEESt14default_deleteIS5_EESaIS8_EED2Ev
FNDA:0,_ZNSt6vectorISt10unique_ptrI16MaterialPropertyIN7libMesh11VectorValueIdEEESt14default_deleteIS5_EESaIS8_EED2Ev
FN:678,_ZNSt6vectorISt10unique_ptrI18ADMaterialPropertyIN7libMesh11VectorValueIdEEESt14default_deleteIS5_EESaIS8_EED2Ev
FNDA:0,_ZNSt6vectorISt10unique_ptrI18ADMaterialPropertyIN7libMesh11VectorValueIdEEESt14default_deleteIS5_EESaIS8_EED2Ev
FN:678,_ZNSt6vectorISt10unique_ptrI33OptionalMaterialPropertyProxyBaseI25MaterialPropertyInterfaceESt14default_deleteIS3_EESaIS6_EED2Ev
FNDA:0,_ZNSt6vectorISt10unique_ptrI33OptionalMaterialPropertyProxyBaseI25MaterialPropertyInterfaceESt14default_deleteIS3_EESaIS6_EED2Ev
FN:678,_ZNSt6vectorISt10unique_ptrI33OptionalMaterialPropertyProxyBaseI8MaterialESt14default_deleteIS3_EESaIS6_EED2Ev
FNDA:0,_ZNSt6vectorISt10unique_ptrI33OptionalMaterialPropertyProxyBaseI8MaterialESt14default_deleteIS3_EESaIS6_EED2Ev
FN:678,_ZNSt6vectorI13SubdomainNameSaIS0_EED2Ev
FNDA:0,_ZNSt6vectorI13SubdomainNameSaIS0_EED2Ev
FN:678,_ZNSt6vectorISt10unique_ptrI10MooseArrayIdESt14default_deleteIS2_EESaIS5_EED2Ev
FNDA:0,_ZNSt6vectorISt10unique_ptrI10MooseArrayIdESt14default_deleteIS2_EESaIS5_EED2Ev
FN:678,_ZNSt6vectorISt10unique_ptrIN5Moose15FunctorEnvelopeIN11MetaPhysicL10DualNumberIdNS3_28SemiDynamicSparseNumberArrayIdmNS3_8NWrapperILm53EEEEELb1EEEEESt14default_deleteISA_EESaISD_EED2Ev
FNDA:0,_ZNSt6vectorISt10unique_ptrIN5Moose15FunctorEnvelopeIN11MetaPhysicL10DualNumberIdNS3_28SemiDynamicSparseNumberArrayIdmNS3_8NWrapperILm53EEEEELb1EEEEESt14default_deleteISA_EESaISD_EED2Ev
FN:678,_ZNSt6vectorISt5tupleIJNSt7__cxx1112basic_stringIcSt11char_traitsIcESaIcEEEN5Moose23RelationshipManagerTypeESt8functionIFvRK15InputParametersRSA_EEEESaISG_EED2Ev
FNDA:0,_ZNSt6vectorISt5tupleIJNSt7__cxx1112basic_stringIcSt11char_traitsIcESaIcEEEN5Moose23RelationshipManagerTypeESt8functionIFvRK15InputParametersRSA_EEEESaISG_EED2Ev
FN:678,_ZNSt6vectorIS_ISt4pairIhhESaIS1_EESaIS3_EED2Ev
FNDA:0,_ZNSt6vectorIS_ISt4pairIhhESaIS1_EESaIS3_EED2Ev
FN:678,_ZNSt6vectorIS_IaSaIaEESaIS1_EED2Ev
FNDA:0,_ZNSt6vectorIS_IaSaIaEESaIS1_EED2Ev
FN:678,_ZNSt6vectorIS_IS_ISt4pairIhhESaIS1_EESaIS3_EESaIS5_EED2Ev
FNDA:0,_ZNSt6vectorIS_IS_ISt4pairIhhESaIS1_EESaIS3_EESaIS5_EED2Ev
FN:678,_ZNSt6vectorINSt7__cxx1112basic_stringIcSt11char_traitsIcESaIcEEESaIS5_EED2Ev
FNDA:0,_ZNSt6vectorINSt7__cxx1112basic_stringIcSt11char_traitsIcESaIcEEESaIS5_EED2Ev
FN:678,_ZNSt6vectorIS_ISt4pairIbN11MetaPhysicL10DualNumberIdNS1_28SemiDynamicSparseNumberArrayIdmNS1_8NWrapperILm53EEEEELb1EEEESaIS8_EESaISA_EED2Ev
FNDA:0,_ZNSt6vectorIS_ISt4pairIbN11MetaPhysicL10DualNumberIdNS1_28SemiDynamicSparseNumberArrayIdmNS1_8NWrapperILm53EEEEELb1EEEESaIS8_EESaISA_EED2Ev
FN:678,_ZNSt6vectorIS_ISt4pairIbdESaIS1_EESaIS3_EED2Ev
FNDA:0,_ZNSt6vectorIS_ISt4pairIbdESaIS1_EESaIS3_EED2Ev
FN:678,_ZNSt6vectorIS_IS_IaSaIaEESaIS1_EESaIS3_EED2Ev
FNDA:0,_ZNSt6vectorIS_IS_IaSaIaEESaIS1_EESaIS3_EED2Ev
FN:678,_ZNSt6vectorIS_IS_IS_ISt4pairIhhESaIS1_EESaIS3_EESaIS5_EESaIS7_EED2Ev
FNDA:0,_ZNSt6vectorIS_IS_IS_ISt4pairIhhESaIS1_EESaIS3_EESaIS5_EESaIS7_EED2Ev
FN:937,_ZNSt6vectorIS_ISt4pairIbdESaIS1_EESaIS3_EE6resizeEm
FNDA:0,_ZNSt6vectorIS_ISt4pairIbdESaIS1_EESaIS3_EE6resizeEm
FN:937,_ZNSt6vectorIS_ISt4pairIbN11MetaPhysicL10DualNumberIdNS1_28SemiDynamicSparseNumberArrayIdmNS1_8NWrapperILm53EEEEELb1EEEESaIS8_EESaISA_EE6resizeEm
FNDA:0,_ZNSt6vectorIS_ISt4pairIbN11MetaPhysicL10DualNumberIdNS1_28SemiDynamicSparseNumberArrayIdmNS1_8NWrapperILm53EEEEELb1EEEESaIS8_EESaISA_EE6resizeEm
FN:957,_ZNSt6vectorISt4pairIbN11MetaPhysicL10DualNumberIdNS1_28SemiDynamicSparseNumberArrayIdmNS1_8NWrapperILm53EEEEELb1EEEESaIS8_EE6resizeEmRKS8_
FNDA:0,_ZNSt6vectorISt4pairIbN11MetaPhysicL10DualNumberIdNS1_28SemiDynamicSparseNumberArrayIdmNS1_8NWrapperILm53EEEEELb1EEEESaIS8_EE6resizeEmRKS8_
FN:957,_ZNSt6vectorISt4pairIbdESaIS1_EE6resizeEmRKS1_
FNDA:0,_ZNSt6vectorISt4pairIbdESaIS1_EE6resizeEmRKS1_
FN:957,_ZNSt6vectorIP13PropertyValueSaIS1_EE6resizeEmRKS1_
FNDA:0,_ZNSt6vectorIP13PropertyValueSaIS1_EE6resizeEmRKS1_
FN:1577,_ZNSt6vectorIdSaIdEE19_M_range_initializeIPKdEEvT_S5_St20forward_iterator_tag
FNDA:0,_ZNSt6vectorIdSaIdEE19_M_range_initializeIPKdEEvT_S5_St20forward_iterator_tag
FN:1577,_ZNSt6vectorINSt7__cxx1112basic_stringIcSt11char_traitsIcESaIcEEESaIS5_EE19_M_range_initializeIPKS5_EEvT_SB_St20forward_iterator_tag
FNDA:0,_ZNSt6vectorINSt7__cxx1112basic_stringIcSt11char_traitsIcESaIcEEESaIS5_EE19_M_range_initializeIPKS5_EEvT_SB_St20forward_iterator_tag
FN:1756,_ZNKSt6vectorISt4pairIbdESaIS1_EE12_M_check_lenEmPKc
FNDA:0,_ZNKSt6vectorISt4pairIbdESaIS1_EE12_M_check_lenEmPKc
FN:1756,_ZNKSt6vectorIS_ISt4pairIbN11MetaPhysicL10DualNumberIdNS1_28SemiDynamicSparseNumberArrayIdmNS1_8NWrapperILm53EEEEELb1EEEESaIS8_EESaISA_EE12_M_check_lenEmPKc
FNDA:0,_ZNKSt6vectorIS_ISt4pairIbN11MetaPhysicL10DualNumberIdNS1_28SemiDynamicSparseNumberArrayIdmNS1_8NWrapperILm53EEEEELb1EEEESaIS8_EESaISA_EE12_M_check_lenEmPKc
FN:1756,_ZNKSt6vectorIS_ISt4pairIbdESaIS1_EESaIS3_EE12_M_check_lenEmPKc
FNDA:0,_ZNKSt6vectorIS_ISt4pairIbdESaIS1_EESaIS3_EE12_M_check_lenEmPKc
FN:1756,_ZNKSt6vectorIP13PropertyValueSaIS1_EE12_M_check_lenEmPKc
FNDA:0,_ZNKSt6vectorIP13PropertyValueSaIS1_EE12_M_check_lenEmPKc
FN:1756,_ZNKSt6vectorISt4pairIbN11MetaPhysicL10DualNumberIdNS1_28SemiDynamicSparseNumberArrayIdmNS1_8NWrapperILm53EEEEELb1EEEESaIS8_EE12_M_check_lenEmPKc
FNDA:0,_ZNKSt6vectorISt4pairIbN11MetaPhysicL10DualNumberIdNS1_28SemiDynamicSparseNumberArrayIdmNS1_8NWrapperILm53EEEEELb1EEEESaIS8_EE12_M_check_lenEmPKc
FN:1792,_ZNSt6vectorIS_ISt4pairIbN11MetaPhysicL10DualNumberIdNS1_28SemiDynamicSparseNumberArrayIdmNS1_8NWrapperILm53EEEEELb1EEEESaIS8_EESaISA_EE15_M_erase_at_endEPSA_
FNDA:0,_ZNSt6vectorIS_ISt4pairIbN11MetaPhysicL10DualNumberIdNS1_28SemiDynamicSparseNumberArrayIdmNS1_8NWrapperILm53EEEEELb1EEEESaIS8_EESaISA_EE15_M_erase_at_endEPSA_
FN:1792,_ZNSt6vectorIS_ISt4pairIbdESaIS1_EESaIS3_EE15_M_erase_at_endEPS3_
FNDA:0,_ZNSt6vectorIS_ISt4pairIbdESaIS1_EESaIS3_EE15_M_erase_at_endEPS3_
FNF:67
FNH:1
DA:97,0
DA:98,0
DA:102,0
DA:103,0
DA:104,0
DA:105,0
DA:277,0
DA:333,0
DA:336,0
DA:337,0
DA:333,0
DA:336,0
DA:337,0
DA:333,0
DA:336,0
DA:337,0
DA:333,0
DA:336,0
DA:337,0
DA:333,0
DA:336,0
DA:337,0
DA:333,6
DA:336,6
DA:337,6
DA:333,0
DA:336,0
DA:337,0
DA:333,0
DA:336,0
DA:337,0
DA:333,0
DA:336,0
DA:337,0
DA:333,0
DA:336,0
DA:337,0
DA:333,0
DA:336,0
DA:337,0
DA:333,0
DA:336,0
DA:337,0
DA:333,0
DA:336,0
DA:337,0
DA:333,0
DA:336,0
DA:337,0
DA:333,0
DA:336,0
DA:337,0
DA:333,0
DA:336,0
DA:337,0
DA:333,0
DA:336,0
DA:337,0
DA:333,0
DA:336,0
DA:337,0
DA:333,0
DA:336,0
DA:337,0
DA:333,0
DA:336,0
DA:337,0
DA:333,0
DA:336,0
DA:337,0
DA:333,0
DA:336,0
DA:337,0
DA:333,0
DA:336,0
DA:337,0
DA:333,0
DA:336,0
DA:337,0
DA:333,0
DA:336,0
DA:337,0
DA:333,0
DA:336,0
DA:337,0
DA:333,0
DA:335,0
DA:336,0
DA:337,0
DA:333,0
DA:336,0
DA:337,0
DA:333,0
DA:336,0
DA:337,0
DA:333,0
DA:336,0
DA:337,0
DA:333,0
DA:336,0
DA:337,0
DA:333,0
DA:336,0
DA:337,0
DA:346,0
DA:353,6
DA:625,0
DA:627,0
DA:629,0
DA:631,0
DA:625,0
DA:627,0
DA:629,0
DA:631,0
DA:678,0
DA:680,0
DA:683,0
DA:678,0
DA:680,0
DA:683,0
DA:678,0
DA:680,0
DA:683,0
DA:678,0
DA:680,0
DA:683,0
DA:678,0
DA:680,0
DA:683,0
DA:678,0
DA:680,0
DA:683,0
DA:678,0
DA:680,0
DA:683,0
DA:678,0
DA:680,0
DA:683,0
DA:678,0
DA:680,0
DA:683,0
DA:678,0
DA:680,0
DA:683,0
DA:678,0
DA:680,0
DA:683,0
DA:678,0
DA:680,0
DA:683,0
DA:678,0
DA:680,0
DA:683,0
DA:678,0
DA:680,0
DA:683,0
DA:678,0
DA:680,0
DA:683,0
DA:678,0
DA:680,0
DA:683,0
DA:678,0
DA:680,0
DA:683,0
DA:678,0
DA:680,0
DA:683,0
DA:678,0
DA:680,0
DA:683,0
DA:683,6
DA:919,0
DA:937,0
DA:939,0
DA:940,0
DA:941,0
DA:942,0
DA:943,0
DA:937,0
DA:939,0
DA:940,0
DA:941,0
DA:942,0
DA:943,0
DA:957,0
DA:959,0
DA:960,0
DA:961,0
DA:962,0
DA:963,0
DA:957,0
DA:959,0
DA:960,0
DA:961,0
DA:962,0
DA:963,0
DA:957,0
DA:959,0
DA:960,0
DA:961,0
DA:962,0
DA:963,0
DA:1046,0
DA:1577,0
DA:1580,0
DA:1582,0
DA:1583,0
DA:1584,0
DA:1588,0
DA:1577,0
DA:1580,0
DA:1582,0
DA:1583,0
DA:1584,0
DA:1588,0
DA:1709,0
DA:1716,0
DA:1756,0
DA:1758,0
DA:1759,0
DA:1761,0
DA:1762,0
DA:1756,0
DA:1758,0
DA:1759,0
DA:1761,0
DA:1762,0
DA:1756,0
DA:1758,0
DA:1759,0
DA:1761,0
DA:1762,0
DA:1756,0
DA:1758,0
DA:1759,0
DA:1761,0
DA:1762,0
DA:1756,0
DA:1758,0
DA:1759,0
DA:1761,0
DA:1762,0
DA:1769,0
DA:1770,0
DA:1792,0
DA:1794,0
DA:1798,0
DA:1801,0
DA:1792,0
DA:1794,0
DA:1798,0
DA:1801,0
DA:1794,0
DA:1798,0
LF:255
LH:5
end_of_record
SF:/usr/share/miniconda/envs/moose/x86_64-conda-linux-gnu/include/c++/10.3.0/streambuf
LF:0
LH:0
end_of_record
SF:/home/runner/work/raccoon/raccoon/moose/framework/build/header_symlinks/PostprocessorInterface.h
FN:139,_ZNK22PostprocessorInterface32addPostprocessorDependencyHelperERK17PostprocessorName
FNDA:0,_ZNK22PostprocessorInterface32addPostprocessorDependencyHelperERK17PostprocessorName
FNF:1
FNH:0
DA:139,0
LF:1
LH:0
end_of_record
SF:/usr/share/miniconda/envs/moose/x86_64-conda-linux-gnu/include/c++/10.3.0/bits/char_traits.h
DA:329,0
DA:371,7028
LF:2
LH:1
end_of_record
SF:/usr/share/miniconda/envs/moose/x86_64-conda-linux-gnu/include/c++/10.3.0/bits/shared_ptr_base.h
FN:134,_ZNSt16_Sp_counted_baseILN9__gnu_cxx12_Lock_policyE2EE10_M_destroyEv
FNDA:0,_ZNSt16_Sp_counted_baseILN9__gnu_cxx12_Lock_policyE2EE10_M_destroyEv
FN:151,_ZNSt16_Sp_counted_baseILN9__gnu_cxx12_Lock_policyE2EE10_M_releaseEv
FNDA:0,_ZNSt16_Sp_counted_baseILN9__gnu_cxx12_Lock_policyE2EE10_M_releaseEv
FN:407,_ZNSt15_Sp_counted_ptrIDnLN9__gnu_cxx12_Lock_policyE2EE10_M_disposeEv
FNDA:0,_ZNSt15_Sp_counted_ptrIDnLN9__gnu_cxx12_Lock_policyE2EE10_M_disposeEv
FN:555,_ZNSt23_Sp_counted_ptr_inplaceISt5mutexSaIS0_ELN9__gnu_cxx12_Lock_policyE2EED0Ev
FNDA:0,_ZNSt23_Sp_counted_ptr_inplaceISt5mutexSaIS0_ELN9__gnu_cxx12_Lock_policyE2EED0Ev
FN:555,_ZNSt23_Sp_counted_ptr_inplaceISt5mutexSaIS0_ELN9__gnu_cxx12_Lock_policyE2EED2Ev
FNDA:0,_ZNSt23_Sp_counted_ptr_inplaceISt5mutexSaIS0_ELN9__gnu_cxx12_Lock_policyE2EED2Ev
FN:555,_ZNSt23_Sp_counted_ptr_inplaceINSt13__future_base13_State_baseV2ESaIS1_ELN9__gnu_cxx12_Lock_policyE2EED0Ev
FNDA:0,_ZNSt23_Sp_counted_ptr_inplaceINSt13__future_base13_State_baseV2ESaIS1_ELN9__gnu_cxx12_Lock_policyE2EED0Ev
FN:555,_ZNSt23_Sp_counted_ptr_inplaceINSt13__future_base13_State_baseV2ESaIS1_ELN9__gnu_cxx12_Lock_policyE2EED2Ev
FNDA:0,_ZNSt23_Sp_counted_ptr_inplaceINSt13__future_base13_State_baseV2ESaIS1_ELN9__gnu_cxx12_Lock_policyE2EED2Ev
FN:555,_ZNSt23_Sp_counted_ptr_inplaceI28SmallDeformationJ2PlasticitySaIS0_ELN9__gnu_cxx12_Lock_policyE2EED2Ev
FNDA:0,_ZNSt23_Sp_counted_ptr_inplaceI28SmallDeformationJ2PlasticitySaIS0_ELN9__gnu_cxx12_Lock_policyE2EED2Ev
FN:555,_ZNSt23_Sp_counted_ptr_inplaceI28SmallDeformationJ2PlasticitySaIS0_ELN9__gnu_cxx12_Lock_policyE2EED0Ev
FNDA:0,_ZNSt23_Sp_counted_ptr_inplaceI28SmallDeformationJ2PlasticitySaIS0_ELN9__gnu_cxx12_Lock_policyE2EED0Ev
FN:555,_ZNSt23_Sp_counted_ptr_inplaceI29ComputeSmallDeformationStressSaIS0_ELN9__gnu_cxx12_Lock_policyE2EED0Ev
FNDA:0,_ZNSt23_Sp_counted_ptr_inplaceI29ComputeSmallDeformationStressSaIS0_ELN9__gnu_cxx12_Lock_policyE2EED0Ev
FN:555,_ZNSt23_Sp_counted_ptr_inplaceI29ComputeSmallDeformationStressSaIS0_ELN9__gnu_cxx12_Lock_policyE2EED2Ev
FNDA:0,_ZNSt23_Sp_counted_ptr_inplaceI29ComputeSmallDeformationStressSaIS0_ELN9__gnu_cxx12_Lock_policyE2EED2Ev
FN:555,_ZNSt23_Sp_counted_ptr_inplaceI35SmallDeformationIsotropicElasticitySaIS0_ELN9__gnu_cxx12_Lock_policyE2EED2Ev
FNDA:0,_ZNSt23_Sp_counted_ptr_inplaceI35SmallDeformationIsotropicElasticitySaIS0_ELN9__gnu_cxx12_Lock_policyE2EED2Ev
FN:555,_ZNSt23_Sp_counted_ptr_inplaceI35SmallDeformationIsotropicElasticitySaIS0_ELN9__gnu_cxx12_Lock_policyE2EED0Ev
FNDA:0,_ZNSt23_Sp_counted_ptr_inplaceI35SmallDeformationIsotropicElasticitySaIS0_ELN9__gnu_cxx12_Lock_policyE2EED0Ev
FN:558,_ZNSt23_Sp_counted_ptr_inplaceISt5mutexSaIS0_ELN9__gnu_cxx12_Lock_policyE2EE10_M_disposeEv
FNDA:0,_ZNSt23_Sp_counted_ptr_inplaceISt5mutexSaIS0_ELN9__gnu_cxx12_Lock_policyE2EE10_M_disposeEv
FN:558,_ZNSt23_Sp_counted_ptr_inplaceI28SmallDeformationJ2PlasticitySaIS0_ELN9__gnu_cxx12_Lock_policyE2EE10_M_disposeEv
FNDA:6,_ZNSt23_Sp_counted_ptr_inplaceI28SmallDeformationJ2PlasticitySaIS0_ELN9__gnu_cxx12_Lock_policyE2EE10_M_disposeEv
FN:558,_ZNSt23_Sp_counted_ptr_inplaceI35SmallDeformationIsotropicElasticitySaIS0_ELN9__gnu_cxx12_Lock_policyE2EE10_M_disposeEv
FNDA:42,_ZNSt23_Sp_counted_ptr_inplaceI35SmallDeformationIsotropicElasticitySaIS0_ELN9__gnu_cxx12_Lock_policyE2EE10_M_disposeEv
FN:558,_ZNSt23_Sp_counted_ptr_inplaceI29ComputeSmallDeformationStressSaIS0_ELN9__gnu_cxx12_Lock_policyE2EE10_M_disposeEv
FNDA:42,_ZNSt23_Sp_counted_ptr_inplaceI29ComputeSmallDeformationStressSaIS0_ELN9__gnu_cxx12_Lock_policyE2EE10_M_disposeEv
FN:558,_ZNSt23_Sp_counted_ptr_inplaceINSt13__future_base13_State_baseV2ESaIS1_ELN9__gnu_cxx12_Lock_policyE2EE10_M_disposeEv
FNDA:0,_ZNSt23_Sp_counted_ptr_inplaceINSt13__future_base13_State_baseV2ESaIS1_ELN9__gnu_cxx12_Lock_policyE2EE10_M_disposeEv
FN:565,_ZNSt23_Sp_counted_ptr_inplaceI35SmallDeformationIsotropicElasticitySaIS0_ELN9__gnu_cxx12_Lock_policyE2EE10_M_destroyEv
FNDA:42,_ZNSt23_Sp_counted_ptr_inplaceI35SmallDeformationIsotropicElasticitySaIS0_ELN9__gnu_cxx12_Lock_policyE2EE10_M_destroyEv
FN:565,_ZNSt23_Sp_counted_ptr_inplaceI28SmallDeformationJ2PlasticitySaIS0_ELN9__gnu_cxx12_Lock_policyE2EE10_M_destroyEv
FNDA:6,_ZNSt23_Sp_counted_ptr_inplaceI28SmallDeformationJ2PlasticitySaIS0_ELN9__gnu_cxx12_Lock_policyE2EE10_M_destroyEv
FN:565,_ZNSt23_Sp_counted_ptr_inplaceI29ComputeSmallDeformationStressSaIS0_ELN9__gnu_cxx12_Lock_policyE2EE10_M_destroyEv
FNDA:42,_ZNSt23_Sp_counted_ptr_inplaceI29ComputeSmallDeformationStressSaIS0_ELN9__gnu_cxx12_Lock_policyE2EE10_M_destroyEv
FN:565,_ZNSt23_Sp_counted_ptr_inplaceINSt13__future_base13_State_baseV2ESaIS1_ELN9__gnu_cxx12_Lock_policyE2EE10_M_destroyEv
FNDA:0,_ZNSt23_Sp_counted_ptr_inplaceINSt13__future_base13_State_baseV2ESaIS1_ELN9__gnu_cxx12_Lock_policyE2EE10_M_destroyEv
FN:565,_ZNSt23_Sp_counted_ptr_inplaceISt5mutexSaIS0_ELN9__gnu_cxx12_Lock_policyE2EE10_M_destroyEv
FNDA:0,_ZNSt23_Sp_counted_ptr_inplaceISt5mutexSaIS0_ELN9__gnu_cxx12_Lock_policyE2EE10_M_destroyEv
FN:578,_ZNSt23_Sp_counted_ptr_inplaceI35SmallDeformationIsotropicElasticitySaIS0_ELN9__gnu_cxx12_Lock_policyE2EE14_M_get_deleterERKSt9type_info
FNDA:0,_ZNSt23_Sp_counted_ptr_inplaceI35SmallDeformationIsotropicElasticitySaIS0_ELN9__gnu_cxx12_Lock_policyE2EE14_M_get_deleterERKSt9type_info
FN:578,_ZNSt23_Sp_counted_ptr_inplaceI28SmallDeformationJ2PlasticitySaIS0_ELN9__gnu_cxx12_Lock_policyE2EE14_M_get_deleterERKSt9type_info
FNDA:0,_ZNSt23_Sp_counted_ptr_inplaceI28SmallDeformationJ2PlasticitySaIS0_ELN9__gnu_cxx12_Lock_policyE2EE14_M_get_deleterERKSt9type_info
FN:578,_ZNSt23_Sp_counted_ptr_inplaceI29ComputeSmallDeformationStressSaIS0_ELN9__gnu_cxx12_Lock_policyE2EE14_M_get_deleterERKSt9type_info
FNDA:0,_ZNSt23_Sp_counted_ptr_inplaceI29ComputeSmallDeformationStressSaIS0_ELN9__gnu_cxx12_Lock_policyE2EE14_M_get_deleterERKSt9type_info
FN:675,_ZNSt14__shared_countILN9__gnu_cxx12_Lock_policyE2EEC2I28SmallDeformationJ2PlasticitySaIS4_EJRK15InputParametersEEERPT_St20_Sp_alloc_shared_tagIT0_EDpOT1_
FNDA:6,_ZNSt14__shared_countILN9__gnu_cxx12_Lock_policyE2EEC2I28SmallDeformationJ2PlasticitySaIS4_EJRK15InputParametersEEERPT_St20_Sp_alloc_shared_tagIT0_EDpOT1_
FN:675,_ZNSt14__shared_countILN9__gnu_cxx12_Lock_policyE2EEC2I35SmallDeformationIsotropicElasticitySaIS4_EJRK15InputParametersEEERPT_St20_Sp_alloc_shared_tagIT0_EDpOT1_
FNDA:42,_ZNSt14__shared_countILN9__gnu_cxx12_Lock_policyE2EEC2I35SmallDeformationIsotropicElasticitySaIS4_EJRK15InputParametersEEERPT_St20_Sp_alloc_shared_tagIT0_EDpOT1_
FN:675,_ZNSt14__shared_countILN9__gnu_cxx12_Lock_policyE2EEC2I29ComputeSmallDeformationStressSaIS4_EJRK15InputParametersEEERPT_St20_Sp_alloc_shared_tagIT0_EDpOT1_
FNDA:42,_ZNSt14__shared_countILN9__gnu_cxx12_Lock_policyE2EEC2I29ComputeSmallDeformationStressSaIS4_EJRK15InputParametersEEERPT_St20_Sp_alloc_shared_tagIT0_EDpOT1_
FNF:29
FNH:9
DA:120,90
DA:121,90
DA:134,0
DA:135,0
DA:151,0
DA:155,0
DA:158,0
DA:170,0
DA:174,0
DA:177,0
DA:407,0
DA:534,90
DA:546,90
DA:547,90
DA:553,90
DA:555,0
DA:555,0
DA:555,0
DA:555,0
DA:555,0
DA:555,0
DA:555,0
DA:555,0
DA:555,0
DA:555,0
DA:555,90
DA:558,0
DA:561,0
DA:558,0
DA:561,0
DA:558,42
DA:561,42
DA:558,42
DA:561,42
DA:558,6
DA:561,6
DA:565,0
DA:568,0
DA:570,0
DA:565,0
DA:568,0
DA:570,0
DA:565,42
DA:568,42
DA:570,42
DA:565,42
DA:568,42
DA:570,42
DA:565,6
DA:568,6
DA:570,6
DA:578,0
DA:586,0
DA:588,0
DA:593,0
DA:578,0
DA:586,0
DA:588,0
DA:593,0
DA:578,0
DA:586,0
DA:588,0
DA:593,0
DA:675,6
DA:680,0
DA:685,6
DA:686,6
DA:687,6
DA:675,42
DA:680,0
DA:685,42
DA:686,42
DA:687,42
DA:675,42
DA:680,0
DA:685,42
DA:686,42
DA:687,42
DA:732,0
DA:733,0
DA:761,90
DA:763,90
DA:1199,90
DA:1325,0
DA:1370,90
DA:1371,90
LF:86
LH:39
end_of_record
SF:/usr/share/miniconda/envs/moose/libmesh/include/libmesh/type_vector.h
FN:464,_ZN7libMesh10TypeVectorIN11MetaPhysicL10DualNumberIdNS1_28SemiDynamicSparseNumberArrayIdmNS1_8NWrapperILm53EEEEELb1EEEEC2Ev
FNDA:0,_ZN7libMesh10TypeVectorIN11MetaPhysicL10DualNumberIdNS1_28SemiDynamicSparseNumberArrayIdmNS1_8NWrapperILm53EEEEELb1EEEEC2Ev
FN:557,_ZN7libMesh10TypeVectorIN11MetaPhysicL10DualNumberIdNS1_28SemiDynamicSparseNumberArrayIdmNS1_8NWrapperILm53EEEEELb1EEEEC2IdEERKNS0_IT_EE
FNDA:0,_ZN7libMesh10TypeVectorIN11MetaPhysicL10DualNumberIdNS1_28SemiDynamicSparseNumberArrayIdmNS1_8NWrapperILm53EEEEELb1EEEEC2IdEERKNS0_IT_EE
FNF:2
FNH:0
DA:464,0
DA:466,0
DA:469,0
DA:473,0
DA:475,0
DA:557,0
DA:560,0
DA:561,0
DA:562,0
DA:583,0
LF:10
LH:0
end_of_record
SF:/usr/share/miniconda/envs/moose/libmesh/include/libmesh/vector_value.h
DA:47,0
DA:150,0
DA:151,0
DA:198,0
DA:199,0
DA:262,0
DA:263,0
LF:7
LH:0
end_of_record
SF:/home/runner/work/raccoon/raccoon/moose/framework/build/header_symlinks/MooseFunctor.h
FN:41,_ZN5MooseltERKNS_7ElemArgES2_
FNDA:0,_ZN5MooseltERKNS_7ElemArgES2_
FN:84,_ZN5MooseltERKNS_15ElemFromFaceArgES2_
FNDA:0,_ZN5MooseltERKNS_15ElemFromFaceArgES2_
FN:157,_ZN5MooseltERKNS_7FaceArgES2_
FNDA:0,_ZN5MooseltERKNS_7FaceArgES2_
FN:219,_ZN5MooseltERKNS_18SingleSidedFaceArgES2_
FNDA:0,_ZN5MooseltERKNS_18SingleSidedFaceArgES2_
FN:272,_ZN5Moose11FunctorBaseIN11MetaPhysicL10DualNumberIdNS1_28SemiDynamicSparseNumberArrayIdmNS1_8NWrapperILm53EEEEELb1EEEED0Ev
FNDA:0,_ZN5Moose11FunctorBaseIN11MetaPhysicL10DualNumberIdNS1_28SemiDynamicSparseNumberArrayIdmNS1_8NWrapperILm53EEEEELb1EEEED0Ev
FN:272,_ZN5Moose11FunctorBaseIN11MetaPhysicL10DualNumberIdNS1_28SemiDynamicSparseNumberArrayIdmNS1_8NWrapperILm53EEEEELb1EEEED2Ev
FNDA:0,_ZN5Moose11FunctorBaseIN11MetaPhysicL10DualNumberIdNS1_28SemiDynamicSparseNumberArrayIdmNS1_8NWrapperILm53EEEEELb1EEEED2Ev
FN:272,_ZN5Moose11FunctorBaseIdED0Ev
FNDA:0,_ZN5Moose11FunctorBaseIdED0Ev
FN:272,_ZN5Moose11FunctorBaseIdED2Ev
FNDA:0,_ZN5Moose11FunctorBaseIdED2Ev
FN:330,_ZNK5Moose11FunctorBaseIN11MetaPhysicL10DualNumberIdNS1_28SemiDynamicSparseNumberArrayIdmNS1_8NWrapperILm53EEEEELb1EEEE26isExtrapolatedBoundaryFaceERK8FaceInfo
FNDA:0,_ZNK5Moose11FunctorBaseIN11MetaPhysicL10DualNumberIdNS1_28SemiDynamicSparseNumberArrayIdmNS1_8NWrapperILm53EEEEELb1EEEE26isExtrapolatedBoundaryFaceERK8FaceInfo
FN:330,_ZNK5Moose11FunctorBaseIdE26isExtrapolatedBoundaryFaceERK8FaceInfo
FNDA:0,_ZNK5Moose11FunctorBaseIdE26isExtrapolatedBoundaryFaceERK8FaceInfo
FN:383,_ZNK5Moose11FunctorBaseIN11MetaPhysicL10DualNumberIdNS1_28SemiDynamicSparseNumberArrayIdmNS1_8NWrapperILm53EEEEELb1EEEE16evaluateGradientERKNS_7ElemArgEj
FNDA:0,_ZNK5Moose11FunctorBaseIN11MetaPhysicL10DualNumberIdNS1_28SemiDynamicSparseNumberArrayIdmNS1_8NWrapperILm53EEEEELb1EEEE16evaluateGradientERKNS_7ElemArgEj
FN:383,_ZNK5Moose11FunctorBaseIdE16evaluateGradientERKNS_7ElemArgEj
FNDA:0,_ZNK5Moose11FunctorBaseIdE16evaluateGradientERKNS_7ElemArgEj
FN:394,_ZNK5Moose11FunctorBaseIN11MetaPhysicL10DualNumberIdNS1_28SemiDynamicSparseNumberArrayIdmNS1_8NWrapperILm53EEEEELb1EEEE16evaluateGradientERKNS_15ElemFromFaceArgEj
FNDA:0,_ZNK5Moose11FunctorBaseIN11MetaPhysicL10DualNumberIdNS1_28SemiDynamicSparseNumberArrayIdmNS1_8NWrapperILm53EEEEELb1EEEE16evaluateGradientERKNS_15ElemFromFaceArgEj
FN:394,_ZNK5Moose11FunctorBaseIdE16evaluateGradientERKNS_15ElemFromFaceArgEj
FNDA:0,_ZNK5Moose11FunctorBaseIdE16evaluateGradientERKNS_15ElemFromFaceArgEj
FN:405,_ZNK5Moose11FunctorBaseIN11MetaPhysicL10DualNumberIdNS1_28SemiDynamicSparseNumberArrayIdmNS1_8NWrapperILm53EEEEELb1EEEE16evaluateGradientERKNS_7FaceArgEj
FNDA:0,_ZNK5Moose11FunctorBaseIN11MetaPhysicL10DualNumberIdNS1_28SemiDynamicSparseNumberArrayIdmNS1_8NWrapperILm53EEEEELb1EEEE16evaluateGradientERKNS_7FaceArgEj
FN:405,_ZNK5Moose11FunctorBaseIdE16evaluateGradientERKNS_7FaceArgEj
FNDA:0,_ZNK5Moose11FunctorBaseIdE16evaluateGradientERKNS_7FaceArgEj
FN:416,_ZNK5Moose11FunctorBaseIN11MetaPhysicL10DualNumberIdNS1_28SemiDynamicSparseNumberArrayIdmNS1_8NWrapperILm53EEEEELb1EEEE16evaluateGradientERKNS_18SingleSidedFaceArgEj
FNDA:0,_ZNK5Moose11FunctorBaseIN11MetaPhysicL10DualNumberIdNS1_28SemiDynamicSparseNumberArrayIdmNS1_8NWrapperILm53EEEEELb1EEEE16evaluateGradientERKNS_18SingleSidedFaceArgEj
FN:416,_ZNK5Moose11FunctorBaseIdE16evaluateGradientERKNS_18SingleSidedFaceArgEj
FNDA:0,_ZNK5Moose11FunctorBaseIdE16evaluateGradientERKNS_18SingleSidedFaceArgEj
FN:427,_ZNK5Moose11FunctorBaseIN11MetaPhysicL10DualNumberIdNS1_28SemiDynamicSparseNumberArrayIdmNS1_8NWrapperILm53EEEEELb1EEEE16evaluateGradientERKSt5tupleIJPKN7libMesh4ElemEjPKNSA_5QBaseEEEj
FNDA:0,_ZNK5Moose11FunctorBaseIN11MetaPhysicL10DualNumberIdNS1_28SemiDynamicSparseNumberArrayIdmNS1_8NWrapperILm53EEEEELb1EEEE16evaluateGradientERKSt5tupleIJPKN7libMesh4ElemEjPKNSA_5QBaseEEEj
FN:427,_ZNK5Moose11FunctorBaseIdE16evaluateGradientERKSt5tupleIJPKN7libMesh4ElemEjPKNS3_5QBaseEEEj
FNDA:0,_ZNK5Moose11FunctorBaseIdE16evaluateGradientERKSt5tupleIJPKN7libMesh4ElemEjPKNS3_5QBaseEEEj
FN:438,_ZNK5Moose11FunctorBaseIN11MetaPhysicL10DualNumberIdNS1_28SemiDynamicSparseNumberArrayIdmNS1_8NWrapperILm53EEEEELb1EEEE16evaluateGradientERKSt5tupleIJPKN7libMesh4ElemEjjPKNSA_5QBaseEEEj
FNDA:0,_ZNK5Moose11FunctorBaseIN11MetaPhysicL10DualNumberIdNS1_28SemiDynamicSparseNumberArrayIdmNS1_8NWrapperILm53EEEEELb1EEEE16evaluateGradientERKSt5tupleIJPKN7libMesh4ElemEjjPKNSA_5QBaseEEEj
FN:438,_ZNK5Moose11FunctorBaseIdE16evaluateGradientERKSt5tupleIJPKN7libMesh4ElemEjjPKNS3_5QBaseEEEj
FNDA:0,_ZNK5Moose11FunctorBaseIdE16evaluateGradientERKSt5tupleIJPKN7libMesh4ElemEjjPKNS3_5QBaseEEEj
FN:447,_ZNK5Moose11FunctorBaseIdE11evaluateDotERKNS_7ElemArgEj
FNDA:0,_ZNK5Moose11FunctorBaseIdE11evaluateDotERKNS_7ElemArgEj
FN:447,_ZNK5Moose11FunctorBaseIN11MetaPhysicL10DualNumberIdNS1_28SemiDynamicSparseNumberArrayIdmNS1_8NWrapperILm53EEEEELb1EEEE11evaluateDotERKNS_7ElemArgEj
FNDA:0,_ZNK5Moose11FunctorBaseIN11MetaPhysicL10DualNumberIdNS1_28SemiDynamicSparseNumberArrayIdmNS1_8NWrapperILm53EEEEELb1EEEE11evaluateDotERKNS_7ElemArgEj
FN:458,_ZNK5Moose11FunctorBaseIdE11evaluateDotERKNS_15ElemFromFaceArgEj
FNDA:0,_ZNK5Moose11FunctorBaseIdE11evaluateDotERKNS_15ElemFromFaceArgEj
FN:458,_ZNK5Moose11FunctorBaseIN11MetaPhysicL10DualNumberIdNS1_28SemiDynamicSparseNumberArrayIdmNS1_8NWrapperILm53EEEEELb1EEEE11evaluateDotERKNS_15ElemFromFaceArgEj
FNDA:0,_ZNK5Moose11FunctorBaseIN11MetaPhysicL10DualNumberIdNS1_28SemiDynamicSparseNumberArrayIdmNS1_8NWrapperILm53EEEEELb1EEEE11evaluateDotERKNS_15ElemFromFaceArgEj
FN:469,_ZNK5Moose11FunctorBaseIdE11evaluateDotERKNS_7FaceArgEj
FNDA:0,_ZNK5Moose11FunctorBaseIdE11evaluateDotERKNS_7FaceArgEj
FN:469,_ZNK5Moose11FunctorBaseIN11MetaPhysicL10DualNumberIdNS1_28SemiDynamicSparseNumberArrayIdmNS1_8NWrapperILm53EEEEELb1EEEE11evaluateDotERKNS_7FaceArgEj
FNDA:0,_ZNK5Moose11FunctorBaseIN11MetaPhysicL10DualNumberIdNS1_28SemiDynamicSparseNumberArrayIdmNS1_8NWrapperILm53EEEEELb1EEEE11evaluateDotERKNS_7FaceArgEj
FN:480,_ZNK5Moose11FunctorBaseIdE11evaluateDotERKNS_18SingleSidedFaceArgEj
FNDA:0,_ZNK5Moose11FunctorBaseIdE11evaluateDotERKNS_18SingleSidedFaceArgEj
FN:480,_ZNK5Moose11FunctorBaseIN11MetaPhysicL10DualNumberIdNS1_28SemiDynamicSparseNumberArrayIdmNS1_8NWrapperILm53EEEEELb1EEEE11evaluateDotERKNS_18SingleSidedFaceArgEj
FNDA:0,_ZNK5Moose11FunctorBaseIN11MetaPhysicL10DualNumberIdNS1_28SemiDynamicSparseNumberArrayIdmNS1_8NWrapperILm53EEEEELb1EEEE11evaluateDotERKNS_18SingleSidedFaceArgEj
FN:491,_ZNK5Moose11FunctorBaseIdE11evaluateDotERKSt5tupleIJPKN7libMesh4ElemEjPKNS3_5QBaseEEEj
FNDA:0,_ZNK5Moose11FunctorBaseIdE11evaluateDotERKSt5tupleIJPKN7libMesh4ElemEjPKNS3_5QBaseEEEj
FN:491,_ZNK5Moose11FunctorBaseIN11MetaPhysicL10DualNumberIdNS1_28SemiDynamicSparseNumberArrayIdmNS1_8NWrapperILm53EEEEELb1EEEE11evaluateDotERKSt5tupleIJPKN7libMesh4ElemEjPKNSA_5QBaseEEEj
FNDA:0,_ZNK5Moose11FunctorBaseIN11MetaPhysicL10DualNumberIdNS1_28SemiDynamicSparseNumberArrayIdmNS1_8NWrapperILm53EEEEELb1EEEE11evaluateDotERKSt5tupleIJPKN7libMesh4ElemEjPKNSA_5QBaseEEEj
FN:502,_ZNK5Moose11FunctorBaseIN11MetaPhysicL10DualNumberIdNS1_28SemiDynamicSparseNumberArrayIdmNS1_8NWrapperILm53EEEEELb1EEEE11evaluateDotERKSt5tupleIJPKN7libMesh4ElemEjjPKNSA_5QBaseEEEj
FNDA:0,_ZNK5Moose11FunctorBaseIN11MetaPhysicL10DualNumberIdNS1_28SemiDynamicSparseNumberArrayIdmNS1_8NWrapperILm53EEEEELb1EEEE11evaluateDotERKSt5tupleIJPKN7libMesh4ElemEjjPKNSA_5QBaseEEEj
FN:502,_ZNK5Moose11FunctorBaseIdE11evaluateDotERKSt5tupleIJPKN7libMesh4ElemEjjPKNS3_5QBaseEEEj
FNDA:0,_ZNK5Moose11FunctorBaseIdE11evaluateDotERKSt5tupleIJPKN7libMesh4ElemEjjPKNS3_5QBaseEEEj
FN:584,_ZNK5Moose11FunctorBaseIN11MetaPhysicL10DualNumberIdNS1_28SemiDynamicSparseNumberArrayIdmNS1_8NWrapperILm53EEEEELb1EEEE15queryFVArgCacheINS_7ElemArgEEES7_RSt3mapIT_S7_St4lessISC_ESaISt4pairIKSC_S7_EEERSG_
FNDA:0,_ZNK5Moose11FunctorBaseIN11MetaPhysicL10DualNumberIdNS1_28SemiDynamicSparseNumberArrayIdmNS1_8NWrapperILm53EEEEELb1EEEE15queryFVArgCacheINS_7ElemArgEEES7_RSt3mapIT_S7_St4lessISC_ESaISt4pairIKSC_S7_EEERSG_
FN:584,_ZNK5Moose11FunctorBaseIN11MetaPhysicL10DualNumberIdNS1_28SemiDynamicSparseNumberArrayIdmNS1_8NWrapperILm53EEEEELb1EEEE15queryFVArgCacheINS_15ElemFromFaceArgEEES7_RSt3mapIT_S7_St4lessISC_ESaISt4pairIKSC_S7_EEERSG_
FNDA:0,_ZNK5Moose11FunctorBaseIN11MetaPhysicL10DualNumberIdNS1_28SemiDynamicSparseNumberArrayIdmNS1_8NWrapperILm53EEEEELb1EEEE15queryFVArgCacheINS_15ElemFromFaceArgEEES7_RSt3mapIT_S7_St4lessISC_ESaISt4pairIKSC_S7_EEERSG_
FN:584,_ZNK5Moose11FunctorBaseIN11MetaPhysicL10DualNumberIdNS1_28SemiDynamicSparseNumberArrayIdmNS1_8NWrapperILm53EEEEELb1EEEE15queryFVArgCacheINS_7FaceArgEEES7_RSt3mapIT_S7_St4lessISC_ESaISt4pairIKSC_S7_EEERSG_
FNDA:0,_ZNK5Moose11FunctorBaseIN11MetaPhysicL10DualNumberIdNS1_28SemiDynamicSparseNumberArrayIdmNS1_8NWrapperILm53EEEEELb1EEEE15queryFVArgCacheINS_7FaceArgEEES7_RSt3mapIT_S7_St4lessISC_ESaISt4pairIKSC_S7_EEERSG_
FN:584,_ZNK5Moose11FunctorBaseIN11MetaPhysicL10DualNumberIdNS1_28SemiDynamicSparseNumberArrayIdmNS1_8NWrapperILm53EEEEELb1EEEE15queryFVArgCacheINS_18SingleSidedFaceArgEEES7_RSt3mapIT_S7_St4lessISC_ESaISt4pairIKSC_S7_EEERSG_
FNDA:0,_ZNK5Moose11FunctorBaseIN11MetaPhysicL10DualNumberIdNS1_28SemiDynamicSparseNumberArrayIdmNS1_8NWrapperILm53EEEEELb1EEEE15queryFVArgCacheINS_18SingleSidedFaceArgEEES7_RSt3mapIT_S7_St4lessISC_ESaISt4pairIKSC_S7_EEERSG_
FN:584,_ZNK5Moose11FunctorBaseIdE15queryFVArgCacheINS_7ElemArgEEEdRSt3mapIT_dSt4lessIS5_ESaISt4pairIKS5_dEEERS9_
FNDA:0,_ZNK5Moose11FunctorBaseIdE15queryFVArgCacheINS_7ElemArgEEEdRSt3mapIT_dSt4lessIS5_ESaISt4pairIKS5_dEEERS9_
FN:584,_ZNK5Moose11FunctorBaseIdE15queryFVArgCacheINS_15ElemFromFaceArgEEEdRSt3mapIT_dSt4lessIS5_ESaISt4pairIKS5_dEEERS9_
FNDA:0,_ZNK5Moose11FunctorBaseIdE15queryFVArgCacheINS_15ElemFromFaceArgEEEdRSt3mapIT_dSt4lessIS5_ESaISt4pairIKS5_dEEERS9_
FN:584,_ZNK5Moose11FunctorBaseIdE15queryFVArgCacheINS_7FaceArgEEEdRSt3mapIT_dSt4lessIS5_ESaISt4pairIKS5_dEEERS9_
FNDA:0,_ZNK5Moose11FunctorBaseIdE15queryFVArgCacheINS_7FaceArgEEEdRSt3mapIT_dSt4lessIS5_ESaISt4pairIKS5_dEEERS9_
FN:584,_ZNK5Moose11FunctorBaseIdE15queryFVArgCacheINS_18SingleSidedFaceArgEEEdRSt3mapIT_dSt4lessIS5_ESaISt4pairIKS5_dEEERS9_
FNDA:0,_ZNK5Moose11FunctorBaseIdE15queryFVArgCacheINS_18SingleSidedFaceArgEEEdRSt3mapIT_dSt4lessIS5_ESaISt4pairIKS5_dEEERS9_
FN:600,_ZNK5Moose11FunctorBaseIN11MetaPhysicL10DualNumberIdNS1_28SemiDynamicSparseNumberArrayIdmNS1_8NWrapperILm53EEEEELb1EEEEclERKNS_7ElemArgEj
FNDA:0,_ZNK5Moose11FunctorBaseIN11MetaPhysicL10DualNumberIdNS1_28SemiDynamicSparseNumberArrayIdmNS1_8NWrapperILm53EEEEELb1EEEEclERKNS_7ElemArgEj
FN:600,_ZNK5Moose11FunctorBaseIdEclERKNS_7ElemArgEj
FNDA:0,_ZNK5Moose11FunctorBaseIdEclERKNS_7ElemArgEj
FN:613,_ZNK5Moose11FunctorBaseIdEclERKNS_15ElemFromFaceArgEj
FNDA:0,_ZNK5Moose11FunctorBaseIdEclERKNS_15ElemFromFaceArgEj
FN:613,_ZNK5Moose11FunctorBaseIN11MetaPhysicL10DualNumberIdNS1_28SemiDynamicSparseNumberArrayIdmNS1_8NWrapperILm53EEEEELb1EEEEclERKNS_15ElemFromFaceArgEj
FNDA:0,_ZNK5Moose11FunctorBaseIN11MetaPhysicL10DualNumberIdNS1_28SemiDynamicSparseNumberArrayIdmNS1_8NWrapperILm53EEEEELb1EEEEclERKNS_15ElemFromFaceArgEj
FN:626,_ZNK5Moose11FunctorBaseIN11MetaPhysicL10DualNumberIdNS1_28SemiDynamicSparseNumberArrayIdmNS1_8NWrapperILm53EEEEELb1EEEEclERKNS_7FaceArgEj
FNDA:0,_ZNK5Moose11FunctorBaseIN11MetaPhysicL10DualNumberIdNS1_28SemiDynamicSparseNumberArrayIdmNS1_8NWrapperILm53EEEEELb1EEEEclERKNS_7FaceArgEj
FN:626,_ZNK5Moose11FunctorBaseIdEclERKNS_7FaceArgEj
FNDA:0,_ZNK5Moose11FunctorBaseIdEclERKNS_7FaceArgEj
FN:639,_ZNK5Moose11FunctorBaseIN11MetaPhysicL10DualNumberIdNS1_28SemiDynamicSparseNumberArrayIdmNS1_8NWrapperILm53EEEEELb1EEEEclERKNS_18SingleSidedFaceArgEj
FNDA:0,_ZNK5Moose11FunctorBaseIN11MetaPhysicL10DualNumberIdNS1_28SemiDynamicSparseNumberArrayIdmNS1_8NWrapperILm53EEEEELb1EEEEclERKNS_18SingleSidedFaceArgEj
FN:639,_ZNK5Moose11FunctorBaseIdEclERKNS_18SingleSidedFaceArgEj
FNDA:0,_ZNK5Moose11FunctorBaseIdEclERKNS_18SingleSidedFaceArgEj
FN:653,_ZNK5Moose11FunctorBaseIdE12queryQpCacheISt5tupleIJPKN7libMesh4ElemEjPKNS4_5QBaseEEEjEEdjRS9_RSt6vectorISt4pairIbdESaISF_EERKT_RKT0_
FNDA:0,_ZNK5Moose11FunctorBaseIdE12queryQpCacheISt5tupleIJPKN7libMesh4ElemEjPKNS4_5QBaseEEEjEEdjRS9_RSt6vectorISt4pairIbdESaISF_EERKT_RKT0_
FN:653,_ZNK5Moose11FunctorBaseIdE12queryQpCacheISt5tupleIJPKN7libMesh4ElemEjjPKNS4_5QBaseEEEjEEdjRS9_RSt6vectorISt4pairIbdESaISF_EERKT_RKT0_
FNDA:0,_ZNK5Moose11FunctorBaseIdE12queryQpCacheISt5tupleIJPKN7libMesh4ElemEjjPKNS4_5QBaseEEEjEEdjRS9_RSt6vectorISt4pairIbdESaISF_EERKT_RKT0_
FN:653,_ZNK5Moose11FunctorBaseIN11MetaPhysicL10DualNumberIdNS1_28SemiDynamicSparseNumberArrayIdmNS1_8NWrapperILm53EEEEELb1EEEE12queryQpCacheISt5tupleIJPKN7libMesh4ElemEjjPKNSB_5QBaseEEEjEES7_jRSG_RSt6vectorISt4pairIbS7_ESaISM_EERKT_RKT0_
FNDA:0,_ZNK5Moose11FunctorBaseIN11MetaPhysicL10DualNumberIdNS1_28SemiDynamicSparseNumberArrayIdmNS1_8NWrapperILm53EEEEELb1EEEE12queryQpCacheISt5tupleIJPKN7libMesh4ElemEjjPKNSB_5QBaseEEEjEES7_jRSG_RSt6vectorISt4pairIbS7_ESaISM_EERKT_RKT0_
FN:653,_ZNK5Moose11FunctorBaseIN11MetaPhysicL10DualNumberIdNS1_28SemiDynamicSparseNumberArrayIdmNS1_8NWrapperILm53EEEEELb1EEEE12queryQpCacheISt5tupleIJPKN7libMesh4ElemEjPKNSB_5QBaseEEEjEES7_jRSG_RSt6vectorISt4pairIbS7_ESaISM_EERKT_RKT0_
FNDA:0,_ZNK5Moose11FunctorBaseIN11MetaPhysicL10DualNumberIdNS1_28SemiDynamicSparseNumberArrayIdmNS1_8NWrapperILm53EEEEELb1EEEE12queryQpCacheISt5tupleIJPKN7libMesh4ElemEjPKNSB_5QBaseEEEjEES7_jRSG_RSt6vectorISt4pairIbS7_ESaISM_EERKT_RKT0_
FN:683,_ZNK5Moose11FunctorBaseIN11MetaPhysicL10DualNumberIdNS1_28SemiDynamicSparseNumberArrayIdmNS1_8NWrapperILm53EEEEELb1EEEEclERKSt5tupleIJPKN7libMesh4ElemEjPKNSA_5QBaseEEEj
FNDA:0,_ZNK5Moose11FunctorBaseIN11MetaPhysicL10DualNumberIdNS1_28SemiDynamicSparseNumberArrayIdmNS1_8NWrapperILm53EEEEELb1EEEEclERKSt5tupleIJPKN7libMesh4ElemEjPKNSA_5QBaseEEEj
FN:683,_ZNK5Moose11FunctorBaseIdEclERKSt5tupleIJPKN7libMesh4ElemEjPKNS3_5QBaseEEEj
FNDA:0,_ZNK5Moose11FunctorBaseIdEclERKSt5tupleIJPKN7libMesh4ElemEjPKNS3_5QBaseEEEj
FN:704,_ZNK5Moose11FunctorBaseIdEclERKSt5tupleIJPKN7libMesh4ElemEjjPKNS3_5QBaseEEEj
FNDA:0,_ZNK5Moose11FunctorBaseIdEclERKSt5tupleIJPKN7libMesh4ElemEjjPKNS3_5QBaseEEEj
FN:704,_ZNK5Moose11FunctorBaseIN11MetaPhysicL10DualNumberIdNS1_28SemiDynamicSparseNumberArrayIdmNS1_8NWrapperILm53EEEEELb1EEEEclERKSt5tupleIJPKN7libMesh4ElemEjjPKNSA_5QBaseEEEj
FNDA:0,_ZNK5Moose11FunctorBaseIN11MetaPhysicL10DualNumberIdNS1_28SemiDynamicSparseNumberArrayIdmNS1_8NWrapperILm53EEEEELb1EEEEclERKSt5tupleIJPKN7libMesh4ElemEjjPKNSA_5QBaseEEEj
FN:741,_ZN5Moose11FunctorBaseIN11MetaPhysicL10DualNumberIdNS1_28SemiDynamicSparseNumberArrayIdmNS1_8NWrapperILm53EEEEELb1EEEE14clearCacheDataEv
FNDA:0,_ZN5Moose11FunctorBaseIN11MetaPhysicL10DualNumberIdNS1_28SemiDynamicSparseNumberArrayIdmNS1_8NWrapperILm53EEEEELb1EEEE14clearCacheDataEv
FN:741,_ZN5Moose11FunctorBaseIdE14clearCacheDataEv
FNDA:0,_ZN5Moose11FunctorBaseIdE14clearCacheDataEv
FN:768,_ZN5Moose11FunctorBaseIN11MetaPhysicL10DualNumberIdNS1_28SemiDynamicSparseNumberArrayIdmNS1_8NWrapperILm53EEEEELb1EEEE13timestepSetupEv
FNDA:0,_ZN5Moose11FunctorBaseIN11MetaPhysicL10DualNumberIdNS1_28SemiDynamicSparseNumberArrayIdmNS1_8NWrapperILm53EEEEELb1EEEE13timestepSetupEv
FN:768,_ZN5Moose11FunctorBaseIdE13timestepSetupEv
FNDA:0,_ZN5Moose11FunctorBaseIdE13timestepSetupEv
FN:776,_ZN5Moose11FunctorBaseIN11MetaPhysicL10DualNumberIdNS1_28SemiDynamicSparseNumberArrayIdmNS1_8NWrapperILm53EEEEELb1EEEE13residualSetupEv
FNDA:0,_ZN5Moose11FunctorBaseIN11MetaPhysicL10DualNumberIdNS1_28SemiDynamicSparseNumberArrayIdmNS1_8NWrapperILm53EEEEELb1EEEE13residualSetupEv
FN:776,_ZN5Moose11FunctorBaseIdE13residualSetupEv
FNDA:0,_ZN5Moose11FunctorBaseIdE13residualSetupEv
FN:784,_ZN5Moose11FunctorBaseIN11MetaPhysicL10DualNumberIdNS1_28SemiDynamicSparseNumberArrayIdmNS1_8NWrapperILm53EEEEELb1EEEE13jacobianSetupEv
FNDA:0,_ZN5Moose11FunctorBaseIN11MetaPhysicL10DualNumberIdNS1_28SemiDynamicSparseNumberArrayIdmNS1_8NWrapperILm53EEEEELb1EEEE13jacobianSetupEv
FN:784,_ZN5Moose11FunctorBaseIdE13jacobianSetupEv
FNDA:0,_ZN5Moose11FunctorBaseIdE13jacobianSetupEv
FN:961,_ZN5Moose15FunctorEnvelopeIN11MetaPhysicL10DualNumberIdNS1_28SemiDynamicSparseNumberArrayIdmNS1_8NWrapperILm53EEEEELb1EEEED0Ev
FNDA:0,_ZN5Moose15FunctorEnvelopeIN11MetaPhysicL10DualNumberIdNS1_28SemiDynamicSparseNumberArrayIdmNS1_8NWrapperILm53EEEEELb1EEEED0Ev
FN:961,_ZN5Moose15FunctorEnvelopeIN11MetaPhysicL10DualNumberIdNS1_28SemiDynamicSparseNumberArrayIdmNS1_8NWrapperILm53EEEEELb1EEEED2Ev
FNDA:0,_ZN5Moose15FunctorEnvelopeIN11MetaPhysicL10DualNumberIdNS1_28SemiDynamicSparseNumberArrayIdmNS1_8NWrapperILm53EEEEELb1EEEED2Ev
FN:961,_ZN5Moose15FunctorEnvelopeIdED0Ev
FNDA:0,_ZN5Moose15FunctorEnvelopeIdED0Ev
FN:961,_ZN5Moose15FunctorEnvelopeIdED2Ev
FNDA:0,_ZN5Moose15FunctorEnvelopeIdED2Ev
FN:966,_ZNK5Moose15FunctorEnvelopeIN11MetaPhysicL10DualNumberIdNS1_28SemiDynamicSparseNumberArrayIdmNS1_8NWrapperILm53EEEEELb1EEEE9wrapsNullEv
FNDA:0,_ZNK5Moose15FunctorEnvelopeIN11MetaPhysicL10DualNumberIdNS1_28SemiDynamicSparseNumberArrayIdmNS1_8NWrapperILm53EEEEELb1EEEE9wrapsNullEv
FN:966,_ZNK5Moose15FunctorEnvelopeIdE9wrapsNullEv
FNDA:0,_ZNK5Moose15FunctorEnvelopeIdE9wrapsNullEv
FN:971,_ZNK5Moose15FunctorEnvelopeIdE10returnTypeB5cxx11Ev
FNDA:0,_ZNK5Moose15FunctorEnvelopeIdE10returnTypeB5cxx11Ev
FN:971,_ZNK5Moose15FunctorEnvelopeIN11MetaPhysicL10DualNumberIdNS1_28SemiDynamicSparseNumberArrayIdmNS1_8NWrapperILm53EEEEELb1EEEE10returnTypeB5cxx11Ev
FNDA:0,_ZNK5Moose15FunctorEnvelopeIN11MetaPhysicL10DualNumberIdNS1_28SemiDynamicSparseNumberArrayIdmNS1_8NWrapperILm53EEEEELb1EEEE10returnTypeB5cxx11Ev
FN:977,_ZNK5Moose15FunctorEnvelopeIN11MetaPhysicL10DualNumberIdNS1_28SemiDynamicSparseNumberArrayIdmNS1_8NWrapperILm53EEEEELb1EEEE9wrapsTypeINS_11NullFunctorIS7_EEEEbv
FNDA:0,_ZNK5Moose15FunctorEnvelopeIN11MetaPhysicL10DualNumberIdNS1_28SemiDynamicSparseNumberArrayIdmNS1_8NWrapperILm53EEEEELb1EEEE9wrapsTypeINS_11NullFunctorIS7_EEEEbv
FN:977,_ZNK5Moose15FunctorEnvelopeIdE9wrapsTypeINS_11NullFunctorIdEEEEbv
FNDA:0,_ZNK5Moose15FunctorEnvelopeIdE9wrapsTypeINS_11NullFunctorIdEEEEbv
FN:982,_ZN5Moose15FunctorEnvelopeIN11MetaPhysicL10DualNumberIdNS1_28SemiDynamicSparseNumberArrayIdmNS1_8NWrapperILm53EEEEELb1EEEE13timestepSetupEv
FNDA:0,_ZN5Moose15FunctorEnvelopeIN11MetaPhysicL10DualNumberIdNS1_28SemiDynamicSparseNumberArrayIdmNS1_8NWrapperILm53EEEEELb1EEEE13timestepSetupEv
FN:982,_ZN5Moose15FunctorEnvelopeIdE13timestepSetupEv
FNDA:0,_ZN5Moose15FunctorEnvelopeIdE13timestepSetupEv
FN:987,_ZN5Moose15FunctorEnvelopeIdE13residualSetupEv
FNDA:0,_ZN5Moose15FunctorEnvelopeIdE13residualSetupEv
FN:987,_ZN5Moose15FunctorEnvelopeIN11MetaPhysicL10DualNumberIdNS1_28SemiDynamicSparseNumberArrayIdmNS1_8NWrapperILm53EEEEELb1EEEE13residualSetupEv
FNDA:0,_ZN5Moose15FunctorEnvelopeIN11MetaPhysicL10DualNumberIdNS1_28SemiDynamicSparseNumberArrayIdmNS1_8NWrapperILm53EEEEELb1EEEE13residualSetupEv
FN:992,_ZN5Moose15FunctorEnvelopeIdE13jacobianSetupEv
FNDA:0,_ZN5Moose15FunctorEnvelopeIdE13jacobianSetupEv
FN:992,_ZN5Moose15FunctorEnvelopeIN11MetaPhysicL10DualNumberIdNS1_28SemiDynamicSparseNumberArrayIdmNS1_8NWrapperILm53EEEEELb1EEEE13jacobianSetupEv
FNDA:0,_ZN5Moose15FunctorEnvelopeIN11MetaPhysicL10DualNumberIdNS1_28SemiDynamicSparseNumberArrayIdmNS1_8NWrapperILm53EEEEELb1EEEE13jacobianSetupEv
FN:1003,_ZNK5Moose15FunctorEnvelopeIdE8evaluateERKNS_7ElemArgEj
FNDA:0,_ZNK5Moose15FunctorEnvelopeIdE8evaluateERKNS_7ElemArgEj
FN:1003,_ZNK5Moose15FunctorEnvelopeIN11MetaPhysicL10DualNumberIdNS1_28SemiDynamicSparseNumberArrayIdmNS1_8NWrapperILm53EEEEELb1EEEE8evaluateERKNS_7ElemArgEj
FNDA:0,_ZNK5Moose15FunctorEnvelopeIN11MetaPhysicL10DualNumberIdNS1_28SemiDynamicSparseNumberArrayIdmNS1_8NWrapperILm53EEEEELb1EEEE8evaluateERKNS_7ElemArgEj
FN:1007,_ZNK5Moose15FunctorEnvelopeIdE8evaluateERKNS_15ElemFromFaceArgEj
FNDA:0,_ZNK5Moose15FunctorEnvelopeIdE8evaluateERKNS_15ElemFromFaceArgEj
FN:1007,_ZNK5Moose15FunctorEnvelopeIN11MetaPhysicL10DualNumberIdNS1_28SemiDynamicSparseNumberArrayIdmNS1_8NWrapperILm53EEEEELb1EEEE8evaluateERKNS_15ElemFromFaceArgEj
FNDA:0,_ZNK5Moose15FunctorEnvelopeIN11MetaPhysicL10DualNumberIdNS1_28SemiDynamicSparseNumberArrayIdmNS1_8NWrapperILm53EEEEELb1EEEE8evaluateERKNS_15ElemFromFaceArgEj
FN:1011,_ZNK5Moose15FunctorEnvelopeIdE8evaluateERKNS_7FaceArgEj
FNDA:0,_ZNK5Moose15FunctorEnvelopeIdE8evaluateERKNS_7FaceArgEj
FN:1011,_ZNK5Moose15FunctorEnvelopeIN11MetaPhysicL10DualNumberIdNS1_28SemiDynamicSparseNumberArrayIdmNS1_8NWrapperILm53EEEEELb1EEEE8evaluateERKNS_7FaceArgEj
FNDA:0,_ZNK5Moose15FunctorEnvelopeIN11MetaPhysicL10DualNumberIdNS1_28SemiDynamicSparseNumberArrayIdmNS1_8NWrapperILm53EEEEELb1EEEE8evaluateERKNS_7FaceArgEj
FN:1015,_ZNK5Moose15FunctorEnvelopeIdE8evaluateERKNS_18SingleSidedFaceArgEj
FNDA:0,_ZNK5Moose15FunctorEnvelopeIdE8evaluateERKNS_18SingleSidedFaceArgEj
FN:1015,_ZNK5Moose15FunctorEnvelopeIN11MetaPhysicL10DualNumberIdNS1_28SemiDynamicSparseNumberArrayIdmNS1_8NWrapperILm53EEEEELb1EEEE8evaluateERKNS_18SingleSidedFaceArgEj
FNDA:0,_ZNK5Moose15FunctorEnvelopeIN11MetaPhysicL10DualNumberIdNS1_28SemiDynamicSparseNumberArrayIdmNS1_8NWrapperILm53EEEEELb1EEEE8evaluateERKNS_18SingleSidedFaceArgEj
FN:1019,_ZNK5Moose15FunctorEnvelopeIdE8evaluateERKSt5tupleIJPKN7libMesh4ElemEjPKNS3_5QBaseEEEj
FNDA:0,_ZNK5Moose15FunctorEnvelopeIdE8evaluateERKSt5tupleIJPKN7libMesh4ElemEjPKNS3_5QBaseEEEj
FN:1019,_ZNK5Moose15FunctorEnvelopeIN11MetaPhysicL10DualNumberIdNS1_28SemiDynamicSparseNumberArrayIdmNS1_8NWrapperILm53EEEEELb1EEEE8evaluateERKSt5tupleIJPKN7libMesh4ElemEjPKNSA_5QBaseEEEj
FNDA:0,_ZNK5Moose15FunctorEnvelopeIN11MetaPhysicL10DualNumberIdNS1_28SemiDynamicSparseNumberArrayIdmNS1_8NWrapperILm53EEEEELb1EEEE8evaluateERKSt5tupleIJPKN7libMesh4ElemEjPKNSA_5QBaseEEEj
FN:1023,_ZNK5Moose15FunctorEnvelopeIdE8evaluateERKSt5tupleIJPKN7libMesh4ElemEjjPKNS3_5QBaseEEEj
FNDA:0,_ZNK5Moose15FunctorEnvelopeIdE8evaluateERKSt5tupleIJPKN7libMesh4ElemEjjPKNS3_5QBaseEEEj
FN:1023,_ZNK5Moose15FunctorEnvelopeIN11MetaPhysicL10DualNumberIdNS1_28SemiDynamicSparseNumberArrayIdmNS1_8NWrapperILm53EEEEELb1EEEE8evaluateERKSt5tupleIJPKN7libMesh4ElemEjjPKNSA_5QBaseEEEj
FNDA:0,_ZNK5Moose15FunctorEnvelopeIN11MetaPhysicL10DualNumberIdNS1_28SemiDynamicSparseNumberArrayIdmNS1_8NWrapperILm53EEEEELb1EEEE8evaluateERKSt5tupleIJPKN7libMesh4ElemEjjPKNSA_5QBaseEEEj
FN:1028,_ZNK5Moose15FunctorEnvelopeIdE16evaluateGradientERKNS_7ElemArgEj
FNDA:0,_ZNK5Moose15FunctorEnvelopeIdE16evaluateGradientERKNS_7ElemArgEj
FN:1028,_ZNK5Moose15FunctorEnvelopeIN11MetaPhysicL10DualNumberIdNS1_28SemiDynamicSparseNumberArrayIdmNS1_8NWrapperILm53EEEEELb1EEEE16evaluateGradientERKNS_7ElemArgEj
FNDA:0,_ZNK5Moose15FunctorEnvelopeIN11MetaPhysicL10DualNumberIdNS1_28SemiDynamicSparseNumberArrayIdmNS1_8NWrapperILm53EEEEELb1EEEE16evaluateGradientERKNS_7ElemArgEj
FN:1032,_ZNK5Moose15FunctorEnvelopeIdE16evaluateGradientERKNS_15ElemFromFaceArgEj
FNDA:0,_ZNK5Moose15FunctorEnvelopeIdE16evaluateGradientERKNS_15ElemFromFaceArgEj
FN:1032,_ZNK5Moose15FunctorEnvelopeIN11MetaPhysicL10DualNumberIdNS1_28SemiDynamicSparseNumberArrayIdmNS1_8NWrapperILm53EEEEELb1EEEE16evaluateGradientERKNS_15ElemFromFaceArgEj
FNDA:0,_ZNK5Moose15FunctorEnvelopeIN11MetaPhysicL10DualNumberIdNS1_28SemiDynamicSparseNumberArrayIdmNS1_8NWrapperILm53EEEEELb1EEEE16evaluateGradientERKNS_15ElemFromFaceArgEj
FN:1037,_ZNK5Moose15FunctorEnvelopeIN11MetaPhysicL10DualNumberIdNS1_28SemiDynamicSparseNumberArrayIdmNS1_8NWrapperILm53EEEEELb1EEEE16evaluateGradientERKNS_7FaceArgEj
FNDA:0,_ZNK5Moose15FunctorEnvelopeIN11MetaPhysicL10DualNumberIdNS1_28SemiDynamicSparseNumberArrayIdmNS1_8NWrapperILm53EEEEELb1EEEE16evaluateGradientERKNS_7FaceArgEj
FN:1037,_ZNK5Moose15FunctorEnvelopeIdE16evaluateGradientERKNS_7FaceArgEj
FNDA:0,_ZNK5Moose15FunctorEnvelopeIdE16evaluateGradientERKNS_7FaceArgEj
FN:1041,_ZNK5Moose15FunctorEnvelopeIN11MetaPhysicL10DualNumberIdNS1_28SemiDynamicSparseNumberArrayIdmNS1_8NWrapperILm53EEEEELb1EEEE16evaluateGradientERKNS_18SingleSidedFaceArgEj
FNDA:0,_ZNK5Moose15FunctorEnvelopeIN11MetaPhysicL10DualNumberIdNS1_28SemiDynamicSparseNumberArrayIdmNS1_8NWrapperILm53EEEEELb1EEEE16evaluateGradientERKNS_18SingleSidedFaceArgEj
FN:1041,_ZNK5Moose15FunctorEnvelopeIdE16evaluateGradientERKNS_18SingleSidedFaceArgEj
FNDA:0,_ZNK5Moose15FunctorEnvelopeIdE16evaluateGradientERKNS_18SingleSidedFaceArgEj
FN:1046,_ZNK5Moose15FunctorEnvelopeIN11MetaPhysicL10DualNumberIdNS1_28SemiDynamicSparseNumberArrayIdmNS1_8NWrapperILm53EEEEELb1EEEE16evaluateGradientERKSt5tupleIJPKN7libMesh4ElemEjPKNSA_5QBaseEEEj
FNDA:0,_ZNK5Moose15FunctorEnvelopeIN11MetaPhysicL10DualNumberIdNS1_28SemiDynamicSparseNumberArrayIdmNS1_8NWrapperILm53EEEEELb1EEEE16evaluateGradientERKSt5tupleIJPKN7libMesh4ElemEjPKNSA_5QBaseEEEj
FN:1046,_ZNK5Moose15FunctorEnvelopeIdE16evaluateGradientERKSt5tupleIJPKN7libMesh4ElemEjPKNS3_5QBaseEEEj
FNDA:0,_ZNK5Moose15FunctorEnvelopeIdE16evaluateGradientERKSt5tupleIJPKN7libMesh4ElemEjPKNS3_5QBaseEEEj
FN:1050,_ZNK5Moose15FunctorEnvelopeIN11MetaPhysicL10DualNumberIdNS1_28SemiDynamicSparseNumberArrayIdmNS1_8NWrapperILm53EEEEELb1EEEE16evaluateGradientERKSt5tupleIJPKN7libMesh4ElemEjjPKNSA_5QBaseEEEj
FNDA:0,_ZNK5Moose15FunctorEnvelopeIN11MetaPhysicL10DualNumberIdNS1_28SemiDynamicSparseNumberArrayIdmNS1_8NWrapperILm53EEEEELb1EEEE16evaluateGradientERKSt5tupleIJPKN7libMesh4ElemEjjPKNSA_5QBaseEEEj
FN:1050,_ZNK5Moose15FunctorEnvelopeIdE16evaluateGradientERKSt5tupleIJPKN7libMesh4ElemEjjPKNS3_5QBaseEEEj
FNDA:0,_ZNK5Moose15FunctorEnvelopeIdE16evaluateGradientERKSt5tupleIJPKN7libMesh4ElemEjjPKNS3_5QBaseEEEj
FN:1055,_ZNK5Moose15FunctorEnvelopeIdE11evaluateDotERKNS_7ElemArgEj
FNDA:0,_ZNK5Moose15FunctorEnvelopeIdE11evaluateDotERKNS_7ElemArgEj
FN:1055,_ZNK5Moose15FunctorEnvelopeIN11MetaPhysicL10DualNumberIdNS1_28SemiDynamicSparseNumberArrayIdmNS1_8NWrapperILm53EEEEELb1EEEE11evaluateDotERKNS_7ElemArgEj
FNDA:0,_ZNK5Moose15FunctorEnvelopeIN11MetaPhysicL10DualNumberIdNS1_28SemiDynamicSparseNumberArrayIdmNS1_8NWrapperILm53EEEEELb1EEEE11evaluateDotERKNS_7ElemArgEj
FN:1059,_ZNK5Moose15FunctorEnvelopeIN11MetaPhysicL10DualNumberIdNS1_28SemiDynamicSparseNumberArrayIdmNS1_8NWrapperILm53EEEEELb1EEEE11evaluateDotERKNS_15ElemFromFaceArgEj
FNDA:0,_ZNK5Moose15FunctorEnvelopeIN11MetaPhysicL10DualNumberIdNS1_28SemiDynamicSparseNumberArrayIdmNS1_8NWrapperILm53EEEEELb1EEEE11evaluateDotERKNS_15ElemFromFaceArgEj
FN:1059,_ZNK5Moose15FunctorEnvelopeIdE11evaluateDotERKNS_15ElemFromFaceArgEj
FNDA:0,_ZNK5Moose15FunctorEnvelopeIdE11evaluateDotERKNS_15ElemFromFaceArgEj
FN:1063,_ZNK5Moose15FunctorEnvelopeIN11MetaPhysicL10DualNumberIdNS1_28SemiDynamicSparseNumberArrayIdmNS1_8NWrapperILm53EEEEELb1EEEE11evaluateDotERKNS_7FaceArgEj
FNDA:0,_ZNK5Moose15FunctorEnvelopeIN11MetaPhysicL10DualNumberIdNS1_28SemiDynamicSparseNumberArrayIdmNS1_8NWrapperILm53EEEEELb1EEEE11evaluateDotERKNS_7FaceArgEj
FN:1063,_ZNK5Moose15FunctorEnvelopeIdE11evaluateDotERKNS_7FaceArgEj
FNDA:0,_ZNK5Moose15FunctorEnvelopeIdE11evaluateDotERKNS_7FaceArgEj
FN:1067,_ZNK5Moose15FunctorEnvelopeIdE11evaluateDotERKNS_18SingleSidedFaceArgEj
FNDA:0,_ZNK5Moose15FunctorEnvelopeIdE11evaluateDotERKNS_18SingleSidedFaceArgEj
FN:1067,_ZNK5Moose15FunctorEnvelopeIN11MetaPhysicL10DualNumberIdNS1_28SemiDynamicSparseNumberArrayIdmNS1_8NWrapperILm53EEEEELb1EEEE11evaluateDotERKNS_18SingleSidedFaceArgEj
FNDA:0,_ZNK5Moose15FunctorEnvelopeIN11MetaPhysicL10DualNumberIdNS1_28SemiDynamicSparseNumberArrayIdmNS1_8NWrapperILm53EEEEELb1EEEE11evaluateDotERKNS_18SingleSidedFaceArgEj
FN:1071,_ZNK5Moose15FunctorEnvelopeIN11MetaPhysicL10DualNumberIdNS1_28SemiDynamicSparseNumberArrayIdmNS1_8NWrapperILm53EEEEELb1EEEE11evaluateDotERKSt5tupleIJPKN7libMesh4ElemEjPKNSA_5QBaseEEEj
FNDA:0,_ZNK5Moose15FunctorEnvelopeIN11MetaPhysicL10DualNumberIdNS1_28SemiDynamicSparseNumberArrayIdmNS1_8NWrapperILm53EEEEELb1EEEE11evaluateDotERKSt5tupleIJPKN7libMesh4ElemEjPKNSA_5QBaseEEEj
FN:1071,_ZNK5Moose15FunctorEnvelopeIdE11evaluateDotERKSt5tupleIJPKN7libMesh4ElemEjPKNS3_5QBaseEEEj
FNDA:0,_ZNK5Moose15FunctorEnvelopeIdE11evaluateDotERKSt5tupleIJPKN7libMesh4ElemEjPKNS3_5QBaseEEEj
FN:1075,_ZNK5Moose15FunctorEnvelopeIN11MetaPhysicL10DualNumberIdNS1_28SemiDynamicSparseNumberArrayIdmNS1_8NWrapperILm53EEEEELb1EEEE11evaluateDotERKSt5tupleIJPKN7libMesh4ElemEjjPKNSA_5QBaseEEEj
FNDA:0,_ZNK5Moose15FunctorEnvelopeIN11MetaPhysicL10DualNumberIdNS1_28SemiDynamicSparseNumberArrayIdmNS1_8NWrapperILm53EEEEELb1EEEE11evaluateDotERKSt5tupleIJPKN7libMesh4ElemEjjPKNSA_5QBaseEEEj
FN:1075,_ZNK5Moose15FunctorEnvelopeIdE11evaluateDotERKSt5tupleIJPKN7libMesh4ElemEjjPKNS3_5QBaseEEEj
FNDA:0,_ZNK5Moose15FunctorEnvelopeIdE11evaluateDotERKSt5tupleIJPKN7libMesh4ElemEjjPKNS3_5QBaseEEEj
FNF:118
FNH:0
DA:41,0
DA:43,0
DA:44,0
DA:84,0
DA:86,0
DA:88,0
DA:89,0
DA:157,0
DA:159,0
DA:165,0
DA:171,0
DA:219,0
DA:221,0
DA:226,0
DA:231,0
DA:272,0
DA:272,0
DA:272,0
DA:272,0
DA:330,0
DA:330,0
DA:383,0
DA:385,0
DA:383,0
DA:385,0
DA:394,0
DA:396,0
DA:394,0
DA:396,0
DA:405,0
DA:407,0
DA:405,0
DA:407,0
DA:416,0
DA:418,0
DA:416,0
DA:418,0
DA:427,0
DA:429,0
DA:427,0
DA:429,0
DA:438,0
DA:440,0
DA:438,0
DA:440,0
DA:447,0
DA:449,0
DA:447,0
DA:449,0
DA:458,0
DA:460,0
DA:458,0
DA:460,0
DA:469,0
DA:471,0
DA:469,0
DA:471,0
DA:480,0
DA:482,0
DA:480,0
DA:482,0
DA:491,0
DA:493,0
DA:491,0
DA:493,0
DA:502,0
DA:504,0
DA:502,0
DA:504,0
DA:584,0
DA:588,0
DA:591,0
DA:593,0
DA:595,0
DA:584,0
DA:588,0
DA:591,0
DA:593,0
DA:595,0
DA:584,0
DA:588,0
DA:591,0
DA:593,0
DA:595,0
DA:584,0
DA:588,0
DA:591,0
DA:593,0
DA:595,0
DA:584,0
DA:588,0
DA:589,0
DA:591,0
DA:593,0
DA:595,0
DA:584,0
DA:588,0
DA:589,0
DA:591,0
DA:593,0
DA:595,0
DA:584,0
DA:588,0
DA:589,0
DA:591,0
DA:593,0
DA:595,0
DA:584,0
DA:588,0
DA:589,0
DA:591,0
DA:593,0
DA:595,0
DA:600,0
DA:603,0
DA:608,0
DA:600,0
DA:603,0
DA:608,0
DA:613,0
DA:616,0
DA:621,0
DA:613,0
DA:616,0
DA:621,0
DA:626,0
DA:629,0
DA:634,0
DA:626,0
DA:629,0
DA:634,0
DA:639,0
DA:642,0
DA:647,0
DA:639,0
DA:642,0
DA:647,0
DA:653,0
DA:661,0
DA:663,0
DA:665,0
DA:666,0
DA:667,0
DA:672,0
DA:673,0
DA:676,0
DA:677,0
DA:678,0
DA:653,0
DA:661,0
DA:663,0
DA:665,0
DA:666,0
DA:667,0
DA:672,0
DA:673,0
DA:676,0
DA:677,0
DA:678,0
DA:653,0
DA:661,0
DA:663,0
DA:665,0
DA:666,0
DA:667,0
DA:672,0
DA:673,0
DA:676,0
DA:677,0
DA:678,0
DA:653,0
DA:661,0
DA:663,0
DA:665,0
DA:666,0
DA:667,0
DA:672,0
DA:673,0
DA:676,0
DA:677,0
DA:678,0
DA:683,0
DA:686,0
DA:688,0
DA:689,0
DA:691,0
DA:692,0
DA:694,0
DA:695,0
DA:696,0
DA:699,0
DA:683,0
DA:686,0
DA:688,0
DA:689,0
DA:691,0
DA:692,0
DA:694,0
DA:695,0
DA:696,0
DA:699,0
DA:704,0
DA:707,0
DA:709,0
DA:711,0
DA:712,0
DA:714,0
DA:715,0
DA:717,0
DA:718,0
DA:719,0
DA:720,0
DA:724,0
DA:725,0
DA:729,0
DA:704,0
DA:707,0
DA:709,0
DA:711,0
DA:712,0
DA:714,0
DA:715,0
DA:717,0
DA:718,0
DA:719,0
DA:720,0
DA:724,0
DA:725,0
DA:729,0
DA:741,0
DA:743,0
DA:744,0
DA:745,0
DA:747,0
DA:750,0
DA:751,0
DA:752,0
DA:755,0
DA:756,0
DA:757,0
DA:758,0
DA:764,0
DA:741,0
DA:743,0
DA:744,0
DA:745,0
DA:747,0
DA:750,0
DA:751,0
DA:752,0
DA:755,0
DA:756,0
DA:757,0
DA:758,0
DA:764,0
DA:768,0
DA:771,0
DA:772,0
DA:768,0
DA:771,0
DA:772,0
DA:776,0
DA:779,0
DA:780,0
DA:776,0
DA:779,0
DA:780,0
DA:784,0
DA:787,0
DA:788,0
DA:784,0
DA:787,0
DA:788,0
DA:794,0
DA:801,0
DA:808,0
DA:815,0
DA:822,0
DA:829,0
DA:836,0
DA:843,0
DA:850,0
DA:857,0
DA:864,0
DA:871,0
DA:882,0
DA:961,0
DA:961,0
DA:961,0
DA:961,0
DA:966,0
DA:966,0
DA:971,0
DA:971,0
DA:977,0
DA:979,0
DA:977,0
DA:979,0
DA:982,0
DA:984,0
DA:985,0
DA:986,0
DA:982,0
DA:984,0
DA:985,0
DA:986,0
DA:987,0
DA:989,0
DA:990,0
DA:991,0
DA:987,0
DA:989,0
DA:990,0
DA:991,0
DA:992,0
DA:994,0
DA:995,0
DA:996,0
DA:992,0
DA:994,0
DA:995,0
DA:996,0
DA:1003,0
DA:1005,0
DA:1003,0
DA:1005,0
DA:1007,0
DA:1009,0
DA:1007,0
DA:1009,0
DA:1011,0
DA:1013,0
DA:1011,0
DA:1013,0
DA:1015,0
DA:1017,0
DA:1015,0
DA:1017,0
DA:1019,0
DA:1021,0
DA:1019,0
DA:1021,0
DA:1023,0
DA:1025,0
DA:1023,0
DA:1025,0
DA:1028,0
DA:1030,0
DA:1028,0
DA:1030,0
DA:1032,0
DA:1035,0
DA:1032,0
DA:1035,0
DA:1037,0
DA:1039,0
DA:1037,0
DA:1039,0
DA:1041,0
DA:1044,0
DA:1041,0
DA:1044,0
DA:1046,0
DA:1048,0
DA:1046,0
DA:1048,0
DA:1050,0
DA:1052,0
DA:1050,0
DA:1052,0
DA:1055,0
DA:1057,0
DA:1055,0
DA:1057,0
DA:1059,0
DA:1061,0
DA:1059,0
DA:1061,0
DA:1063,0
DA:1065,0
DA:1063,0
DA:1065,0
DA:1067,0
DA:1069,0
DA:1067,0
DA:1069,0
DA:1071,0
DA:1073,0
DA:1071,0
DA:1073,0
DA:1075,0
DA:1077,0
DA:1075,0
DA:1077,0
LF:394
LH:0
end_of_record
SF:/home/runner/work/raccoon/raccoon/moose/framework/build/header_symlinks/MaterialPropertyInterface.h
FN:563,_ZN25MaterialPropertyInterface27getADMaterialPropertyByNameI18RankTwoTensorTemplIdEEERK18ADMaterialPropertyIT_ERK20MaterialPropertyName
FNDA:0,_ZN25MaterialPropertyInterface27getADMaterialPropertyByNameI18RankTwoTensorTemplIdEEERK18ADMaterialPropertyIT_ERK20MaterialPropertyName
FN:563,_ZN25MaterialPropertyInterface27getADMaterialPropertyByNameIdEERK18ADMaterialPropertyIT_ERK20MaterialPropertyName
FNDA:0,_ZN25MaterialPropertyInterface27getADMaterialPropertyByNameIdEERK18ADMaterialPropertyIT_ERK20MaterialPropertyName
FN:587,_ZN25MaterialPropertyInterface28getMaterialPropertyOldByNameIdEERK16MaterialPropertyIT_ERK20MaterialPropertyName
FNDA:0,_ZN25MaterialPropertyInterface28getMaterialPropertyOldByNameIdEERK16MaterialPropertyIT_ERK20MaterialPropertyName
FN:587,_ZN25MaterialPropertyInterface28getMaterialPropertyOldByNameI18RankTwoTensorTemplIdEEERK16MaterialPropertyIT_ERK20MaterialPropertyName
FNDA:0,_ZN25MaterialPropertyInterface28getMaterialPropertyOldByNameI18RankTwoTensorTemplIdEEERK16MaterialPropertyIT_ERK20MaterialPropertyName
FNF:4
FNH:0
DA:280,0
DA:563,0
DA:565,0
DA:567,0
DA:568,0
DA:569,0
DA:572,0
DA:575,0
DA:577,0
DA:580,0
DA:582,0
DA:563,0
DA:565,0
DA:567,0
DA:568,0
DA:569,0
DA:572,0
DA:575,0
DA:577,0
DA:580,0
DA:582,0
DA:587,0
DA:589,0
DA:591,0
DA:593,0
DA:594,0
DA:600,0
DA:602,0
DA:604,0
DA:587,0
DA:589,0
DA:591,0
DA:593,0
DA:594,0
DA:600,0
DA:602,0
DA:604,0
LF:37
LH:0
end_of_record
SF:/home/runner/work/raccoon/raccoon/build/header_symlinks/SmallDeformationElasticityModel.h
FN:42,_ZN31SmallDeformationElasticityModel17resetQpPropertiesEv
FNDA:0,_ZN31SmallDeformationElasticityModel17resetQpPropertiesEv
FN:43,_ZN31SmallDeformationElasticityModel15resetPropertiesEv
FNDA:823165,_ZN31SmallDeformationElasticityModel15resetPropertiesEv
FNF:2
FNH:1
DA:42,0
DA:43,823165
LF:2
LH:1
end_of_record
SF:/usr/share/miniconda/envs/moose/x86_64-conda-linux-gnu/include/c++/10.3.0/tuple
FN:1377,_ZNSt15__tuple_compareISt5tupleIJPK8FaceInfoN5Moose2FV11LimiterTypeEbbbtEES7_Lm0ELm6EE6__lessERKS7_SA_
FNDA:0,_ZNSt15__tuple_compareISt5tupleIJPK8FaceInfoN5Moose2FV11LimiterTypeEbbbtEES7_Lm0ELm6EE6__lessERKS7_SA_
FN:1377,_ZNSt15__tuple_compareISt5tupleIJPK8FaceInfoN5Moose2FV11LimiterTypeEbbbtEES7_Lm1ELm6EE6__lessERKS7_SA_
FNDA:0,_ZNSt15__tuple_compareISt5tupleIJPK8FaceInfoN5Moose2FV11LimiterTypeEbbbtEES7_Lm1ELm6EE6__lessERKS7_SA_
FN:1377,_ZNSt15__tuple_compareISt5tupleIJPK8FaceInfoN5Moose2FV11LimiterTypeEbbbtEES7_Lm2ELm6EE6__lessERKS7_SA_
FNDA:0,_ZNSt15__tuple_compareISt5tupleIJPK8FaceInfoN5Moose2FV11LimiterTypeEbbbtEES7_Lm2ELm6EE6__lessERKS7_SA_
FN:1377,_ZNSt15__tuple_compareISt5tupleIJPK8FaceInfoN5Moose2FV11LimiterTypeEbbbtEES7_Lm3ELm6EE6__lessERKS7_SA_
FNDA:0,_ZNSt15__tuple_compareISt5tupleIJPK8FaceInfoN5Moose2FV11LimiterTypeEbbbtEES7_Lm3ELm6EE6__lessERKS7_SA_
FN:1377,_ZNSt15__tuple_compareISt5tupleIJPK8FaceInfoN5Moose2FV11LimiterTypeEbbbttEES7_Lm0ELm7EE6__lessERKS7_SA_
FNDA:0,_ZNSt15__tuple_compareISt5tupleIJPK8FaceInfoN5Moose2FV11LimiterTypeEbbbttEES7_Lm0ELm7EE6__lessERKS7_SA_
FN:1377,_ZNSt15__tuple_compareISt5tupleIJPK8FaceInfoN5Moose2FV11LimiterTypeEbbbttEES7_Lm1ELm7EE6__lessERKS7_SA_
FNDA:0,_ZNSt15__tuple_compareISt5tupleIJPK8FaceInfoN5Moose2FV11LimiterTypeEbbbttEES7_Lm1ELm7EE6__lessERKS7_SA_
FN:1377,_ZNSt15__tuple_compareISt5tupleIJPK8FaceInfoN5Moose2FV11LimiterTypeEbbbttEES7_Lm2ELm7EE6__lessERKS7_SA_
FNDA:0,_ZNSt15__tuple_compareISt5tupleIJPK8FaceInfoN5Moose2FV11LimiterTypeEbbbttEES7_Lm2ELm7EE6__lessERKS7_SA_
FN:1377,_ZNSt15__tuple_compareISt5tupleIJPK8FaceInfoN5Moose2FV11LimiterTypeEbbbttEES7_Lm3ELm7EE6__lessERKS7_SA_
FNDA:0,_ZNSt15__tuple_compareISt5tupleIJPK8FaceInfoN5Moose2FV11LimiterTypeEbbbttEES7_Lm3ELm7EE6__lessERKS7_SA_
FN:1377,_ZNSt15__tuple_compareISt5tupleIJPK8FaceInfoN5Moose2FV11LimiterTypeEbbbttEES7_Lm4ELm7EE6__lessERKS7_SA_
FNDA:0,_ZNSt15__tuple_compareISt5tupleIJPK8FaceInfoN5Moose2FV11LimiterTypeEbbbttEES7_Lm4ELm7EE6__lessERKS7_SA_
FN:1377,_ZNSt15__tuple_compareISt5tupleIJPKN7libMesh4ElemEPK8FaceInfobbtEES8_Lm0ELm5EE6__lessERKS8_SB_
FNDA:0,_ZNSt15__tuple_compareISt5tupleIJPKN7libMesh4ElemEPK8FaceInfobbtEES8_Lm0ELm5EE6__lessERKS8_SB_
FN:1377,_ZNSt15__tuple_compareISt5tupleIJPKN7libMesh4ElemEPK8FaceInfobbtEES8_Lm1ELm5EE6__lessERKS8_SB_
FNDA:0,_ZNSt15__tuple_compareISt5tupleIJPKN7libMesh4ElemEPK8FaceInfobbtEES8_Lm1ELm5EE6__lessERKS8_SB_
FN:1377,_ZNSt15__tuple_compareISt5tupleIJPKN7libMesh4ElemEPK8FaceInfobbtEES8_Lm2ELm5EE6__lessERKS8_SB_
FNDA:0,_ZNSt15__tuple_compareISt5tupleIJPKN7libMesh4ElemEPK8FaceInfobbtEES8_Lm2ELm5EE6__lessERKS8_SB_
FN:1377,_ZNSt15__tuple_compareISt5tupleIJPKN7libMesh4ElemEbbEES5_Lm0ELm3EE6__lessERKS5_S8_
FNDA:0,_ZNSt15__tuple_compareISt5tupleIJPKN7libMesh4ElemEbbEES5_Lm0ELm3EE6__lessERKS5_S8_
FN:1689,_ZNSt4pairIKNSt7__cxx1112basic_stringIcSt11char_traitsIcESaIcEEEN15InputParameters8MetadataEEC2IJRS6_EJLm0EEJEJEEERSt5tupleIJDpT_EERSC_IJDpT1_EESt12_Index_tupleIJXspT0_EEESL_IJXspT2_EEE
FNDA:0,_ZNSt4pairIKNSt7__cxx1112basic_stringIcSt11char_traitsIcESaIcEEEN15InputParameters8MetadataEEC2IJRS6_EJLm0EEJEJEEERSt5tupleIJDpT_EERSC_IJDpT1_EESt12_Index_tupleIJXspT0_EEESL_IJXspT2_EEE
FNF:14
FNH:0
DA:124,0
DA:126,0
DA:127,0
DA:129,0
DA:130,0
DA:137,0
DA:166,0
DA:520,0
DA:1377,0
DA:1379,0
DA:1380,0
DA:1381,0
DA:1377,0
DA:1379,0
DA:1380,0
DA:1381,0
DA:1377,0
DA:1379,0
DA:1380,0
DA:1381,0
DA:1377,0
DA:1379,0
DA:1380,0
DA:1381,0
DA:1377,0
DA:1379,0
DA:1380,0
DA:1381,0
DA:1377,0
DA:1379,0
DA:1380,0
DA:1381,0
DA:1377,0
DA:1379,0
DA:1380,0
DA:1381,0
DA:1377,0
DA:1379,0
DA:1380,0
DA:1381,0
DA:1377,0
DA:1379,0
DA:1380,0
DA:1381,0
DA:1377,0
DA:1379,0
DA:1380,0
DA:1381,0
DA:1377,0
DA:1379,0
DA:1380,0
DA:1381,0
DA:1377,0
DA:1379,0
DA:1380,0
DA:1381,0
DA:1377,0
DA:1379,0
DA:1380,0
DA:1381,0
DA:1447,0
DA:1677,0
DA:1682,0
DA:1689,0
DA:1693,0
DA:1694,0
LF:66
LH:0
end_of_record
SF:/usr/share/miniconda/envs/moose/x86_64-conda-linux-gnu/include/c++/10.3.0/iostream
LF:0
LH:0
end_of_record
TN:
SF:/usr/share/miniconda/envs/moose/x86_64-conda-linux-gnu/include/c++/10.3.0/bits/stl_vector.h
FN:333,_ZNSt12_Vector_baseIN11MetaPhysicL10DualNumberIdNS0_28SemiDynamicSparseNumberArrayIdmNS0_8NWrapperILm53EEEEELb1EEESaIS6_EED2Ev
FNDA:4424560,_ZNSt12_Vector_baseIN11MetaPhysicL10DualNumberIdNS0_28SemiDynamicSparseNumberArrayIdmNS0_8NWrapperILm53EEEEELb1EEESaIS6_EED2Ev
FN:333,_ZNSt12_Vector_baseIdSaIdEED2Ev
FNDA:0,_ZNSt12_Vector_baseIdSaIdEED2Ev
FN:359,_ZNSt12_Vector_baseIN11MetaPhysicL10DualNumberIdNS0_28SemiDynamicSparseNumberArrayIdmNS0_8NWrapperILm53EEEEELb1EEESaIS6_EE17_M_create_storageEm
FNDA:3657320,_ZNSt12_Vector_baseIN11MetaPhysicL10DualNumberIdNS0_28SemiDynamicSparseNumberArrayIdmNS0_8NWrapperILm53EEEEELb1EEESaIS6_EE17_M_create_storageEm
FN:359,_ZNSt12_Vector_baseIdSaIdEE17_M_create_storageEm
FNDA:0,_ZNSt12_Vector_baseIdSaIdEE17_M_create_storageEm
FN:510,_ZNSt6vectorIN11MetaPhysicL10DualNumberIdNS0_28SemiDynamicSparseNumberArrayIdmNS0_8NWrapperILm53EEEEELb1EEESaIS6_EEC2EmRKS7_
FNDA:1828660,_ZNSt6vectorIN11MetaPhysicL10DualNumberIdNS0_28SemiDynamicSparseNumberArrayIdmNS0_8NWrapperILm53EEEEELb1EEESaIS6_EEC2EmRKS7_
FN:510,_ZNSt6vectorIdSaIdEEC2EmRKS0_
FNDA:0,_ZNSt6vectorIdSaIdEEC2EmRKS0_
FN:553,_ZNSt6vectorIN11MetaPhysicL10DualNumberIdNS0_28SemiDynamicSparseNumberArrayIdmNS0_8NWrapperILm53EEEEELb1EEESaIS6_EEC2ERKS8_
FNDA:1828660,_ZNSt6vectorIN11MetaPhysicL10DualNumberIdNS0_28SemiDynamicSparseNumberArrayIdmNS0_8NWrapperILm53EEEEELb1EEESaIS6_EEC2ERKS8_
FN:937,_ZNSt6vectorIN11MetaPhysicL10DualNumberIdNS0_28SemiDynamicSparseNumberArrayIdmNS0_8NWrapperILm53EEEEELb1EEESaIS6_EE6resizeEm
FNDA:2595900,_ZNSt6vectorIN11MetaPhysicL10DualNumberIdNS0_28SemiDynamicSparseNumberArrayIdmNS0_8NWrapperILm53EEEEELb1EEESaIS6_EE6resizeEm
FN:937,_ZNSt6vectorIdSaIdEE6resizeEm
FNDA:0,_ZNSt6vectorIdSaIdEE6resizeEm
FN:1603,_ZNSt6vectorIN11MetaPhysicL10DualNumberIdNS0_28SemiDynamicSparseNumberArrayIdmNS0_8NWrapperILm53EEEEELb1EEESaIS6_EE21_M_default_initializeEm
FNDA:1828660,_ZNSt6vectorIN11MetaPhysicL10DualNumberIdNS0_28SemiDynamicSparseNumberArrayIdmNS0_8NWrapperILm53EEEEELb1EEESaIS6_EE21_M_default_initializeEm
FN:1756,_ZNKSt6vectorIN11MetaPhysicL10DualNumberIdNS0_28SemiDynamicSparseNumberArrayIdmNS0_8NWrapperILm53EEEEELb1EEESaIS6_EE12_M_check_lenEmPKc
FNDA:768262,_ZNKSt6vectorIN11MetaPhysicL10DualNumberIdNS0_28SemiDynamicSparseNumberArrayIdmNS0_8NWrapperILm53EEEEELb1EEESaIS6_EE12_M_check_lenEmPKc
FN:1756,_ZNKSt6vectorIdSaIdEE12_M_check_lenEmPKc
FNDA:2482630,_ZNKSt6vectorIdSaIdEE12_M_check_lenEmPKc
FNF:12
FNH:8
DA:97,4424560
DA:98,767240
DA:305,1828660
DA:333,4424560
DA:336,4424560
DA:337,4424560
DA:333,0
DA:336,0
DA:337,0
DA:346,6908210
DA:353,7675450
DA:359,3657320
DA:361,3657320
DA:362,3657320
DA:363,3657320
DA:364,3657320
DA:359,0
DA:361,0
DA:362,0
DA:363,0
DA:364,0
DA:510,1828660
DA:511,1828660
DA:512,1828660
DA:510,0
DA:511,0
DA:512,0
DA:553,1828660
DA:555,1828660
DA:557,1828660
DA:558,1828660
DA:561,1828660
DA:683,4424560
DA:919,8390850
DA:937,2595900
DA:939,2595900
DA:940,767240
DA:941,1828660
DA:942,0
DA:943,2595900
DA:937,0
DA:939,0
DA:940,0
DA:941,0
DA:942,0
DA:943,0
DA:1046,7787700
DA:1064,2995900
DA:1603,1828660
DA:1605,1828660
DA:1606,1828660
DA:1608,1828660
DA:1756,768262
DA:1758,768262
DA:1759,0
DA:1761,768262
DA:1762,768262
DA:1756,2482630
DA:1758,2482630
DA:1759,0
DA:1761,2482630
DA:1762,2482630
DA:1769,1828660
DA:1770,0
DA:1794,0
DA:1798,0
LF:66
LH:43
end_of_record
SF:/usr/share/miniconda/envs/moose/libmesh/include/Eigen/src/Core/Visitor.h
FN:47,_ZN5Eigen8internal12visitor_implINS0_17min_coeff_visitorINS_5BlockINS_6MatrixIN11MetaPhysicL10DualNumberIdNS5_28SemiDynamicSparseNumberArrayIdmNS5_8NWrapperILm53EEEEELb1EEELi3ELi1ELi0ELi3ELi1EEELin1ELi1ELb0EEEEENS0_17visitor_evaluatorISD_EELin1EE3runERKSG_RSE_
FNDA:5191800,_ZN5Eigen8internal12visitor_implINS0_17min_coeff_visitorINS_5BlockINS_6MatrixIN11MetaPhysicL10DualNumberIdNS5_28SemiDynamicSparseNumberArrayIdmNS5_8NWrapperILm53EEEEELb1EEELi3ELi1ELi0ELi3ELi1EEELin1ELi1ELb0EEEEENS0_17visitor_evaluatorISD_EELin1EE3runERKSG_RSE_
FN:225,_ZNK5Eigen9DenseBaseINS_5BlockINS_6MatrixIN11MetaPhysicL10DualNumberIdNS3_28SemiDynamicSparseNumberArrayIdmNS3_8NWrapperILm53EEEEELb1EEELi3ELi1ELi0ELi3ELi1EEELin1ELi1ELb0EEEE8minCoeffIlEES9_PT_
FNDA:5191800,_ZNK5Eigen9DenseBaseINS_5BlockINS_6MatrixIN11MetaPhysicL10DualNumberIdNS3_28SemiDynamicSparseNumberArrayIdmNS3_8NWrapperILm53EEEEELb1EEELi3ELi1ELi0ELi3ELi1EEELin1ELi1ELb0EEEE8minCoeffIlEES9_PT_
FNF:2
FNH:2
DA:47,5191800
DA:50,12979500
DA:55,5191800
DA:60,5191800
DA:64,5191800
DA:74,12979500
DA:116,5191800
DA:133,5191800
DA:134,5191800
DA:135,5191800
DA:145,5191800
DA:151,7787700
DA:153,1592000
DA:154,1592000
DA:155,1592000
DA:225,5191800
DA:230,5191800
DA:231,5191800
LF:18
LH:18
end_of_record
SF:/usr/share/miniconda/envs/moose/x86_64-conda-linux-gnu/include/c++/10.3.0/bits/predefined_ops.h
DA:67,0
LF:1
LH:0
end_of_record
SF:/usr/share/miniconda/envs/moose/libmesh/include/timpi/message_tag.h
LF:0
LH:0
end_of_record
SF:/usr/share/miniconda/envs/moose/libmesh/include/Eigen/src/Core/TriangularMatrix.h
FN:384,_ZN5Eigen18TriangularViewImplINS_6MatrixIN11MetaPhysicL10DualNumberIdNS2_28SemiDynamicSparseNumberArrayIdmNS2_8NWrapperILm53EEEEELb1EEELi3ELi3ELi0ELi3ELi3EEELj1ENS_5DenseEEdVERKS8_
FNDA:2595900,_ZN5Eigen18TriangularViewImplINS_6MatrixIN11MetaPhysicL10DualNumberIdNS2_28SemiDynamicSparseNumberArrayIdmNS2_8NWrapperILm53EEEEELb1EEELi3ELi3ELi0ELi3ELi3EEELj1ENS_5DenseEEdVERKS8_
FN:776,_ZN5Eigen8internal34triangular_dense_assignment_kernelILi1ELi0ELi1ENS0_9evaluatorINS_6MatrixIN11MetaPhysicL10DualNumberIdNS4_28SemiDynamicSparseNumberArrayIdmNS4_8NWrapperILm53EEEEELb1EEELi3ELi3ELi0ELi3ELi3EEEEENS2_INS_14TriangularViewIKNS3_ISA_Li3ELi3ELi2ELi3ELi3EEELj1EEEEENS0_9assign_opISA_SA_EELi0EE19assignOppositeCoeffEll
FNDA:7787700,_ZN5Eigen8internal34triangular_dense_assignment_kernelILi1ELi0ELi1ENS0_9evaluatorINS_6MatrixIN11MetaPhysicL10DualNumberIdNS4_28SemiDynamicSparseNumberArrayIdmNS4_8NWrapperILm53EEEEELb1EEELi3ELi3ELi0ELi3ELi3EEEEENS2_INS_14TriangularViewIKNS3_ISA_Li3ELi3ELi2ELi3ELi3EEELj1EEEEENS0_9assign_opISA_SA_EELi0EE19assignOppositeCoeffEll
FN:786,_ZN5Eigen8internal31call_triangular_assignment_loopILi1ELb0ENS_14TriangularViewINS_6MatrixIN11MetaPhysicL10DualNumberIdNS4_28SemiDynamicSparseNumberArrayIdmNS4_8NWrapperILm53EEEEELb1EEELi3ELi3ELi0ELi3ELi3EEELj1EEENS_13CwiseBinaryOpINS0_18scalar_quotient_opISA_SA_EEKSB_KNS_14CwiseNullaryOpINS0_18scalar_constant_opISA_EESG_EEEENS0_9assign_opISA_SA_EEEEvRT1_RKT2_RKT3_
FNDA:2595900,_ZN5Eigen8internal31call_triangular_assignment_loopILi1ELb0ENS_14TriangularViewINS_6MatrixIN11MetaPhysicL10DualNumberIdNS4_28SemiDynamicSparseNumberArrayIdmNS4_8NWrapperILm53EEEEELb1EEELi3ELi3ELi0ELi3ELi3EEELj1EEENS_13CwiseBinaryOpINS0_18scalar_quotient_opISA_SA_EEKSB_KNS_14CwiseNullaryOpINS0_18scalar_constant_opISA_EESG_EEEENS0_9assign_opISA_SA_EEEEvRT1_RKT2_RKT3_
FN:786,_ZN5Eigen8internal31call_triangular_assignment_loopILi1ELb1ENS_6MatrixIN11MetaPhysicL10DualNumberIdNS3_28SemiDynamicSparseNumberArrayIdmNS3_8NWrapperILm53EEEEELb1EEELi3ELi3ELi0ELi3ELi3EEENS_14TriangularViewIKNS2_IS9_Li3ELi3ELi2ELi3ELi3EEELj1EEENS0_9assign_opIS9_S9_EEEEvRT1_RKT2_RKT3_
FNDA:2595900,_ZN5Eigen8internal31call_triangular_assignment_loopILi1ELb1ENS_6MatrixIN11MetaPhysicL10DualNumberIdNS3_28SemiDynamicSparseNumberArrayIdmNS3_8NWrapperILm53EEEEELb1EEELi3ELi3ELi0ELi3ELi3EEENS_14TriangularViewIKNS2_IS9_Li3ELi3ELi2ELi3ELi3EEELj1EEENS0_9assign_opIS9_S9_EEEEvRT1_RKT2_RKT3_
FN:869,_ZN5Eigen8internal26triangular_assignment_loopINS0_34triangular_dense_assignment_kernelILi1ELi0ELi0ENS0_9evaluatorINS_14TriangularViewINS_6MatrixIN11MetaPhysicL10DualNumberIdNS6_28SemiDynamicSparseNumberArrayIdmNS6_8NWrapperILm53EEEEELb1EEELi3ELi3ELi0ELi3ELi3EEELj1EEEEENS3_INS_13CwiseBinaryOpINS0_18scalar_quotient_opISC_SC_EEKSD_KNS_14CwiseNullaryOpINS0_18scalar_constant_opISC_EESJ_EEEEEENS0_9assign_opISC_SC_EELi0EEELj1ELi5ELb0EE3runERST_
FNDA:2595900,_ZN5Eigen8internal26triangular_assignment_loopINS0_34triangular_dense_assignment_kernelILi1ELi0ELi0ENS0_9evaluatorINS_14TriangularViewINS_6MatrixIN11MetaPhysicL10DualNumberIdNS6_28SemiDynamicSparseNumberArrayIdmNS6_8NWrapperILm53EEEEELb1EEELi3ELi3ELi0ELi3ELi3EEELj1EEEEENS3_INS_13CwiseBinaryOpINS0_18scalar_quotient_opISC_SC_EEKSD_KNS_14CwiseNullaryOpINS0_18scalar_constant_opISC_EESJ_EEEEEENS0_9assign_opISC_SC_EELi0EEELj1ELi5ELb0EE3runERST_
FN:869,_ZN5Eigen8internal26triangular_assignment_loopINS0_34triangular_dense_assignment_kernelILi1ELi0ELi0ENS0_9evaluatorINS_14TriangularViewINS_6MatrixIN11MetaPhysicL10DualNumberIdNS6_28SemiDynamicSparseNumberArrayIdmNS6_8NWrapperILm53EEEEELb1EEELi3ELi3ELi0ELi3ELi3EEELj1EEEEENS3_INS_13CwiseBinaryOpINS0_18scalar_quotient_opISC_SC_EEKSD_KNS_14CwiseNullaryOpINS0_18scalar_constant_opISC_EESJ_EEEEEENS0_9assign_opISC_SC_EELi0EEELj1ELi9ELb0EE3runERST_
FNDA:2595900,_ZN5Eigen8internal26triangular_assignment_loopINS0_34triangular_dense_assignment_kernelILi1ELi0ELi0ENS0_9evaluatorINS_14TriangularViewINS_6MatrixIN11MetaPhysicL10DualNumberIdNS6_28SemiDynamicSparseNumberArrayIdmNS6_8NWrapperILm53EEEEELb1EEELi3ELi3ELi0ELi3ELi3EEELj1EEEEENS3_INS_13CwiseBinaryOpINS0_18scalar_quotient_opISC_SC_EEKSD_KNS_14CwiseNullaryOpINS0_18scalar_constant_opISC_EESJ_EEEEEENS0_9assign_opISC_SC_EELi0EEELj1ELi9ELb0EE3runERST_
FN:869,_ZN5Eigen8internal26triangular_assignment_loopINS0_34triangular_dense_assignment_kernelILi1ELi0ELi1ENS0_9evaluatorINS_6MatrixIN11MetaPhysicL10DualNumberIdNS5_28SemiDynamicSparseNumberArrayIdmNS5_8NWrapperILm53EEEEELb1EEELi3ELi3ELi0ELi3ELi3EEEEENS3_INS_14TriangularViewIKNS4_ISB_Li3ELi3ELi2ELi3ELi3EEELj1EEEEENS0_9assign_opISB_SB_EELi0EEELj1ELi9ELb1EE3runERSL_
FNDA:2595900,_ZN5Eigen8internal26triangular_assignment_loopINS0_34triangular_dense_assignment_kernelILi1ELi0ELi1ENS0_9evaluatorINS_6MatrixIN11MetaPhysicL10DualNumberIdNS5_28SemiDynamicSparseNumberArrayIdmNS5_8NWrapperILm53EEEEELb1EEELi3ELi3ELi0ELi3ELi3EEEEENS3_INS_14TriangularViewIKNS4_ISB_Li3ELi3ELi2ELi3ELi3EEELj1EEEEENS0_9assign_opISB_SB_EELi0EEELj1ELi9ELb1EE3runERSL_
FN:869,_ZN5Eigen8internal26triangular_assignment_loopINS0_34triangular_dense_assignment_kernelILi1ELi0ELi0ENS0_9evaluatorINS_14TriangularViewINS_6MatrixIN11MetaPhysicL10DualNumberIdNS6_28SemiDynamicSparseNumberArrayIdmNS6_8NWrapperILm53EEEEELb1EEELi3ELi3ELi0ELi3ELi3EEELj1EEEEENS3_INS_13CwiseBinaryOpINS0_18scalar_quotient_opISC_SC_EEKSD_KNS_14CwiseNullaryOpINS0_18scalar_constant_opISC_EESJ_EEEEEENS0_9assign_opISC_SC_EELi0EEELj1ELi6ELb0EE3runERST_
FNDA:2595900,_ZN5Eigen8internal26triangular_assignment_loopINS0_34triangular_dense_assignment_kernelILi1ELi0ELi0ENS0_9evaluatorINS_14TriangularViewINS_6MatrixIN11MetaPhysicL10DualNumberIdNS6_28SemiDynamicSparseNumberArrayIdmNS6_8NWrapperILm53EEEEELb1EEELi3ELi3ELi0ELi3ELi3EEELj1EEEEENS3_INS_13CwiseBinaryOpINS0_18scalar_quotient_opISC_SC_EEKSD_KNS_14CwiseNullaryOpINS0_18scalar_constant_opISC_EESJ_EEEEEENS0_9assign_opISC_SC_EELi0EEELj1ELi6ELb0EE3runERST_
FN:869,_ZN5Eigen8internal26triangular_assignment_loopINS0_34triangular_dense_assignment_kernelILi1ELi0ELi1ENS0_9evaluatorINS_6MatrixIN11MetaPhysicL10DualNumberIdNS5_28SemiDynamicSparseNumberArrayIdmNS5_8NWrapperILm53EEEEELb1EEELi3ELi3ELi0ELi3ELi3EEEEENS3_INS_14TriangularViewIKNS4_ISB_Li3ELi3ELi2ELi3ELi3EEELj1EEEEENS0_9assign_opISB_SB_EELi0EEELj1ELi8ELb1EE3runERSL_
FNDA:2595900,_ZN5Eigen8internal26triangular_assignment_loopINS0_34triangular_dense_assignment_kernelILi1ELi0ELi1ENS0_9evaluatorINS_6MatrixIN11MetaPhysicL10DualNumberIdNS5_28SemiDynamicSparseNumberArrayIdmNS5_8NWrapperILm53EEEEELb1EEELi3ELi3ELi0ELi3ELi3EEEEENS3_INS_14TriangularViewIKNS4_ISB_Li3ELi3ELi2ELi3ELi3EEELj1EEEEENS0_9assign_opISB_SB_EELi0EEELj1ELi8ELb1EE3runERSL_
FN:869,_ZN5Eigen8internal26triangular_assignment_loopINS0_34triangular_dense_assignment_kernelILi1ELi0ELi1ENS0_9evaluatorINS_6MatrixIN11MetaPhysicL10DualNumberIdNS5_28SemiDynamicSparseNumberArrayIdmNS5_8NWrapperILm53EEEEELb1EEELi3ELi3ELi0ELi3ELi3EEEEENS3_INS_14TriangularViewIKNS4_ISB_Li3ELi3ELi2ELi3ELi3EEELj1EEEEENS0_9assign_opISB_SB_EELi0EEELj1ELi2ELb1EE3runERSL_
FNDA:2595900,_ZN5Eigen8internal26triangular_assignment_loopINS0_34triangular_dense_assignment_kernelILi1ELi0ELi1ENS0_9evaluatorINS_6MatrixIN11MetaPhysicL10DualNumberIdNS5_28SemiDynamicSparseNumberArrayIdmNS5_8NWrapperILm53EEEEELb1EEELi3ELi3ELi0ELi3ELi3EEEEENS3_INS_14TriangularViewIKNS4_ISB_Li3ELi3ELi2ELi3ELi3EEELj1EEEEENS0_9assign_opISB_SB_EELi0EEELj1ELi2ELb1EE3runERSL_
FN:869,_ZN5Eigen8internal26triangular_assignment_loopINS0_34triangular_dense_assignment_kernelILi1ELi0ELi1ENS0_9evaluatorINS_6MatrixIN11MetaPhysicL10DualNumberIdNS5_28SemiDynamicSparseNumberArrayIdmNS5_8NWrapperILm53EEEEELb1EEELi3ELi3ELi0ELi3ELi3EEEEENS3_INS_14TriangularViewIKNS4_ISB_Li3ELi3ELi2ELi3ELi3EEELj1EEEEENS0_9assign_opISB_SB_EELi0EEELj1ELi7ELb1EE3runERSL_
FNDA:2595900,_ZN5Eigen8internal26triangular_assignment_loopINS0_34triangular_dense_assignment_kernelILi1ELi0ELi1ENS0_9evaluatorINS_6MatrixIN11MetaPhysicL10DualNumberIdNS5_28SemiDynamicSparseNumberArrayIdmNS5_8NWrapperILm53EEEEELb1EEELi3ELi3ELi0ELi3ELi3EEEEENS3_INS_14TriangularViewIKNS4_ISB_Li3ELi3ELi2ELi3ELi3EEELj1EEEEENS0_9assign_opISB_SB_EELi0EEELj1ELi7ELb1EE3runERSL_
FN:869,_ZN5Eigen8internal26triangular_assignment_loopINS0_34triangular_dense_assignment_kernelILi1ELi0ELi1ENS0_9evaluatorINS_6MatrixIN11MetaPhysicL10DualNumberIdNS5_28SemiDynamicSparseNumberArrayIdmNS5_8NWrapperILm53EEEEELb1EEELi3ELi3ELi0ELi3ELi3EEEEENS3_INS_14TriangularViewIKNS4_ISB_Li3ELi3ELi2ELi3ELi3EEELj1EEEEENS0_9assign_opISB_SB_EELi0EEELj1ELi6ELb1EE3runERSL_
FNDA:2595900,_ZN5Eigen8internal26triangular_assignment_loopINS0_34triangular_dense_assignment_kernelILi1ELi0ELi1ENS0_9evaluatorINS_6MatrixIN11MetaPhysicL10DualNumberIdNS5_28SemiDynamicSparseNumberArrayIdmNS5_8NWrapperILm53EEEEELb1EEELi3ELi3ELi0ELi3ELi3EEEEENS3_INS_14TriangularViewIKNS4_ISB_Li3ELi3ELi2ELi3ELi3EEELj1EEEEENS0_9assign_opISB_SB_EELi0EEELj1ELi6ELb1EE3runERSL_
FN:869,_ZN5Eigen8internal26triangular_assignment_loopINS0_34triangular_dense_assignment_kernelILi1ELi0ELi0ENS0_9evaluatorINS_14TriangularViewINS_6MatrixIN11MetaPhysicL10DualNumberIdNS6_28SemiDynamicSparseNumberArrayIdmNS6_8NWrapperILm53EEEEELb1EEELi3ELi3ELi0ELi3ELi3EEELj1EEEEENS3_INS_13CwiseBinaryOpINS0_18scalar_quotient_opISC_SC_EEKSD_KNS_14CwiseNullaryOpINS0_18scalar_constant_opISC_EESJ_EEEEEENS0_9assign_opISC_SC_EELi0EEELj1ELi3ELb0EE3runERST_
FNDA:2595900,_ZN5Eigen8internal26triangular_assignment_loopINS0_34triangular_dense_assignment_kernelILi1ELi0ELi0ENS0_9evaluatorINS_14TriangularViewINS_6MatrixIN11MetaPhysicL10DualNumberIdNS6_28SemiDynamicSparseNumberArrayIdmNS6_8NWrapperILm53EEEEELb1EEELi3ELi3ELi0ELi3ELi3EEELj1EEEEENS3_INS_13CwiseBinaryOpINS0_18scalar_quotient_opISC_SC_EEKSD_KNS_14CwiseNullaryOpINS0_18scalar_constant_opISC_EESJ_EEEEEENS0_9assign_opISC_SC_EELi0EEELj1ELi3ELb0EE3runERST_
FN:869,_ZN5Eigen8internal26triangular_assignment_loopINS0_34triangular_dense_assignment_kernelILi1ELi0ELi1ENS0_9evaluatorINS_6MatrixIN11MetaPhysicL10DualNumberIdNS5_28SemiDynamicSparseNumberArrayIdmNS5_8NWrapperILm53EEEEELb1EEELi3ELi3ELi0ELi3ELi3EEEEENS3_INS_14TriangularViewIKNS4_ISB_Li3ELi3ELi2ELi3ELi3EEELj1EEEEENS0_9assign_opISB_SB_EELi0EEELj1ELi5ELb1EE3runERSL_
FNDA:2595900,_ZN5Eigen8internal26triangular_assignment_loopINS0_34triangular_dense_assignment_kernelILi1ELi0ELi1ENS0_9evaluatorINS_6MatrixIN11MetaPhysicL10DualNumberIdNS5_28SemiDynamicSparseNumberArrayIdmNS5_8NWrapperILm53EEEEELb1EEELi3ELi3ELi0ELi3ELi3EEEEENS3_INS_14TriangularViewIKNS4_ISB_Li3ELi3ELi2ELi3ELi3EEELj1EEEEENS0_9assign_opISB_SB_EELi0EEELj1ELi5ELb1EE3runERSL_
FN:869,_ZN5Eigen8internal26triangular_assignment_loopINS0_34triangular_dense_assignment_kernelILi1ELi0ELi0ENS0_9evaluatorINS_14TriangularViewINS_6MatrixIN11MetaPhysicL10DualNumberIdNS6_28SemiDynamicSparseNumberArrayIdmNS6_8NWrapperILm53EEEEELb1EEELi3ELi3ELi0ELi3ELi3EEELj1EEEEENS3_INS_13CwiseBinaryOpINS0_18scalar_quotient_opISC_SC_EEKSD_KNS_14CwiseNullaryOpINS0_18scalar_constant_opISC_EESJ_EEEEEENS0_9assign_opISC_SC_EELi0EEELj1ELi2ELb0EE3runERST_
FNDA:2595900,_ZN5Eigen8internal26triangular_assignment_loopINS0_34triangular_dense_assignment_kernelILi1ELi0ELi0ENS0_9evaluatorINS_14TriangularViewINS_6MatrixIN11MetaPhysicL10DualNumberIdNS6_28SemiDynamicSparseNumberArrayIdmNS6_8NWrapperILm53EEEEELb1EEELi3ELi3ELi0ELi3ELi3EEELj1EEEEENS3_INS_13CwiseBinaryOpINS0_18scalar_quotient_opISC_SC_EEKSD_KNS_14CwiseNullaryOpINS0_18scalar_constant_opISC_EESJ_EEEEEENS0_9assign_opISC_SC_EELi0EEELj1ELi2ELb0EE3runERST_
FN:869,_ZN5Eigen8internal26triangular_assignment_loopINS0_34triangular_dense_assignment_kernelILi1ELi0ELi1ENS0_9evaluatorINS_6MatrixIN11MetaPhysicL10DualNumberIdNS5_28SemiDynamicSparseNumberArrayIdmNS5_8NWrapperILm53EEEEELb1EEELi3ELi3ELi0ELi3ELi3EEEEENS3_INS_14TriangularViewIKNS4_ISB_Li3ELi3ELi2ELi3ELi3EEELj1EEEEENS0_9assign_opISB_SB_EELi0EEELj1ELi4ELb1EE3runERSL_
FNDA:2595900,_ZN5Eigen8internal26triangular_assignment_loopINS0_34triangular_dense_assignment_kernelILi1ELi0ELi1ENS0_9evaluatorINS_6MatrixIN11MetaPhysicL10DualNumberIdNS5_28SemiDynamicSparseNumberArrayIdmNS5_8NWrapperILm53EEEEELb1EEELi3ELi3ELi0ELi3ELi3EEEEENS3_INS_14TriangularViewIKNS4_ISB_Li3ELi3ELi2ELi3ELi3EEELj1EEEEENS0_9assign_opISB_SB_EELi0EEELj1ELi4ELb1EE3runERSL_
FN:869,_ZN5Eigen8internal26triangular_assignment_loopINS0_34triangular_dense_assignment_kernelILi1ELi0ELi1ENS0_9evaluatorINS_6MatrixIN11MetaPhysicL10DualNumberIdNS5_28SemiDynamicSparseNumberArrayIdmNS5_8NWrapperILm53EEEEELb1EEELi3ELi3ELi0ELi3ELi3EEEEENS3_INS_14TriangularViewIKNS4_ISB_Li3ELi3ELi2ELi3ELi3EEELj1EEEEENS0_9assign_opISB_SB_EELi0EEELj1ELi3ELb1EE3runERSL_
FNDA:2595900,_ZN5Eigen8internal26triangular_assignment_loopINS0_34triangular_dense_assignment_kernelILi1ELi0ELi1ENS0_9evaluatorINS_6MatrixIN11MetaPhysicL10DualNumberIdNS5_28SemiDynamicSparseNumberArrayIdmNS5_8NWrapperILm53EEEEELb1EEELi3ELi3ELi0ELi3ELi3EEEEENS3_INS_14TriangularViewIKNS4_ISB_Li3ELi3ELi2ELi3ELi3EEELj1EEEEENS0_9assign_opISB_SB_EELi0EEELj1ELi3ELb1EE3runERSL_
FNF:17
FNH:17
DA:231,2595900
DA:235,2595900
DA:384,2595900
DA:562,2595900
DA:773,10383600
DA:776,7787700
DA:780,7787700
DA:781,7787700
DA:786,2595900
DA:809,2595900
DA:810,2595900
DA:786,2595900
DA:809,2595900
DA:810,2595900
DA:840,2595900
DA:849,2595900
DA:869,2595900
DA:876,2595900
DA:879,2595900
DA:869,2595900
DA:871,2595900
DA:876,2595900
DA:879,2595900
DA:869,2595900
DA:871,2595900
DA:878,2595900
DA:879,2595900
DA:869,2595900
DA:876,2595900
DA:879,2595900
DA:869,2595900
DA:871,2595900
DA:879,2595900
DA:869,2595900
DA:871,2595900
DA:876,2595900
DA:879,2595900
DA:869,2595900
DA:871,2595900
DA:876,2595900
DA:879,2595900
DA:869,2595900
DA:871,2595900
DA:878,2595900
DA:879,2595900
DA:869,2595900
DA:871,2595900
DA:879,2595900
DA:869,2595900
DA:871,2595900
DA:878,2595900
DA:879,2595900
DA:869,2595900
DA:871,2595900
DA:876,2595900
DA:879,2595900
DA:869,2595900
DA:871,2595900
DA:879,2595900
DA:869,2595900
DA:871,2595900
DA:879,2595900
LF:62
LH:62
end_of_record
SF:/usr/share/miniconda/envs/moose/libmesh/include/Eigen/src/Core/MapBase.h
DA:172,9665520
DA:253,6779660
DA:255,1442930
DA:267,1442930
LF:4
LH:4
end_of_record
SF:/usr/share/miniconda/envs/moose/x86_64-conda-linux-gnu/include/c++/10.3.0/bits/stl_map.h
FN:492,_ZNSt3mapINSt7__cxx1112basic_stringIcSt11char_traitsIcESaIcEEEPN7libMesh10Parameters5ValueESt4lessIS5_ESaISt4pairIKS5_S9_EEEixERSD_
FNDA:0,_ZNSt3mapINSt7__cxx1112basic_stringIcSt11char_traitsIcESaIcEEEPN7libMesh10Parameters5ValueESt4lessIS5_ESaISt4pairIKS5_S9_EEEixERSD_
FN:1258,_ZNSt3mapINSt7__cxx1112basic_stringIcSt11char_traitsIcESaIcEEEPN7libMesh10Parameters5ValueESt4lessIS5_ESaISt4pairIKS5_S9_EEE11lower_boundERSD_
FNDA:0,_ZNSt3mapINSt7__cxx1112basic_stringIcSt11char_traitsIcESaIcEEEPN7libMesh10Parameters5ValueESt4lessIS5_ESaISt4pairIKS5_S9_EEE11lower_boundERSD_
FNF:2
FNH:0
DA:302,0
DA:492,0
DA:497,0
DA:499,0
DA:501,0
DA:502,0
DA:503,0
DA:507,0
DA:1038,0
DA:1170,0
DA:1258,0
DA:1259,0
LF:12
LH:0
end_of_record
SF:/usr/share/miniconda/envs/moose/libmesh/include/Eigen/src/Eigenvalues/SelfAdjointEigenSolver.h
FN:118,_ZN5Eigen22SelfAdjointEigenSolverINS_6MatrixIN11MetaPhysicL10DualNumberIdNS2_28SemiDynamicSparseNumberArrayIdmNS2_8NWrapperILm53EEEEELb1EEELi3ELi3ELi2ELi3ELi3EEEEC2Ev
FNDA:2595900,_ZN5Eigen22SelfAdjointEigenSolverINS_6MatrixIN11MetaPhysicL10DualNumberIdNS2_28SemiDynamicSparseNumberArrayIdmNS2_8NWrapperILm53EEEEELb1EEELi3ELi3ELi2ELi3ELi3EEEEC2Ev
FN:399,_ZN5Eigen22SelfAdjointEigenSolverINS_6MatrixIN11MetaPhysicL10DualNumberIdNS2_28SemiDynamicSparseNumberArrayIdmNS2_8NWrapperILm53EEEEELb1EEELi3ELi3ELi2ELi3ELi3EEEE7computeIS9_EERSA_RKNS_9EigenBaseIT_EEi
FNDA:2595900,_ZN5Eigen22SelfAdjointEigenSolverINS_6MatrixIN11MetaPhysicL10DualNumberIdNS2_28SemiDynamicSparseNumberArrayIdmNS2_8NWrapperILm53EEEEELb1EEELi3ELi3ELi2ELi3ELi3EEEE7computeIS9_EERSA_RKNS_9EigenBaseIT_EEi
FN:482,_ZN5Eigen8internal27computeFromTridiagonal_implINS_6MatrixIN11MetaPhysicL10DualNumberIdNS3_28SemiDynamicSparseNumberArrayIdmNS3_8NWrapperILm53EEEEELb1EEELi3ELi3ELi0ELi3ELi3EEENS2_IS9_Li3ELi1ELi0ELi3ELi1EEENS2_IS9_Li2ELi1ELi2ELi2ELi1EEEEENS_15ComputationInfoERT0_RT1_lbRT_
FNDA:2595900,_ZN5Eigen8internal27computeFromTridiagonal_implINS_6MatrixIN11MetaPhysicL10DualNumberIdNS3_28SemiDynamicSparseNumberArrayIdmNS3_8NWrapperILm53EEEEELb1EEELi3ELi3ELi0ELi3ELi3EEENS2_IS9_Li3ELi1ELi0ELi3ELi1EEENS2_IS9_Li2ELi1ELi2ELi2ELi1EEEEENS_15ComputationInfoERT0_RT1_lbRT_
FN:809,_ZN5Eigen8internalL19tridiagonal_qr_stepILi0EN11MetaPhysicL10DualNumberIdNS2_28SemiDynamicSparseNumberArrayIdmNS2_8NWrapperILm53EEEEELb1EEES8_lEEvPT0_SA_T2_SB_PT1_SB_
FNDA:1433790,_ZN5Eigen8internalL19tridiagonal_qr_stepILi0EN11MetaPhysicL10DualNumberIdNS2_28SemiDynamicSparseNumberArrayIdmNS2_8NWrapperILm53EEEEELb1EEES8_lEEvPT0_SA_T2_SB_PT1_SB_
FNF:4
FNH:4
DA:118,2595900
DA:122,2595900
DA:123,2595900
DA:399,2595900
DA:411,2595900
DA:428,2595900
DA:429,2595900
DA:432,2595900
DA:433,2595900
DA:434,2595900
DA:435,2595900
DA:437,2595900
DA:439,2595900
DA:442,2595900
DA:444,2595900
DA:445,2595900
DA:482,2595900
DA:496,5191800
DA:498,4029690
DA:500,10664400
DA:501,21347100
DA:502,5191800
DA:505,15847100
DA:507,5191800
DA:509,4029690
DA:513,1433790
DA:514,1433790
DA:516,1433790
DA:517,1442930
DA:520,2867580
DA:522,2595900
DA:532,7787700
DA:535,5191800
DA:536,5191800
DA:538,1587860
DA:539,1587860
DA:540,1587860
DA:544,2595900
DA:809,1433790
DA:812,1433790
DA:813,1433790
DA:819,1433790
DA:820,1433790
DA:821,52
DA:826,1433740
DA:827,2867480
DA:830,1433790
DA:831,1433790
DA:832,2876720
DA:838,2885860
DA:839,2885860
DA:841,1442930
DA:842,1442930
DA:843,1442930
DA:846,1442930
DA:847,18280
DA:849,1442930
DA:851,1442930
DA:853,18280
DA:854,9140
DA:858,1442930
DA:862,1442930
DA:865,1433790
LF:63
LH:63
end_of_record
SF:/usr/share/miniconda/envs/moose/x86_64-conda-linux-gnu/include/c++/10.3.0/bits/stl_tree.h
FN:613,_ZNSt8_Rb_treeINSt7__cxx1112basic_stringIcSt11char_traitsIcESaIcEEESt4pairIKS5_PN7libMesh10Parameters5ValueEESt10_Select1stISC_ESt4lessIS5_ESaISC_EE17_M_construct_nodeIJRKSt21piecewise_construct_tSt5tupleIJRS7_EESN_IJEEEEEvPSt13_Rb_tree_nodeISC_EDpOT_
FNDA:0,_ZNSt8_Rb_treeINSt7__cxx1112basic_stringIcSt11char_traitsIcESaIcEEESt4pairIKS5_PN7libMesh10Parameters5ValueEESt10_Select1stISC_ESt4lessIS5_ESaISC_EE17_M_construct_nodeIJRKSt21piecewise_construct_tSt5tupleIJRS7_EESN_IJEEEEEvPSt13_Rb_tree_nodeISC_EDpOT_
FN:632,_ZNSt8_Rb_treeINSt7__cxx1112basic_stringIcSt11char_traitsIcESaIcEEESt4pairIKS5_PN7libMesh10Parameters5ValueEESt10_Select1stISC_ESt4lessIS5_ESaISC_EE14_M_create_nodeIJRKSt21piecewise_construct_tSt5tupleIJRS7_EESN_IJEEEEEPSt13_Rb_tree_nodeISC_EDpOT_
FNDA:0,_ZNSt8_Rb_treeINSt7__cxx1112basic_stringIcSt11char_traitsIcESaIcEEESt4pairIKS5_PN7libMesh10Parameters5ValueEESt10_Select1stISC_ESt4lessIS5_ESaISC_EE14_M_create_nodeIJRKSt21piecewise_construct_tSt5tupleIJRS7_EESN_IJEEEEEPSt13_Rb_tree_nodeISC_EDpOT_
FN:1211,_ZNSt8_Rb_treeINSt7__cxx1112basic_stringIcSt11char_traitsIcESaIcEEESt4pairIKS5_PN7libMesh10Parameters5ValueEESt10_Select1stISC_ESt4lessIS5_ESaISC_EE5eraseB5cxx11ESt17_Rb_tree_iteratorISC_E
FNDA:0,_ZNSt8_Rb_treeINSt7__cxx1112basic_stringIcSt11char_traitsIcESaIcEEESt4pairIKS5_PN7libMesh10Parameters5ValueEESt10_Select1stISC_ESt4lessIS5_ESaISC_EE5eraseB5cxx11ESt17_Rb_tree_iteratorISC_E
FN:1913,_ZNSt8_Rb_treeIssSt9_IdentityIsESt4lessIsESaIsEE8_M_eraseEPSt13_Rb_tree_nodeIsE
FNDA:0,_ZNSt8_Rb_treeIssSt9_IdentityIsESt4lessIsESaIsEE8_M_eraseEPSt13_Rb_tree_nodeIsE
FN:1913,_ZNSt8_Rb_treeIttSt9_IdentityItESt4lessItESaItEE8_M_eraseEPSt13_Rb_tree_nodeItE
FNDA:0,_ZNSt8_Rb_treeIttSt9_IdentityItESt4lessItESaItEE8_M_eraseEPSt13_Rb_tree_nodeItE
FN:1913,_ZNSt8_Rb_treeINSt7__cxx1112basic_stringIcSt11char_traitsIcESaIcEEESt4pairIKS5_PN7libMesh10Parameters5ValueEESt10_Select1stISC_ESt4lessIS5_ESaISC_EE8_M_eraseEPSt13_Rb_tree_nodeISC_E
FNDA:0,_ZNSt8_Rb_treeINSt7__cxx1112basic_stringIcSt11char_traitsIcESaIcEEESt4pairIKS5_PN7libMesh10Parameters5ValueEESt10_Select1stISC_ESt4lessIS5_ESaISC_EE8_M_eraseEPSt13_Rb_tree_nodeISC_E
FN:1930,_ZNSt8_Rb_treeINSt7__cxx1112basic_stringIcSt11char_traitsIcESaIcEEESt4pairIKS5_PN7libMesh10Parameters5ValueEESt10_Select1stISC_ESt4lessIS5_ESaISC_EE14_M_lower_boundEPSt13_Rb_tree_nodeISC_EPSt18_Rb_tree_node_baseRS7_
FNDA:0,_ZNSt8_Rb_treeINSt7__cxx1112basic_stringIcSt11char_traitsIcESaIcEEESt4pairIKS5_PN7libMesh10Parameters5ValueEESt10_Select1stISC_ESt4lessIS5_ESaISC_EE14_M_lower_boundEPSt13_Rb_tree_nodeISC_EPSt18_Rb_tree_node_baseRS7_
FN:2091,_ZNSt8_Rb_treeINSt7__cxx1112basic_stringIcSt11char_traitsIcESaIcEEESt4pairIKS5_PN7libMesh10Parameters5ValueEESt10_Select1stISC_ESt4lessIS5_ESaISC_EE24_M_get_insert_unique_posERS7_
FNDA:0,_ZNSt8_Rb_treeINSt7__cxx1112basic_stringIcSt11char_traitsIcESaIcEEESt4pairIKS5_PN7libMesh10Parameters5ValueEESt10_Select1stISC_ESt4lessIS5_ESaISC_EE24_M_get_insert_unique_posERS7_
FN:2193,_ZNSt8_Rb_treeINSt7__cxx1112basic_stringIcSt11char_traitsIcESaIcEEESt4pairIKS5_PN7libMesh10Parameters5ValueEESt10_Select1stISC_ESt4lessIS5_ESaISC_EE29_M_get_insert_hint_unique_posESt23_Rb_tree_const_iteratorISC_ERS7_
FNDA:0,_ZNSt8_Rb_treeINSt7__cxx1112basic_stringIcSt11char_traitsIcESaIcEEESt4pairIKS5_PN7libMesh10Parameters5ValueEESt10_Select1stISC_ESt4lessIS5_ESaISC_EE29_M_get_insert_hint_unique_posESt23_Rb_tree_const_iteratorISC_ERS7_
FN:2360,_ZNSt8_Rb_treeINSt7__cxx1112basic_stringIcSt11char_traitsIcESaIcEEESt4pairIKS5_PN7libMesh10Parameters5ValueEESt10_Select1stISC_ESt4lessIS5_ESaISC_EE14_M_insert_nodeEPSt18_Rb_tree_node_baseSK_PSt13_Rb_tree_nodeISC_E
FNDA:0,_ZNSt8_Rb_treeINSt7__cxx1112basic_stringIcSt11char_traitsIcESaIcEEESt4pairIKS5_PN7libMesh10Parameters5ValueEESt10_Select1stISC_ESt4lessIS5_ESaISC_EE14_M_insert_nodeEPSt18_Rb_tree_node_baseSK_PSt13_Rb_tree_nodeISC_E
FN:2458,_ZNSt8_Rb_treeINSt7__cxx1112basic_stringIcSt11char_traitsIcESaIcEEESt4pairIKS5_PN7libMesh10Parameters5ValueEESt10_Select1stISC_ESt4lessIS5_ESaISC_EE22_M_emplace_hint_uniqueIJRKSt21piecewise_construct_tSt5tupleIJRS7_EESN_IJEEEEESt17_Rb_tree_iteratorISC_ESt23_Rb_tree_const_iteratorISC_EDpOT_
FNDA:0,_ZNSt8_Rb_treeINSt7__cxx1112basic_stringIcSt11char_traitsIcESaIcEEESt4pairIKS5_PN7libMesh10Parameters5ValueEESt10_Select1stISC_ESt4lessIS5_ESaISC_EE22_M_emplace_hint_uniqueIJRKSt21piecewise_construct_tSt5tupleIJRS7_EESN_IJEEEEESt17_Rb_tree_iteratorISC_ESt23_Rb_tree_const_iteratorISC_EDpOT_
FN:2510,_ZNSt8_Rb_treeINSt7__cxx1112basic_stringIcSt11char_traitsIcESaIcEEESt4pairIKS5_PN7libMesh10Parameters5ValueEESt10_Select1stISC_ESt4lessIS5_ESaISC_EE12_M_erase_auxESt23_Rb_tree_const_iteratorISC_E
FNDA:0,_ZNSt8_Rb_treeINSt7__cxx1112basic_stringIcSt11char_traitsIcESaIcEEESt4pairIKS5_PN7libMesh10Parameters5ValueEESt10_Select1stISC_ESt4lessIS5_ESaISC_EE12_M_erase_auxESt23_Rb_tree_const_iteratorISC_E
FN:2550,_ZNSt8_Rb_treeINSt7__cxx1112basic_stringIcSt11char_traitsIcESaIcEEESt4pairIKS5_PN7libMesh10Parameters5ValueEESt10_Select1stISC_ESt4lessIS5_ESaISC_EE4findERS7_
FNDA:0,_ZNSt8_Rb_treeINSt7__cxx1112basic_stringIcSt11char_traitsIcESaIcEEESt4pairIKS5_PN7libMesh10Parameters5ValueEESt10_Select1stISC_ESt4lessIS5_ESaISC_EE4findERS7_
FNF:13
FNH:0
DA:287,0
DA:302,0
DA:303,0
DA:350,0
DA:351,0
DA:355,0
DA:368,0
DA:369,0
DA:613,0
DA:622,0
DA:624,0
DA:626,0
DA:628,0
DA:632,0
DA:635,0
DA:636,0
DA:647,0
DA:749,0
DA:760,0
DA:790,0
DA:798,0
DA:991,0
DA:1003,0
DA:1007,0
DA:1011,0
DA:1015,0
DA:1035,0
DA:1039,0
DA:1211,0
DA:1214,0
DA:1216,0
DA:1217,0
DA:1277,0
DA:1913,0
DA:1917,0
DA:1919,0
DA:1924,0
DA:1913,0
DA:1917,0
DA:1919,0
DA:1924,0
DA:1913,0
DA:1917,0
DA:1919,0
DA:1924,0
DA:1930,0
DA:1934,0
DA:1935,0
DA:1939,0
DA:2091,0
DA:2098,0
DA:2102,0
DA:2105,0
DA:2107,0
DA:2108,0
DA:2112,0
DA:2113,0
DA:2114,0
DA:2193,0
DA:2201,0
DA:2204,0
DA:2205,0
DA:2207,0
DA:2209,0
DA:2213,0
DA:2214,0
DA:2215,0
DA:2217,0
DA:2218,0
DA:2220,0
DA:2223,0
DA:2225,0
DA:2229,0
DA:2230,0
DA:2231,0
DA:2233,0
DA:2234,0
DA:2236,0
DA:2239,0
DA:2243,0
DA:2360,0
DA:2363,0
DA:2364,0
DA:2367,0
DA:2368,0
DA:2369,0
DA:2370,0
DA:2458,0
DA:2461,0
DA:2465,0
DA:2467,0
DA:2468,0
DA:2471,0
DA:2510,0
DA:2515,0
DA:2516,0
DA:2518,0
DA:2519,0
DA:2550,0
DA:2553,0
DA:2555,0
DA:2556,0
LF:102
LH:0
end_of_record
SF:/usr/share/miniconda/envs/moose/x86_64-conda-linux-gnu/include/c++/10.3.0/ext/new_allocator.h
DA:105,6908210
DA:106,0
DA:115,6908210
DA:133,4424650
LF:4
LH:3
end_of_record
SF:/home/runner/work/raccoon/raccoon/moose/framework/build/header_symlinks/RankTwoTensor.h
FN:590,_ZNK18RankTwoTensorTemplIN11MetaPhysicL10DualNumberIdNS0_28SemiDynamicSparseNumberArrayIdmNS0_8NWrapperILm53EEEEELb1EEEEmlIS6_EES_IN7libMesh12CompareTypesIS6_T_E9supertypeEERKNS9_10TypeTensorISB_EE
FNDA:0,_ZNK18RankTwoTensorTemplIN11MetaPhysicL10DualNumberIdNS0_28SemiDynamicSparseNumberArrayIdmNS0_8NWrapperILm53EEEEELb1EEEEmlIS6_EES_IN7libMesh12CompareTypesIS6_T_E9supertypeEERKNS9_10TypeTensorISB_EE
FN:590,_ZNK18RankTwoTensorTemplIdEmlIdEES_IN7libMesh12CompareTypesIdT_E9supertypeEERKNS2_10TypeTensorIS4_EE
FNDA:0,_ZNK18RankTwoTensorTemplIdEmlIdEES_IN7libMesh12CompareTypesIdT_E9supertypeEERKNS2_10TypeTensorIS4_EE
FNF:2
FNH:0
DA:75,2595900
DA:590,0
DA:592,0
DA:590,0
DA:592,0
LF:5
LH:1
end_of_record
SF:/usr/share/miniconda/envs/moose/x86_64-conda-linux-gnu/include/c++/10.3.0/tuple
DA:129,0
DA:130,0
DA:166,0
DA:1689,0
DA:1693,0
LF:5
LH:0
end_of_record
SF:/usr/share/miniconda/envs/moose/x86_64-conda-linux-gnu/include/c++/10.3.0/iostream
LF:0
LH:0
end_of_record
SF:/usr/share/miniconda/envs/moose/libmesh/include/Eigen/src/Core/AssignEvaluator.h
FN:204,_ZN5Eigen8internal55copy_using_evaluator_DefaultTraversal_CompleteUnrollingINS0_31generic_dense_assignment_kernelINS0_9evaluatorINS_6MatrixIN11MetaPhysicL10DualNumberIdNS5_28SemiDynamicSparseNumberArrayIdmNS5_8NWrapperILm53EEEEELb1EEELi3ELi3ELi0ELi3ELi3EEEEENS3_INS_14CwiseNullaryOpINS0_18scalar_identity_opISB_EESC_EEEENS0_9assign_opISB_SB_EELi0EEELi6ELi9EE3runERSL_
FNDA:2590980,_ZN5Eigen8internal55copy_using_evaluator_DefaultTraversal_CompleteUnrollingINS0_31generic_dense_assignment_kernelINS0_9evaluatorINS_6MatrixIN11MetaPhysicL10DualNumberIdNS5_28SemiDynamicSparseNumberArrayIdmNS5_8NWrapperILm53EEEEELb1EEELi3ELi3ELi0ELi3ELi3EEEEENS3_INS_14CwiseNullaryOpINS0_18scalar_identity_opISB_EESC_EEEENS0_9assign_opISB_SB_EELi0EEELi6ELi9EE3runERSL_
FN:204,_ZN5Eigen8internal55copy_using_evaluator_DefaultTraversal_CompleteUnrollingINS0_31generic_dense_assignment_kernelINS0_9evaluatorINS_6MatrixIN11MetaPhysicL10DualNumberIdNS5_28SemiDynamicSparseNumberArrayIdmNS5_8NWrapperILm53EEEEELb1EEELi3ELi3ELi0ELi3ELi3EEEEENS3_INS_14CwiseNullaryOpINS0_18scalar_identity_opISB_EESC_EEEENS0_9assign_opISB_SB_EELi0EEELi5ELi9EE3runERSL_
FNDA:2590980,_ZN5Eigen8internal55copy_using_evaluator_DefaultTraversal_CompleteUnrollingINS0_31generic_dense_assignment_kernelINS0_9evaluatorINS_6MatrixIN11MetaPhysicL10DualNumberIdNS5_28SemiDynamicSparseNumberArrayIdmNS5_8NWrapperILm53EEEEELb1EEELi3ELi3ELi0ELi3ELi3EEEEENS3_INS_14CwiseNullaryOpINS0_18scalar_identity_opISB_EESC_EEEENS0_9assign_opISB_SB_EELi0EEELi5ELi9EE3runERSL_
FN:204,_ZN5Eigen8internal55copy_using_evaluator_DefaultTraversal_CompleteUnrollingINS0_31generic_dense_assignment_kernelINS0_9evaluatorINS_6MatrixIN11MetaPhysicL10DualNumberIdNS5_28SemiDynamicSparseNumberArrayIdmNS5_8NWrapperILm53EEEEELb1EEELi3ELi3ELi0ELi3ELi3EEEEENS3_INS_14CwiseNullaryOpINS0_18scalar_identity_opISB_EESC_EEEENS0_9assign_opISB_SB_EELi0EEELi4ELi9EE3runERSL_
FNDA:2590980,_ZN5Eigen8internal55copy_using_evaluator_DefaultTraversal_CompleteUnrollingINS0_31generic_dense_assignment_kernelINS0_9evaluatorINS_6MatrixIN11MetaPhysicL10DualNumberIdNS5_28SemiDynamicSparseNumberArrayIdmNS5_8NWrapperILm53EEEEELb1EEELi3ELi3ELi0ELi3ELi3EEEEENS3_INS_14CwiseNullaryOpINS0_18scalar_identity_opISB_EESC_EEEENS0_9assign_opISB_SB_EELi0EEELi4ELi9EE3runERSL_
FN:204,_ZN5Eigen8internal55copy_using_evaluator_DefaultTraversal_CompleteUnrollingINS0_31generic_dense_assignment_kernelINS0_9evaluatorINS_6MatrixIN11MetaPhysicL10DualNumberIdNS5_28SemiDynamicSparseNumberArrayIdmNS5_8NWrapperILm53EEEEELb1EEELi3ELi3ELi0ELi3ELi3EEEEENS3_INS_14CwiseNullaryOpINS0_18scalar_identity_opISB_EESC_EEEENS0_9assign_opISB_SB_EELi0EEELi3ELi9EE3runERSL_
FNDA:2590980,_ZN5Eigen8internal55copy_using_evaluator_DefaultTraversal_CompleteUnrollingINS0_31generic_dense_assignment_kernelINS0_9evaluatorINS_6MatrixIN11MetaPhysicL10DualNumberIdNS5_28SemiDynamicSparseNumberArrayIdmNS5_8NWrapperILm53EEEEELb1EEELi3ELi3ELi0ELi3ELi3EEEEENS3_INS_14CwiseNullaryOpINS0_18scalar_identity_opISB_EESC_EEEENS0_9assign_opISB_SB_EELi0EEELi3ELi9EE3runERSL_
FN:204,_ZN5Eigen8internal55copy_using_evaluator_DefaultTraversal_CompleteUnrollingINS0_31generic_dense_assignment_kernelINS0_9evaluatorINS_6MatrixIN11MetaPhysicL10DualNumberIdNS5_28SemiDynamicSparseNumberArrayIdmNS5_8NWrapperILm53EEEEELb1EEELi3ELi3ELi0ELi3ELi3EEEEENS3_INS_14CwiseNullaryOpINS0_18scalar_identity_opISB_EESC_EEEENS0_9assign_opISB_SB_EELi0EEELi2ELi9EE3runERSL_
FNDA:2590980,_ZN5Eigen8internal55copy_using_evaluator_DefaultTraversal_CompleteUnrollingINS0_31generic_dense_assignment_kernelINS0_9evaluatorINS_6MatrixIN11MetaPhysicL10DualNumberIdNS5_28SemiDynamicSparseNumberArrayIdmNS5_8NWrapperILm53EEEEELb1EEELi3ELi3ELi0ELi3ELi3EEEEENS3_INS_14CwiseNullaryOpINS0_18scalar_identity_opISB_EESC_EEEENS0_9assign_opISB_SB_EELi0EEELi2ELi9EE3runERSL_
FN:204,_ZN5Eigen8internal55copy_using_evaluator_DefaultTraversal_CompleteUnrollingINS0_31generic_dense_assignment_kernelINS0_9evaluatorINS_6MatrixIN11MetaPhysicL10DualNumberIdNS5_28SemiDynamicSparseNumberArrayIdmNS5_8NWrapperILm53EEEEELb1EEELi3ELi3ELi0ELi3ELi3EEEEENS3_INS_14CwiseNullaryOpINS0_18scalar_identity_opISB_EESC_EEEENS0_9assign_opISB_SB_EELi0EEELi1ELi9EE3runERSL_
FNDA:2590980,_ZN5Eigen8internal55copy_using_evaluator_DefaultTraversal_CompleteUnrollingINS0_31generic_dense_assignment_kernelINS0_9evaluatorINS_6MatrixIN11MetaPhysicL10DualNumberIdNS5_28SemiDynamicSparseNumberArrayIdmNS5_8NWrapperILm53EEEEELb1EEELi3ELi3ELi0ELi3ELi3EEEEENS3_INS_14CwiseNullaryOpINS0_18scalar_identity_opISB_EESC_EEEENS0_9assign_opISB_SB_EELi0EEELi1ELi9EE3runERSL_
FN:204,_ZN5Eigen8internal55copy_using_evaluator_DefaultTraversal_CompleteUnrollingINS0_31generic_dense_assignment_kernelINS0_9evaluatorINS_6MatrixIN11MetaPhysicL10DualNumberIdNS5_28SemiDynamicSparseNumberArrayIdmNS5_8NWrapperILm53EEEEELb1EEELi3ELi3ELi0ELi3ELi3EEEEENS3_INS_14CwiseNullaryOpINS0_18scalar_identity_opISB_EESC_EEEENS0_9assign_opISB_SB_EELi0EEELi0ELi9EE3runERSL_
FNDA:2590980,_ZN5Eigen8internal55copy_using_evaluator_DefaultTraversal_CompleteUnrollingINS0_31generic_dense_assignment_kernelINS0_9evaluatorINS_6MatrixIN11MetaPhysicL10DualNumberIdNS5_28SemiDynamicSparseNumberArrayIdmNS5_8NWrapperILm53EEEEELb1EEELi3ELi3ELi0ELi3ELi3EEEEENS3_INS_14CwiseNullaryOpINS0_18scalar_identity_opISB_EESC_EEEENS0_9assign_opISB_SB_EELi0EEELi0ELi9EE3runERSL_
FN:204,_ZN5Eigen8internal55copy_using_evaluator_DefaultTraversal_CompleteUnrollingINS0_31generic_dense_assignment_kernelINS0_9evaluatorINS_6MatrixIN11MetaPhysicL10DualNumberIdNS5_28SemiDynamicSparseNumberArrayIdmNS5_8NWrapperILm53EEEEELb1EEELi3ELi3ELi0ELi3ELi3EEEEENS3_INS_14CwiseNullaryOpINS0_18scalar_identity_opISB_EESC_EEEENS0_9assign_opISB_SB_EELi0EEELi7ELi9EE3runERSL_
FNDA:2590980,_ZN5Eigen8internal55copy_using_evaluator_DefaultTraversal_CompleteUnrollingINS0_31generic_dense_assignment_kernelINS0_9evaluatorINS_6MatrixIN11MetaPhysicL10DualNumberIdNS5_28SemiDynamicSparseNumberArrayIdmNS5_8NWrapperILm53EEEEELb1EEELi3ELi3ELi0ELi3ELi3EEEEENS3_INS_14CwiseNullaryOpINS0_18scalar_identity_opISB_EESC_EEEENS0_9assign_opISB_SB_EELi0EEELi7ELi9EE3runERSL_
FN:240,_ZN5Eigen8internal54copy_using_evaluator_LinearTraversal_CompleteUnrollingINS0_31generic_dense_assignment_kernelINS0_9evaluatorINS_5BlockINS_6MatrixIN11MetaPhysicL10DualNumberIdNS6_28SemiDynamicSparseNumberArrayIdmNS6_8NWrapperILm53EEEEELb1EEELi3ELi3ELi0ELi3ELi3EEELi3ELi1ELb1EEEEESF_NS0_14swap_assign_opISC_EELi0EEELi1ELi3EE3runERSI_
FNDA:1587860,_ZN5Eigen8internal54copy_using_evaluator_LinearTraversal_CompleteUnrollingINS0_31generic_dense_assignment_kernelINS0_9evaluatorINS_5BlockINS_6MatrixIN11MetaPhysicL10DualNumberIdNS6_28SemiDynamicSparseNumberArrayIdmNS6_8NWrapperILm53EEEEELb1EEELi3ELi3ELi0ELi3ELi3EEELi3ELi1ELb1EEEEESF_NS0_14swap_assign_opISC_EELi0EEELi1ELi3EE3runERSI_
FN:240,_ZN5Eigen8internal54copy_using_evaluator_LinearTraversal_CompleteUnrollingINS0_31generic_dense_assignment_kernelINS0_9evaluatorINS_6MatrixIN11MetaPhysicL10DualNumberIdNS5_28SemiDynamicSparseNumberArrayIdmNS5_8NWrapperILm53EEEEELb1EEELi3ELi1ELi0ELi3ELi1EEEEENS3_INS_14CwiseNullaryOpINS0_18scalar_constant_opISB_EESC_EEEENS0_13mul_assign_opISB_SB_EELi0EEELi0ELi3EE3runERSL_
FNDA:2595900,_ZN5Eigen8internal54copy_using_evaluator_LinearTraversal_CompleteUnrollingINS0_31generic_dense_assignment_kernelINS0_9evaluatorINS_6MatrixIN11MetaPhysicL10DualNumberIdNS5_28SemiDynamicSparseNumberArrayIdmNS5_8NWrapperILm53EEEEELb1EEELi3ELi1ELi0ELi3ELi1EEEEENS3_INS_14CwiseNullaryOpINS0_18scalar_constant_opISB_EESC_EEEENS0_13mul_assign_opISB_SB_EELi0EEELi0ELi3EE3runERSL_
FN:240,_ZN5Eigen8internal54copy_using_evaluator_LinearTraversal_CompleteUnrollingINS0_31generic_dense_assignment_kernelINS0_9evaluatorINS_5BlockINS_6MatrixIN11MetaPhysicL10DualNumberIdNS6_28SemiDynamicSparseNumberArrayIdmNS6_8NWrapperILm53EEEEELb1EEELi3ELi3ELi0ELi3ELi3EEELi3ELi1ELb1EEEEESF_NS0_14swap_assign_opISC_EELi0EEELi0ELi3EE3runERSI_
FNDA:1587860,_ZN5Eigen8internal54copy_using_evaluator_LinearTraversal_CompleteUnrollingINS0_31generic_dense_assignment_kernelINS0_9evaluatorINS_5BlockINS_6MatrixIN11MetaPhysicL10DualNumberIdNS6_28SemiDynamicSparseNumberArrayIdmNS6_8NWrapperILm53EEEEELb1EEELi3ELi3ELi0ELi3ELi3EEELi3ELi1ELb1EEEEESF_NS0_14swap_assign_opISC_EELi0EEELi0ELi3EE3runERSI_
FN:240,_ZN5Eigen8internal54copy_using_evaluator_LinearTraversal_CompleteUnrollingINS0_31generic_dense_assignment_kernelINS0_9evaluatorINS_6MatrixIN11MetaPhysicL10DualNumberIdNS5_28SemiDynamicSparseNumberArrayIdmNS5_8NWrapperILm53EEEEELb1EEELi3ELi1ELi0ELi3ELi1EEEEENS3_INS_14CwiseNullaryOpINS0_18scalar_constant_opISB_EESC_EEEENS0_13mul_assign_opISB_SB_EELi0EEELi1ELi3EE3runERSL_
FNDA:2595900,_ZN5Eigen8internal54copy_using_evaluator_LinearTraversal_CompleteUnrollingINS0_31generic_dense_assignment_kernelINS0_9evaluatorINS_6MatrixIN11MetaPhysicL10DualNumberIdNS5_28SemiDynamicSparseNumberArrayIdmNS5_8NWrapperILm53EEEEELb1EEELi3ELi1ELi0ELi3ELi1EEEEENS3_INS_14CwiseNullaryOpINS0_18scalar_constant_opISB_EESC_EEEENS0_13mul_assign_opISB_SB_EELi0EEELi1ELi3EE3runERSL_
FN:629,_ZN5Eigen8internal31generic_dense_assignment_kernelINS0_9evaluatorINS_6MatrixIN11MetaPhysicL10DualNumberIdNS4_28SemiDynamicSparseNumberArrayIdmNS4_8NWrapperILm53EEEEELb1EEELi3ELi3ELi0ELi3ELi3EEEEENS2_INS_14TriangularViewIKNS3_ISA_Li3ELi3ELi2ELi3ELi3EEELj1EEEEENS0_9assign_opISA_SA_EELi0EE11assignCoeffEll
FNDA:15575400,_ZN5Eigen8internal31generic_dense_assignment_kernelINS0_9evaluatorINS_6MatrixIN11MetaPhysicL10DualNumberIdNS4_28SemiDynamicSparseNumberArrayIdmNS4_8NWrapperILm53EEEEELb1EEELi3ELi3ELi0ELi3ELi3EEEEENS2_INS_14TriangularViewIKNS3_ISA_Li3ELi3ELi2ELi3ELi3EEELj1EEEEENS0_9assign_opISA_SA_EELi0EE11assignCoeffEll
FN:629,_ZN5Eigen8internal31generic_dense_assignment_kernelINS0_9evaluatorINS_6MatrixIN11MetaPhysicL10DualNumberIdNS4_28SemiDynamicSparseNumberArrayIdmNS4_8NWrapperILm53EEEEELb1EEELi3ELi3ELi0ELi3ELi3EEEEENS2_INS_14CwiseNullaryOpINS0_18scalar_identity_opISA_EESB_EEEENS0_9assign_opISA_SA_EELi0EE11assignCoeffEll
FNDA:23318800,_ZN5Eigen8internal31generic_dense_assignment_kernelINS0_9evaluatorINS_6MatrixIN11MetaPhysicL10DualNumberIdNS4_28SemiDynamicSparseNumberArrayIdmNS4_8NWrapperILm53EEEEELb1EEELi3ELi3ELi0ELi3ELi3EEEEENS2_INS_14CwiseNullaryOpINS0_18scalar_identity_opISA_EESB_EEEENS0_9assign_opISA_SA_EELi0EE11assignCoeffEll
FN:629,_ZN5Eigen8internal31generic_dense_assignment_kernelINS0_9evaluatorINS_14TriangularViewINS_6MatrixIN11MetaPhysicL10DualNumberIdNS5_28SemiDynamicSparseNumberArrayIdmNS5_8NWrapperILm53EEEEELb1EEELi3ELi3ELi0ELi3ELi3EEELj1EEEEENS2_INS_13CwiseBinaryOpINS0_18scalar_quotient_opISB_SB_EEKSC_KNS_14CwiseNullaryOpINS0_18scalar_constant_opISB_EESI_EEEEEENS0_9assign_opISB_SB_EELi0EE11assignCoeffEll
FNDA:15575400,_ZN5Eigen8internal31generic_dense_assignment_kernelINS0_9evaluatorINS_14TriangularViewINS_6MatrixIN11MetaPhysicL10DualNumberIdNS5_28SemiDynamicSparseNumberArrayIdmNS5_8NWrapperILm53EEEEELb1EEELi3ELi3ELi0ELi3ELi3EEELj1EEEEENS2_INS_13CwiseBinaryOpINS0_18scalar_quotient_opISB_SB_EEKSC_KNS_14CwiseNullaryOpINS0_18scalar_constant_opISB_EESI_EEEEEENS0_9assign_opISB_SB_EELi0EE11assignCoeffEll
FN:635,_ZN5Eigen8internal31generic_dense_assignment_kernelINS0_9evaluatorINS_5BlockINS_6MatrixIN11MetaPhysicL10DualNumberIdNS5_28SemiDynamicSparseNumberArrayIdmNS5_8NWrapperILm53EEEEELb1EEELi3ELi3ELi0ELi3ELi3EEELi3ELi1ELb1EEEEESE_NS0_14swap_assign_opISB_EELi1EE11assignCoeffEl
FNDA:4763580,_ZN5Eigen8internal31generic_dense_assignment_kernelINS0_9evaluatorINS_5BlockINS_6MatrixIN11MetaPhysicL10DualNumberIdNS5_28SemiDynamicSparseNumberArrayIdmNS5_8NWrapperILm53EEEEELb1EEELi3ELi3ELi0ELi3ELi3EEELi3ELi1ELb1EEEEESE_NS0_14swap_assign_opISB_EELi1EE11assignCoeffEl
FN:635,_ZN5Eigen8internal31generic_dense_assignment_kernelINS0_9evaluatorINS_6MatrixIN11MetaPhysicL10DualNumberIdNS4_28SemiDynamicSparseNumberArrayIdmNS4_8NWrapperILm53EEEEELb1EEELi3ELi1ELi0ELi3ELi1EEEEENS2_INS_14CwiseNullaryOpINS0_18scalar_constant_opISA_EESB_EEEENS0_13mul_assign_opISA_SA_EELi0EE11assignCoeffEl
FNDA:7787700,_ZN5Eigen8internal31generic_dense_assignment_kernelINS0_9evaluatorINS_6MatrixIN11MetaPhysicL10DualNumberIdNS4_28SemiDynamicSparseNumberArrayIdmNS4_8NWrapperILm53EEEEELb1EEELi3ELi1ELi0ELi3ELi1EEEEENS2_INS_14CwiseNullaryOpINS0_18scalar_constant_opISA_EESB_EEEENS0_13mul_assign_opISA_SA_EELi0EE11assignCoeffEl
FN:725,_ZN5Eigen8internal26call_dense_assignment_loopINS_5BlockINS_6MatrixIN11MetaPhysicL10DualNumberIdNS4_28SemiDynamicSparseNumberArrayIdmNS4_8NWrapperILm53EEEEELb1EEELi3ELi3ELi0ELi3ELi3EEELi3ELi1ELb1EEESC_NS0_14swap_assign_opISA_EEEEvRT_RKT0_RKT1_
FNDA:1587860,_ZN5Eigen8internal26call_dense_assignment_loopINS_5BlockINS_6MatrixIN11MetaPhysicL10DualNumberIdNS4_28SemiDynamicSparseNumberArrayIdmNS4_8NWrapperILm53EEEEELb1EEELi3ELi3ELi0ELi3ELi3EEELi3ELi1ELb1EEESC_NS0_14swap_assign_opISA_EEEEvRT_RKT0_RKT1_
FN:725,_ZN5Eigen8internal26call_dense_assignment_loopINS_6MatrixIN11MetaPhysicL10DualNumberIdNS3_28SemiDynamicSparseNumberArrayIdmNS3_8NWrapperILm53EEEEELb1EEELi3ELi1ELi0ELi3ELi1EEENS_14CwiseNullaryOpINS0_18scalar_constant_opIS9_EESA_EENS0_13mul_assign_opIS9_S9_EEEEvRT_RKT0_RKT1_
FNDA:2595900,_ZN5Eigen8internal26call_dense_assignment_loopINS_6MatrixIN11MetaPhysicL10DualNumberIdNS3_28SemiDynamicSparseNumberArrayIdmNS3_8NWrapperILm53EEEEELb1EEELi3ELi1ELi0ELi3ELi1EEENS_14CwiseNullaryOpINS0_18scalar_constant_opIS9_EESA_EENS0_13mul_assign_opIS9_S9_EEEEvRT_RKT0_RKT1_
FN:780,_ZN5Eigen8internal15call_assignmentINS_6MatrixIN11MetaPhysicL10DualNumberIdNS3_28SemiDynamicSparseNumberArrayIdmNS3_8NWrapperILm53EEEEELb1EEELi3ELi3ELi0ELi3ELi3EEENS_14CwiseNullaryOpINS0_18scalar_identity_opIS9_EESA_EEEEvRT_RKT0_
FNDA:2590980,_ZN5Eigen8internal15call_assignmentINS_6MatrixIN11MetaPhysicL10DualNumberIdNS3_28SemiDynamicSparseNumberArrayIdmNS3_8NWrapperILm53EEEEELb1EEELi3ELi3ELi0ELi3ELi3EEENS_14CwiseNullaryOpINS0_18scalar_identity_opIS9_EESA_EEEEvRT_RKT0_
FNF:20
FNH:20
DA:204,2590980
DA:208,2590980
DA:204,2590980
DA:207,2590980
DA:208,2590980
DA:204,2590980
DA:207,2590980
DA:208,2590980
DA:204,2590980
DA:207,2590980
DA:208,2590980
DA:204,2590980
DA:207,2590980
DA:208,2590980
DA:204,2590980
DA:207,2590980
DA:208,2590980
DA:204,2590980
DA:207,2590980
DA:208,2590980
DA:204,2590980
DA:207,2590980
DA:208,2590980
DA:240,1587860
DA:242,1587860
DA:244,1587860
DA:240,2595900
DA:242,2595900
DA:244,2595900
DA:240,1587860
DA:242,1587860
DA:243,1587860
DA:244,1587860
DA:240,2595900
DA:242,2595900
DA:243,2595900
DA:244,2595900
DA:338,2590980
DA:507,4183760
DA:610,11966500
DA:611,11966500
DA:629,23318800
DA:631,23318800
DA:632,23318800
DA:629,15575400
DA:631,15575400
DA:632,15575400
DA:629,15575400
DA:631,15575400
DA:632,15575400
DA:635,4763580
DA:637,4763580
DA:638,4763580
DA:635,7787700
DA:637,7787700
DA:638,7787700
DA:645,20727800
DA:725,1587860
DA:742,1587860
DA:725,2595900
DA:742,2595900
DA:780,2590980
DA:782,2595900
DA:783,2590980
DA:879,4183760
LF:65
LH:65
end_of_record
SF:/home/runner/work/raccoon/raccoon/src/utils/RaccoonUtils.C
FN:14,_ZN12RaccoonUtils8MacaulayEN11MetaPhysicL10DualNumberIdNS0_28SemiDynamicSparseNumberArrayIdmNS0_8NWrapperILm53EEEEELb1EEEb
FNDA:7766500,_ZN12RaccoonUtils8MacaulayEN11MetaPhysicL10DualNumberIdNS0_28SemiDynamicSparseNumberArrayIdmNS0_8NWrapperILm53EEEEELb1EEEb
FN:22,_ZN12RaccoonUtils8MacaulayERKSt6vectorIN11MetaPhysicL10DualNumberIdNS1_28SemiDynamicSparseNumberArrayIdmNS1_8NWrapperILm53EEEEELb1EEESaIS7_EEb
FNDA:1828660,_ZN12RaccoonUtils8MacaulayERKSt6vectorIN11MetaPhysicL10DualNumberIdNS1_28SemiDynamicSparseNumberArrayIdmNS1_8NWrapperILm53EEEEELb1EEESaIS7_EEb
FN:31,_ZN12RaccoonUtils21spectralDecompositionERK18RankTwoTensorTemplIN11MetaPhysicL10DualNumberIdNS1_28SemiDynamicSparseNumberArrayIdmNS1_8NWrapperILm53EEEEELb1EEEE
FNDA:1828660,_ZN12RaccoonUtils21spectralDecompositionERK18RankTwoTensorTemplIN11MetaPhysicL10DualNumberIdNS1_28SemiDynamicSparseNumberArrayIdmNS1_8NWrapperILm53EEEEELb1EEEE
FN:43,_ZN12RaccoonUtils3logERK18RankTwoTensorTemplIN11MetaPhysicL10DualNumberIdNS1_28SemiDynamicSparseNumberArrayIdmNS1_8NWrapperILm53EEEEELb1EEEE
FNDA:527632,_ZN12RaccoonUtils3logERK18RankTwoTensorTemplIN11MetaPhysicL10DualNumberIdNS1_28SemiDynamicSparseNumberArrayIdmNS1_8NWrapperILm53EEEEELb1EEEE
FN:55,_ZN12RaccoonUtils3expERK18RankTwoTensorTemplIN11MetaPhysicL10DualNumberIdNS1_28SemiDynamicSparseNumberArrayIdmNS1_8NWrapperILm53EEEEELb1EEEE
FNDA:239608,_ZN12RaccoonUtils3expERK18RankTwoTensorTemplIN11MetaPhysicL10DualNumberIdNS1_28SemiDynamicSparseNumberArrayIdmNS1_8NWrapperILm53EEEEELb1EEEE
FNF:5
FNH:5
DA:14,7766500
DA:16,7766500
DA:17,0
DA:18,23299500
DA:22,1828660
DA:24,1828660
DA:25,7314640
DA:26,5485980
DA:27,1828660
DA:31,1828660
DA:33,1828660
DA:34,1828660
DA:35,1828660
DA:37,1828660
DA:38,1828660
DA:39,1828660
DA:43,527632
DA:46,527632
DA:47,527632
DA:48,2110530
DA:49,1582900
DA:50,527632
DA:51,527632
DA:55,239608
DA:58,239608
DA:59,239608
DA:60,958432
DA:61,718824
DA:62,239608
DA:63,239608
LF:30
LH:29
end_of_record
SF:/usr/share/miniconda/envs/moose/x86_64-conda-linux-gnu/include/c++/10.3.0/streambuf
LF:0
LH:0
end_of_record
SF:/usr/share/miniconda/envs/moose/libmesh/include/Eigen/src/Core/CommaInitializer.h
FN:61,_ZN5Eigen16CommaInitializerINS_6MatrixIN11MetaPhysicL10DualNumberIdNS2_28SemiDynamicSparseNumberArrayIdmNS2_8NWrapperILm53EEEEELb1EEELi3ELi3ELi0ELi3ELi3EEEEcmERKS8_
FNDA:39368,_ZN5Eigen16CommaInitializerINS_6MatrixIN11MetaPhysicL10DualNumberIdNS2_28SemiDynamicSparseNumberArrayIdmNS2_8NWrapperILm53EEEEELb1EEELi3ELi3ELi0ELi3ELi3EEEEcmERKS8_
FNF:1
FNH:1
DA:34,4921
DA:36,4921
DA:61,39368
DA:63,39368
DA:65,9842
DA:66,9842
DA:67,9842
DA:74,39368
DA:75,39368
DA:107,4921
LF:10
LH:10
end_of_record
SF:/usr/share/miniconda/envs/moose/x86_64-conda-linux-gnu/include/c++/10.3.0/bits/char_traits.h
DA:329,0
DA:371,0
LF:2
LH:0
end_of_record
SF:/usr/share/miniconda/envs/moose/libmesh/include/Eigen/src/Core/Stride.h
DA:71,1442930
LF:1
LH:1
end_of_record
SF:/home/runner/work/raccoon/raccoon/moose/framework/build/header_symlinks/Conversion.h
FN:61,_ZN5Moose9stringifyIdEENSt7__cxx1112basic_stringIcSt11char_traitsIcESaIcEEERKT_
FNDA:0,_ZN5Moose9stringifyIdEENSt7__cxx1112basic_stringIcSt11char_traitsIcESaIcEEERKT_
FN:138,_ZN5Moose9stringifyISt6vectorJdSaIdEEEENSt7__cxx1112basic_stringIcSt11char_traitsIcESaIcEEERKT_IJDpT0_EERKS8_SG_b
FNDA:0,_ZN5Moose9stringifyISt6vectorJdSaIdEEEENSt7__cxx1112basic_stringIcSt11char_traitsIcESaIcEEERKT_IJDpT0_EERKS8_SG_b
FNF:2
FNH:0
DA:61,0
DA:63,0
DA:64,0
DA:65,0
DA:138,0
DA:144,0
DA:148,0
DA:149,0
DA:150,0
DA:152,0
LF:10
LH:0
end_of_record
SF:/usr/share/miniconda/envs/moose/x86_64-conda-linux-gnu/include/c++/10.3.0/bits/basic_string.h
FN:525,_ZNSt7__cxx1112basic_stringIcSt11char_traitsIcESaIcEEC2IS3_EEPKcRKS3_
FNDA:0,_ZNSt7__cxx1112basic_stringIcSt11char_traitsIcESaIcEEC2IS3_EEPKcRKS3_
FN:1470,_ZNSt7__cxx1112basic_stringIcSt11char_traitsIcESaIcEE6assignIPcvEERS4_T_S8_
FNDA:0,_ZNSt7__cxx1112basic_stringIcSt11char_traitsIcESaIcEE6assignIPcvEERS4_T_S8_
FN:6032,_ZStplIcSt11char_traitsIcESaIcEENSt7__cxx1112basic_stringIT_T0_T1_EERKS8_SA_
FNDA:0,_ZStplIcSt11char_traitsIcESaIcEENSt7__cxx1112basic_stringIT_T0_T1_EERKS8_SA_
FN:6097,_ZStplIcSt11char_traitsIcESaIcEENSt7__cxx1112basic_stringIT_T0_T1_EEOS8_RKS8_
FNDA:0,_ZStplIcSt11char_traitsIcESaIcEENSt7__cxx1112basic_stringIT_T0_T1_EEOS8_RKS8_
FN:6109,_ZStplIcSt11char_traitsIcESaIcEENSt7__cxx1112basic_stringIT_T0_T1_EEOS8_S9_
FNDA:0,_ZStplIcSt11char_traitsIcESaIcEENSt7__cxx1112basic_stringIT_T0_T1_EEOS8_S9_
FNF:5
FNH:0
DA:156,0
DA:157,0
DA:160,0
DA:179,0
DA:183,0
DA:187,0
DA:193,0
DA:203,0
DA:211,0
DA:217,0
DA:247,0
DA:393,0
DA:398,0
DA:525,0
DA:527,0
DA:555,0
DA:563,0
DA:572,0
DA:658,0
DA:814,0
DA:902,0
DA:908,0
DA:966,0
DA:1140,0
DA:1149,0
DA:1193,0
DA:1470,0
DA:1471,0
DA:1640,0
DA:6032,0
DA:6035,0
DA:6037,0
DA:6097,0
DA:6099,0
DA:6109,0
DA:6122,0
DA:6123,0
DA:6280,0
DA:6473,0
LF:39
LH:0
end_of_record
SF:/usr/share/miniconda/envs/moose/libmesh/include/Eigen/src/Core/MathFunctionsImpl.h
FN:76,_ZN5Eigen8internal19positive_real_hypotIN11MetaPhysicL10DualNumberIdNS2_28SemiDynamicSparseNumberArrayIdmNS2_8NWrapperILm53EEEEELb1EEEEET_RKS9_SB_
FNDA:1433740,_ZN5Eigen8internal19positive_real_hypotIN11MetaPhysicL10DualNumberIdNS2_28SemiDynamicSparseNumberArrayIdmNS2_8NWrapperILm53EEEEELb1EEEEET_RKS9_SB_
FN:90,_ZN5Eigen8internal10hypot_implIN11MetaPhysicL10DualNumberIdNS2_28SemiDynamicSparseNumberArrayIdmNS2_8NWrapperILm53EEEEELb1EEEE3runERKS8_SB_
FNDA:1433740,_ZN5Eigen8internal10hypot_implIN11MetaPhysicL10DualNumberIdNS2_28SemiDynamicSparseNumberArrayIdmNS2_8NWrapperILm53EEEEELb1EEEE3runERKS8_SB_
FNF:2
FNH:2
DA:76,1433740
DA:80,1433740
DA:81,1433740
DA:82,1433740
DA:83,4301220
DA:90,1433740
DA:93,1433740
LF:7
LH:7
end_of_record
SF:/usr/share/miniconda/envs/moose/libmesh/include/metaphysicl/dynamicsparsenumberbase_decl.h
FN:71,_ZN11MetaPhysicL23DynamicSparseNumberBaseINS_22DynamicStdArrayWrapperIdNS_8NWrapperILm53EEEEENS1_ImS3_EENS_28SemiDynamicSparseNumberArrayEJdmS3_EEC2EOS7_
FNDA:0,_ZN11MetaPhysicL23DynamicSparseNumberBaseINS_22DynamicStdArrayWrapperIdNS_8NWrapperILm53EEEEENS1_ImS3_EENS_28SemiDynamicSparseNumberArrayEJdmS3_EEC2EOS7_
FN:74,_ZN11MetaPhysicL23DynamicSparseNumberBaseINS_22DynamicStdArrayWrapperIdNS_8NWrapperILm53EEEEENS1_ImS3_EENS_28SemiDynamicSparseNumberArrayEJdmS3_EEaSEOS7_
FNDA:173502000,_ZN11MetaPhysicL23DynamicSparseNumberBaseINS_22DynamicStdArrayWrapperIdNS_8NWrapperILm53EEEEENS1_ImS3_EENS_28SemiDynamicSparseNumberArrayEJdmS3_EEaSEOS7_
FN:78,_ZN11MetaPhysicL23DynamicSparseNumberBaseINS_22DynamicStdArrayWrapperIdNS_8NWrapperILm53EEEEENS1_ImS3_EENS_28SemiDynamicSparseNumberArrayEJdmS3_EEC2ERKS7_
FNDA:0,_ZN11MetaPhysicL23DynamicSparseNumberBaseINS_22DynamicStdArrayWrapperIdNS_8NWrapperILm53EEEEENS1_ImS3_EENS_28SemiDynamicSparseNumberArrayEJdmS3_EEC2ERKS7_
FN:80,_ZN11MetaPhysicL23DynamicSparseNumberBaseINS_22DynamicStdArrayWrapperIdNS_8NWrapperILm53EEEEENS1_ImS3_EENS_28SemiDynamicSparseNumberArrayEJdmS3_EEaSERKS7_
FNDA:178331000,_ZN11MetaPhysicL23DynamicSparseNumberBaseINS_22DynamicStdArrayWrapperIdNS_8NWrapperILm53EEEEENS1_ImS3_EENS_28SemiDynamicSparseNumberArrayEJdmS3_EEaSERKS7_
FNF:4
FNH:2
DA:71,0
DA:74,173502000
DA:78,0
DA:80,178331000
LF:4
LH:2
end_of_record
SF:/usr/share/miniconda/envs/moose/x86_64-conda-linux-gnu/include/c++/10.3.0/bits/stl_algobase.h
FN:560,_ZSt4copyIPKmPmET0_T_S4_S3_
FNDA:178331000,_ZSt4copyIPKmPmET0_T_S4_S3_
FN:560,_ZSt4copyIPKdPdET0_T_S4_S3_
FNDA:178331000,_ZSt4copyIPKdPdET0_T_S4_S3_
FN:1309,_ZSt13__lower_boundIPKmmN9__gnu_cxx5__ops14_Iter_less_valEET_S5_S5_RKT0_T1_
FNDA:0,_ZSt13__lower_boundIPKmmN9__gnu_cxx5__ops14_Iter_less_valEET_S5_S5_RKT0_T1_
FNF:3
FNH:2
DA:235,1433740
DA:236,502915
DA:259,25451800
DA:260,9857520
DA:424,356662000
DA:425,356662000
DA:426,231317000
DA:427,356662000
DA:560,178331000
DA:569,178331000
DA:560,178331000
DA:569,178331000
DA:872,32549200
DA:873,29752800
DA:1060,0
DA:1065,2796370
DA:1309,0
DA:1317,0
DA:1319,0
DA:1320,0
DA:1322,0
DA:1325,0
DA:1326,0
DA:1331,0
DA:1357,0
LF:25
LH:15
end_of_record
SF:/usr/share/miniconda/envs/moose/x86_64-conda-linux-gnu/include/c++/10.3.0/array
DA:56,0
DA:235,347003000
DA:239,380783000
LF:3
LH:2
end_of_record
SF:/usr/share/miniconda/envs/moose/libmesh/include/libmesh/int_range.h
DA:63,46726200
DA:64,46726200
LF:2
LH:2
end_of_record
SF:/usr/share/miniconda/envs/moose/libmesh/include/Eigen/src/Jacobi/Jacobi.h
FN:59,_ZNK5Eigen14JacobiRotationIN11MetaPhysicL10DualNumberIdNS1_28SemiDynamicSparseNumberArrayIdmNS1_8NWrapperILm53EEEEELb1EEEE9transposeEv
FNDA:1442930,_ZNK5Eigen14JacobiRotationIN11MetaPhysicL10DualNumberIdNS1_28SemiDynamicSparseNumberArrayIdmNS1_8NWrapperILm53EEEEELb1EEEE9transposeEv
FN:215,_ZN5Eigen14JacobiRotationIN11MetaPhysicL10DualNumberIdNS1_28SemiDynamicSparseNumberArrayIdmNS1_8NWrapperILm53EEEEELb1EEEE10makeGivensERKS7_SA_PS7_NS_8internal10false_typeE
FNDA:1442930,_ZN5Eigen14JacobiRotationIN11MetaPhysicL10DualNumberIdNS1_28SemiDynamicSparseNumberArrayIdmNS1_8NWrapperILm53EEEEELb1EEEE10makeGivensERKS7_SA_PS7_NS_8internal10false_typeE
FN:292,_ZN5Eigen10MatrixBaseINS_3MapINS_6MatrixIN11MetaPhysicL10DualNumberIdNS3_28SemiDynamicSparseNumberArrayIdmNS3_8NWrapperILm53EEEEELb1EEELin1ELin1ELi0ELin1ELin1EEELi0ENS_6StrideILi0ELi0EEEEEE15applyOnTheRightIS9_EEvllRKNS_14JacobiRotationIT_EE
FNDA:1442930,_ZN5Eigen10MatrixBaseINS_3MapINS_6MatrixIN11MetaPhysicL10DualNumberIdNS3_28SemiDynamicSparseNumberArrayIdmNS3_8NWrapperILm53EEEEELb1EEELin1ELin1ELi0ELin1ELin1EEELi0ENS_6StrideILi0ELi0EEEEEE15applyOnTheRightIS9_EEvllRKNS_14JacobiRotationIT_EE
FN:305,_ZN5Eigen8internal36apply_rotation_in_the_plane_selectorIN11MetaPhysicL10DualNumberIdNS2_28SemiDynamicSparseNumberArrayIdmNS2_8NWrapperILm53EEEEELb1EEES8_Lin1ELi0ELb0EE3runEPS8_lSA_llS8_S8_
FNDA:1442930,_ZN5Eigen8internal36apply_rotation_in_the_plane_selectorIN11MetaPhysicL10DualNumberIdNS2_28SemiDynamicSparseNumberArrayIdmNS2_8NWrapperILm53EEEEELb1EEES8_Lin1ELi0ELb0EE3runEPS8_lSA_llS8_S8_
FN:432,_ZN5Eigen8internal27apply_rotation_in_the_planeINS_5BlockINS_3MapINS_6MatrixIN11MetaPhysicL10DualNumberIdNS5_28SemiDynamicSparseNumberArrayIdmNS5_8NWrapperILm53EEEEELb1EEELin1ELin1ELi0ELin1ELin1EEELi0ENS_6StrideILi0ELi0EEEEELin1ELi1ELb1EEESG_SB_EEvRNS_9DenseBaseIT_EERNSH_IT0_EERKNS_14JacobiRotationIT1_EE
