TN:
SF:/home/runner/work/raccoon/raccoon/src/auxkernels/ConditionalBoundsAux.C
FN:6,_ZN20ConditionalBoundsAux11validParamsEv
FN:21,_ZN20ConditionalBoundsAuxC2ERK15InputParameters
FN:29,_ZN20ConditionalBoundsAux8getBoundEv
FNDA:157,_ZN20ConditionalBoundsAux11validParamsEv
FNDA:1,_ZN20ConditionalBoundsAuxC2ERK15InputParameters
FNDA:4424,_ZN20ConditionalBoundsAux8getBoundEv
FNF:3
FNH:3
DA:6,157
DA:8,157
DA:9,157
DA:13,314
DA:14,314
DA:16,314
DA:17,157
DA:18,157
DA:21,1
DA:23,3
DA:24,3
DA:26,1
DA:29,4424
DA:31,4424
DA:32,4424
DA:35,4336
LF:16
LH:16
end_of_record
TN:
SF:/home/runner/work/raccoon/raccoon/src/base/raccoonApp.C
FN:13,_ZN10raccoonApp11validParamsEv
FN:23,_ZN10raccoonAppC2E15InputParameters
FN:28,_ZN10raccoonAppD0Ev
FN:28,_ZN10raccoonAppD2Ev
FN:36,_ZN10raccoonApp11registerAllER7FactoryR13ActionFactoryR6Syntax
FN:46,_ZN10raccoonApp12registerAppsEv
FN:55,raccoonApp__registerAll
FN:60,raccoonApp__registerApps
FNDA:58,_ZN10raccoonApp11registerAllER7FactoryR13ActionFactoryR6Syntax
FNDA:0,_ZN10raccoonAppC2E15InputParameters
FNDA:0,raccoonApp__registerApps
FNDA:168,_ZN10raccoonApp11validParamsEv
FNDA:0,_ZN10raccoonAppD0Ev
FNDA:0,raccoonApp__registerAll
FNDA:0,_ZN10raccoonAppD2Ev
FNDA:0,_ZN10raccoonApp12registerAppsEv
FNF:8
FNH:2
DA:13,168
DA:15,168
DA:16,168
DA:19,168
DA:20,168
DA:23,0
DA:25,0
DA:26,0
DA:28,0
DA:36,58
DA:38,58
DA:39,174
DA:40,174
DA:42,58
DA:43,58
DA:46,0
DA:48,0
DA:49,0
DA:55,0
DA:57,0
DA:58,0
DA:60,0
DA:62,0
DA:63,0
LF:24
LH:11
end_of_record
TN:
SF:/home/runner/work/raccoon/raccoon/src/bcs/LoadingUnloadingDirichletBC.C
FN:10,_ZN27LoadingUnloadingDirichletBC11validParamsEv
FN:35,_ZN27LoadingUnloadingDirichletBCC2ERK15InputParameters
FN:48,_ZN27LoadingUnloadingDirichletBC13timestepSetupEv
FN:89,_ZN27LoadingUnloadingDirichletBC14computeQpValueEv
FNDA:0,_ZN27LoadingUnloadingDirichletBC13timestepSetupEv
FNDA:0,_ZN27LoadingUnloadingDirichletBC14computeQpValueEv
FNDA:155,_ZN27LoadingUnloadingDirichletBC11validParamsEv
FNDA:0,_ZN27LoadingUnloadingDirichletBCC2ERK15InputParameters
FNF:4
FNH:1
DA:10,155
DA:12,155
DA:13,155
DA:19,310
DA:23,310
DA:25,310
DA:26,310
DA:28,310
DA:32,155
DA:35,0
DA:38,0
DA:39,0
DA:40,0
DA:41,0
DA:42,0
DA:43,0
DA:45,0
DA:48,0
DA:50,0
DA:51,0
DA:52,0
DA:54,0
DA:55,0
DA:56,0
DA:59,0
DA:61,0
DA:62,0
DA:64,0
DA:65,0
DA:66,0
DA:67,0
DA:68,0
DA:69,0
DA:70,0
DA:75,0
DA:78,0
DA:79,0
DA:80,0
DA:82,0
DA:83,0
DA:85,0
DA:86,0
DA:89,0
DA:91,0
LF:44
LH:9
end_of_record
TN:
SF:/home/runner/work/raccoon/raccoon/src/bcs/ModeISurfingDirichletBC.C
FN:10,_ZN23ModeISurfingDirichletBC11validParamsEv
FN:30,_ZN23ModeISurfingDirichletBCC2ERK15InputParameters
FN:42,_ZN23ModeISurfingDirichletBC17computeQpResidualEv
FNDA:0,_ZN23ModeISurfingDirichletBCC2ERK15InputParameters
FNDA:155,_ZN23ModeISurfingDirichletBC11validParamsEv
FNDA:0,_ZN23ModeISurfingDirichletBC17computeQpResidualEv
FNF:3
FNH:1
DA:10,155
DA:12,155
DA:13,155
DA:18,155
DA:19,155
DA:20,155
DA:21,155
DA:23,310
DA:24,310
DA:25,310
DA:26,310
DA:27,155
DA:30,0
DA:32,0
DA:33,0
DA:34,0
DA:35,0
DA:36,0
DA:37,0
DA:39,0
DA:42,0
DA:44,0
DA:45,0
DA:46,0
DA:48,0
DA:49,0
DA:50,0
DA:51,0
DA:52,0
DA:53,0
DA:54,0
DA:55,0
DA:56,0
DA:58,0
DA:59,0
DA:60,0
DA:61,0
DA:62,0
DA:63,0
LF:39
LH:12
end_of_record
TN:
SF:/home/runner/work/raccoon/raccoon/src/ics/BrittleDamageIC.C
FN:10,_ZN15BrittleDamageIC11validParamsEv
FN:22,_ZN15BrittleDamageICC2ERK15InputParameters
FN:28,_ZN15BrittleDamageIC5valueERKN7libMesh5PointE
FNDA:0,_ZN15BrittleDamageIC5valueERKN7libMesh5PointE
FNDA:0,_ZN15BrittleDamageICC2ERK15InputParameters
FNDA:155,_ZN15BrittleDamageIC11validParamsEv
FNF:3
FNH:1
DA:10,155
DA:12,155
DA:13,155
DA:17,310
DA:18,310
DA:19,155
DA:22,0
DA:23,0
DA:25,0
DA:28,0
DA:30,0
DA:32,0
DA:33,0
DA:34,0
DA:36,0
DA:38,0
LF:16
LH:6
end_of_record
TN:
SF:/home/runner/work/raccoon/raccoon/src/ics/CohesiveDamageIC.C
FN:10,_ZN16CohesiveDamageIC11validParamsEv
FN:20,_ZN16CohesiveDamageICC2ERK15InputParameters
FN:23,_ZN16CohesiveDamageIC5valueERKN7libMesh5PointE
FNDA:0,_ZN16CohesiveDamageICC2ERK15InputParameters
FNDA:155,_ZN16CohesiveDamageIC11validParamsEv
FNDA:0,_ZN16CohesiveDamageIC5valueERKN7libMesh5PointE
FNF:3
FNH:1
DA:10,155
DA:12,155
DA:13,155
DA:17,155
DA:20,0
DA:23,0
DA:25,0
DA:27,0
DA:28,0
DA:29,0
DA:31,0
DA:33,0
LF:12
LH:4
end_of_record
TN:
SF:/home/runner/work/raccoon/raccoon/src/ics/DamageICBase.C
FN:8,_ZN12DamageICBase11validParamsEv
FN:22,_ZN12DamageICBaseC2ERK15InputParameters
FN:41,_ZN12DamageICBase4distERKN7libMesh5PointE
FNDA:0,_ZN12DamageICBase4distERKN7libMesh5PointE
FNDA:0,_ZN12DamageICBaseC2ERK15InputParameters
FNDA:310,_ZN12DamageICBase11validParamsEv
FNF:3
FNH:1
DA:8,310
DA:11,620
DA:12,620
DA:13,620
DA:14,620
DA:15,620
DA:16,620
DA:17,620
DA:18,620
DA:19,310
DA:22,0
DA:30,0
DA:31,0
DA:38,0
DA:41,0
DA:44,0
DA:49,0
DA:54,0
DA:55,0
DA:56,0
DA:63,0
DA:64,0
DA:65,0
DA:67,0
DA:68,0
DA:72,0
DA:73,0
DA:74,0
DA:79,0
DA:83,0
LF:30
LH:10
end_of_record
TN:
SF:/home/runner/work/raccoon/raccoon/src/interfaces/BaseNameInterface.C
FN:8,_ZN17BaseNameInterface11validParamsEv
FN:18,_ZN17BaseNameInterfaceC2ERK15InputParameters
FN:25,_ZNK17BaseNameInterface15prependBaseNameE20MaterialPropertyNameb
FN:33,_ZNK17BaseNameInterface15prependBaseNameERKSt6vectorI20MaterialPropertyNameSaIS1_EE
FNDA:1274,_ZNK17BaseNameInterface15prependBaseNameE20MaterialPropertyNameb
FNDA:4522,_ZN17BaseNameInterface11validParamsEv
FNDA:354,_ZN17BaseNameInterfaceC2ERK15InputParameters
FNDA:42,_ZNK17BaseNameInterface15prependBaseNameERKSt6vectorI20MaterialPropertyNameSaIS1_EE
FNF:4
FNH:4
DA:8,4522
DA:10,4522
DA:11,9044
DA:15,4522
DA:18,354
DA:20,354
DA:22,354
DA:25,1274
DA:27,1274
DA:28,1368
DA:29,1180
DA:33,42
DA:36,42
DA:37,0
DA:38,42
LF:15
LH:14
end_of_record
TN:
SF:/home/runner/work/raccoon/raccoon/src/kernels/ADCoefMatDiffusion.C
FN:10,_ZN18ADCoefMatDiffusion11validParamsEv
FN:22,_ZN18ADCoefMatDiffusionC2ERK15InputParameters
FN:34,_ZN18ADCoefMatDiffusion17computeQpResidualEv
FNDA:0,_ZN18ADCoefMatDiffusion17computeQpResidualEv
FNDA:155,_ZN18ADCoefMatDiffusion11validParamsEv
FNDA:0,_ZN18ADCoefMatDiffusionC2ERK15InputParameters
FNF:3
FNH:1
DA:10,155
DA:12,155
DA:13,155
DA:16,310
DA:17,310
DA:19,155
DA:22,0
DA:24,0
DA:25,0
DA:26,0
DA:28,0
DA:29,0
DA:30,0
DA:31,0
DA:34,0
DA:36,0
DA:37,0
DA:38,0
DA:40,0
DA:42,0
LF:20
LH:6
end_of_record
TN:
SF:/home/runner/work/raccoon/raccoon/src/kernels/ADCoefMatReaction.C
FN:10,_ZN17ADCoefMatReaction11validParamsEv
FN:22,_ZN17ADCoefMatReactionC2ERK15InputParameters
FN:34,_ZN17ADCoefMatReaction20precomputeQpResidualEv
FNDA:400000,_ZN17ADCoefMatReaction20precomputeQpResidualEv
FNDA:159,_ZN17ADCoefMatReaction11validParamsEv
FNDA:2,_ZN17ADCoefMatReactionC2ERK15InputParameters
FNF:3
FNH:3
DA:10,159
DA:12,159
DA:13,159
DA:16,318
DA:17,318
DA:19,159
DA:22,2
DA:24,6
DA:25,2
DA:26,6
DA:28,2
DA:29,4
DA:30,2
DA:31,2
DA:34,400000
DA:36,400000
DA:37,800000
DA:38,400000
DA:39,800000
LF:19
LH:19
end_of_record
TN:
SF:/home/runner/work/raccoon/raccoon/src/kernels/ADCoefMatSource.C
FN:10,_ZN15ADCoefMatSource11validParamsEv
FN:21,_ZN15ADCoefMatSourceC2ERK15InputParameters
FN:33,_ZN15ADCoefMatSource20precomputeQpResidualEv
FNDA:157,_ZN15ADCoefMatSource11validParamsEv
FNDA:736,_ZN15ADCoefMatSource20precomputeQpResidualEv
FNDA:1,_ZN15ADCoefMatSourceC2ERK15InputParameters
FNF:3
FNH:3
DA:10,157
DA:12,157
DA:13,157
DA:15,314
DA:16,314
DA:18,157
DA:21,1
DA:23,3
DA:24,1
DA:25,3
DA:27,1
DA:28,2
DA:29,1
DA:30,1
DA:33,736
DA:35,736
DA:36,1472
DA:37,736
DA:39,736
LF:19
LH:19
end_of_record
TN:
SF:/home/runner/work/raccoon/raccoon/src/kernels/ADPFFDiffusion.C
FN:10,_ZN14ADPFFDiffusion11validParamsEv
FN:26,_ZN14ADPFFDiffusionC2ERK15InputParameters
FN:36,_ZN14ADPFFDiffusion17computeQpResidualEv
FNDA:201,_ZN14ADPFFDiffusion11validParamsEv
FNDA:23,_ZN14ADPFFDiffusionC2ERK15InputParameters
FNDA:3879460,_ZN14ADPFFDiffusion17computeQpResidualEv
FNF:3
FNH:3
DA:10,201
DA:12,201
DA:13,201
DA:14,201
DA:17,402
DA:19,402
DA:21,402
DA:23,201
DA:26,23
DA:29,46
DA:30,46
DA:31,92
DA:33,23
DA:36,3879460
DA:38,3879460
DA:40,7758930
LF:16
LH:16
end_of_record
TN:
SF:/home/runner/work/raccoon/raccoon/src/kernels/ADPFFPressure.C
FN:10,_ZN13ADPFFPressure11validParamsEv
FN:28,_ZN13ADPFFPressureC2ERK15InputParameters
FN:47,_ZN13ADPFFPressure20precomputeQpResidualEv
FNDA:159,_ZN13ADPFFPressure11validParamsEv
FNDA:2,_ZN13ADPFFPressureC2ERK15InputParameters
FNDA:80800,_ZN13ADPFFPressure20precomputeQpResidualEv
FNF:3
FNH:3
DA:10,159
DA:12,159
DA:13,159
DA:14,159
DA:18,318
DA:19,318
DA:22,318
DA:25,159
DA:28,2
DA:32,4
DA:33,2
DA:35,6
DA:36,8
DA:39,6
DA:40,4
DA:42,4
DA:43,2
DA:44,2
DA:47,80800
DA:49,80800
DA:50,161600
LF:21
LH:21
end_of_record
TN:
SF:/home/runner/work/raccoon/raccoon/src/kernels/ADPFFSource.C
FN:10,_ZN11ADPFFSource11validParamsEv
FN:21,_ZN11ADPFFSourceC2ERK15InputParameters
FN:30,_ZN11ADPFFSource20precomputeQpResidualEv
FNDA:998508,_ZN11ADPFFSource20precomputeQpResidualEv
FNDA:23,_ZN11ADPFFSourceC2ERK15InputParameters
FNDA:201,_ZN11ADPFFSource11validParamsEv
FNF:3
FNH:3
DA:10,201
DA:12,201
DA:13,201
DA:15,402
DA:18,201
DA:21,23
DA:25,46
DA:27,23
DA:30,998508
DA:32,998508
LF:10
LH:10
end_of_record
TN:
SF:/home/runner/work/raccoon/raccoon/src/kernels/ADPressurizedCrack.C
FN:10,_ZN18ADPressurizedCrack11validParamsEv
FN:29,_ZN18ADPressurizedCrackC2ERK15InputParameters
FN:42,_ZN18ADPressurizedCrack20precomputeQpResidualEv
FNDA:4,_ZN18ADPressurizedCrackC2ERK15InputParameters
FNDA:406400,_ZN18ADPressurizedCrack20precomputeQpResidualEv
FNDA:163,_ZN18ADPressurizedCrack11validParamsEv
FNF:3
FNH:3
DA:10,163
DA:12,163
DA:13,163
DA:14,163
DA:17,326
DA:18,326
DA:19,326
DA:23,326
DA:26,163
DA:29,4
DA:33,12
DA:34,8
DA:35,4
DA:36,12
DA:37,20
DA:39,4
DA:42,406400
DA:44,406400
LF:18
LH:18
end_of_record
TN:
SF:/home/runner/work/raccoon/raccoon/src/main.C
FN:16,main
FNDA:37,main
FNF:1
FNH:1
DA:16,37
DA:19,37
DA:22,37
DA:25,74
DA:28,37
LF:5
LH:5
end_of_record
TN:
SF:/home/runner/work/raccoon/raccoon/src/materials/ArrheniusLaw.C
FN:10,_ZN12ArrheniusLaw11validParamsEv
FN:27,_ZN12ArrheniusLawC2ERK15InputParameters
FN:42,_ZN12ArrheniusLaw19computeQpPropertiesEv
FNDA:171,_ZN12ArrheniusLaw11validParamsEv
FNDA:33336,_ZN12ArrheniusLaw19computeQpPropertiesEv
FNDA:12,_ZN12ArrheniusLawC2ERK15InputParameters
FNF:3
FNH:3
DA:10,171
DA:12,171
DA:13,171
DA:14,171
DA:18,342
DA:20,342
DA:21,342
DA:22,342
DA:24,171
DA:27,12
DA:31,24
DA:32,12
DA:34,48
DA:35,24
DA:36,12
DA:37,72
DA:39,12
DA:42,33336
DA:44,66672
DA:45,66672
DA:46,33336
LF:21
LH:21
end_of_record
TN:
SF:/home/runner/work/raccoon/raccoon/src/materials/ComputeEigenstrainFromFunctionInitialStress.C
FN:10,_ZN43ComputeEigenstrainFromFunctionInitialStress11validParamsEv
FN:32,_ZN43ComputeEigenstrainFromFunctionInitialStressC2ERK15InputParameters
FN:58,_ZN43ComputeEigenstrainFromFunctionInitialStress24initQpStatefulPropertiesEv
FN:64,_ZN43ComputeEigenstrainFromFunctionInitialStress19computeQpPropertiesEv
FNDA:400000,_ZN43ComputeEigenstrainFromFunctionInitialStress19computeQpPropertiesEv
FNDA:0,_ZN43ComputeEigenstrainFromFunctionInitialStress24initQpStatefulPropertiesEv
FNDA:159,_ZN43ComputeEigenstrainFromFunctionInitialStress11validParamsEv
FNDA:3,_ZN43ComputeEigenstrainFromFunctionInitialStressC2ERK15InputParameters
FNF:4
FNH:3
DA:10,159
DA:12,159
DA:13,159
DA:14,159
DA:20,318
DA:21,318
DA:22,318
DA:27,318
DA:29,159
DA:32,3
DA:33,3
DA:36,6
DA:37,6
DA:38,6
DA:39,18
DA:42,6
DA:45,3
DA:46,0
DA:48,0
DA:49,0
DA:50,0
DA:52,3
DA:53,12
DA:54,9
DA:55,3
DA:58,0
DA:60,0
DA:61,0
DA:64,400000
DA:67,400000
DA:68,1600000
DA:69,1200000
DA:70,400000
DA:71,400000
DA:73,400000
DA:74,400000
DA:75,1200000
DA:76,400000
LF:38
LH:31
end_of_record
TN:
SF:/home/runner/work/raccoon/raccoon/src/materials/CrackSurfaceDensity.C
FN:10,_ZN19CrackSurfaceDensity11validParamsEv
FN:32,_ZN19CrackSurfaceDensityC2ERK15InputParameters
FN:44,_ZN19CrackSurfaceDensity19computeQpPropertiesEv
FNDA:0,_ZN19CrackSurfaceDensityC2ERK15InputParameters
FNDA:155,_ZN19CrackSurfaceDensity11validParamsEv
FNDA:0,_ZN19CrackSurfaceDensity19computeQpPropertiesEv
FNF:3
FNH:1
DA:10,155
DA:12,155
DA:13,155
DA:14,155
DA:19,310
DA:20,310
DA:22,310
DA:24,310
DA:26,310
DA:29,155
DA:32,0
DA:35,0
DA:36,0
DA:37,0
DA:38,0
DA:39,0
DA:41,0
DA:44,0
DA:46,0
DA:47,0
DA:48,0
LF:21
LH:10
end_of_record
TN:
SF:/home/runner/work/raccoon/raccoon/src/materials/NucleationMicroForce.C
FN:11,_ZN20NucleationMicroForce11validParamsEv
FN:45,_ZN20NucleationMicroForceC2ERK15InputParameters
FN:62,_ZN20NucleationMicroForce19computeQpPropertiesEv
FNDA:159,_ZN20NucleationMicroForce11validParamsEv
FNDA:3,_ZN20NucleationMicroForceC2ERK15InputParameters
FNDA:41856,_ZN20NucleationMicroForce19computeQpPropertiesEv
FNF:3
FNH:3
DA:11,159
DA:13,159
DA:14,159
DA:16,159
DA:20,318
DA:22,318
DA:24,318
DA:27,318
DA:28,318
DA:30,318
DA:32,318
DA:36,318
DA:37,318
DA:42,159
DA:45,3
DA:48,6
DA:49,6
DA:50,6
DA:51,6
DA:52,6
DA:53,6
DA:54,3
DA:55,3
DA:56,6
DA:57,33
DA:59,3
DA:62,41856
DA:65,83712
DA:69,83712
DA:70,41856
DA:71,83712
DA:74,41856
DA:77,41856
DA:78,41856
DA:79,83712
DA:85,41856
DA:86,13920
DA:89,41856
DA:90,41856
DA:91,41856
DA:92,125568
DA:93,41856
DA:94,83712
DA:95,125568
DA:96,41856
LF:45
LH:45
end_of_record
TN:
SF:/home/runner/work/raccoon/raccoon/src/materials/PressureDensity.C
FN:10,_ZN15PressureDensity11validParamsEv
FN:29,_ZN15PressureDensityC2ERK15InputParameters
FN:42,_ZN15PressureDensity19computeQpPropertiesEv
FNDA:272800,_ZN15PressureDensity19computeQpPropertiesEv
FNDA:6,_ZN15PressureDensityC2ERK15InputParameters
FNDA:163,_ZN15PressureDensity11validParamsEv
FNF:3
FNH:3
DA:10,163
DA:12,163
DA:13,163
DA:14,163
DA:17,326
DA:20,326
DA:21,326
DA:22,326
DA:26,163
DA:29,6
DA:33,12
DA:34,12
DA:35,12
DA:36,18
DA:37,36
DA:39,6
DA:42,272800
DA:44,545600
DA:45,272800
LF:19
LH:19
end_of_record
TN:
SF:/home/runner/work/raccoon/raccoon/src/materials/ThinFilmInterfaceEnergyDensity.C
FN:10,_ZN30ThinFilmInterfaceEnergyDensity11validParamsEv
FN:33,_ZN30ThinFilmInterfaceEnergyDensityC2ERK15InputParameters
FN:63,_ZN30ThinFilmInterfaceEnergyDensity19computeQpPropertiesEv
FNDA:159,_ZN30ThinFilmInterfaceEnergyDensity11validParamsEv
FNDA:3,_ZN30ThinFilmInterfaceEnergyDensityC2ERK15InputParameters
FNDA:400000,_ZN30ThinFilmInterfaceEnergyDensity19computeQpPropertiesEv
FNF:3
FNH:3
DA:10,159
DA:12,159
DA:13,159
DA:14,159
DA:18,318
DA:21,318
DA:25,318
DA:26,318
DA:28,318
DA:30,159
DA:33,3
DA:37,6
DA:38,3
DA:41,6
DA:45,3
DA:46,3
DA:47,9
DA:51,3
DA:52,33
DA:54,9
DA:55,6
DA:58,6
DA:59,3
DA:60,3
DA:63,400000
DA:65,400000
DA:66,800000
DA:67,800000
DA:68,800000
DA:69,400000
LF:30
LH:30
end_of_record
TN:
SF:/home/runner/work/raccoon/raccoon/src/materials/hardening_models/ArrheniusLawHardening.C
FN:10,_ZN21ArrheniusLawHardening11validParamsEv
FN:41,_ZN21ArrheniusLawHardeningC2ERK15InputParameters
FN:73,_ZN21ArrheniusLawHardening13plasticEnergyERKN11MetaPhysicL10DualNumberIdNS0_28SemiDynamicSparseNumberArrayIdmNS0_8NWrapperILm53EEEEELb1EEEj
FN:95,_ZN21ArrheniusLawHardening18plasticDissipationERKN11MetaPhysicL10DualNumberIdNS0_28SemiDynamicSparseNumberArrayIdmNS0_8NWrapperILm53EEEEELb1EEES8_j
FN:115,_ZN21ArrheniusLawHardening16thermalConjugateERKN11MetaPhysicL10DualNumberIdNS0_28SemiDynamicSparseNumberArrayIdmNS0_8NWrapperILm53EEEEELb1EEE
FNDA:168398,_ZN21ArrheniusLawHardening18plasticDissipationERKN11MetaPhysicL10DualNumberIdNS0_28SemiDynamicSparseNumberArrayIdmNS0_8NWrapperILm53EEEEELb1EEES8_j
FNDA:33336,_ZN21ArrheniusLawHardening16thermalConjugateERKN11MetaPhysicL10DualNumberIdNS0_28SemiDynamicSparseNumberArrayIdmNS0_8NWrapperILm53EEEEELb1EEE
FNDA:12,_ZN21ArrheniusLawHardeningC2ERK15InputParameters
FNDA:168398,_ZN21ArrheniusLawHardening13plasticEnergyERKN11MetaPhysicL10DualNumberIdNS0_28SemiDynamicSparseNumberArrayIdmNS0_8NWrapperILm53EEEEELb1EEEj
FNDA:171,_ZN21ArrheniusLawHardening11validParamsEv
FNF:5
FNH:5
DA:10,171
DA:12,171
DA:13,171
DA:15,342
DA:17,342
DA:19,342
DA:22,342
DA:23,342
DA:27,342
DA:28,342
DA:34,342
DA:38,171
DA:41,12
DA:44,24
DA:45,24
DA:46,12
DA:48,48
DA:49,12
DA:51,24
DA:55,12
DA:56,12
DA:57,36
DA:61,12
DA:62,36
DA:65,12
DA:68,192
DA:70,12
DA:73,168398
DA:75,168398
DA:77,33336
DA:78,100008
DA:79,66672
DA:80,66672
DA:81,33336
DA:84,135062
DA:85,347996
DA:87,48063
DA:88,96126
DA:90,0
DA:95,168398
DA:99,168398
DA:101,0
DA:104,168398
DA:105,481340
DA:107,48063
DA:108,96126
DA:110,0
DA:115,33336
DA:117,33336
DA:118,66672
LF:50
LH:47
end_of_record
TN:
SF:/home/runner/work/raccoon/raccoon/src/materials/hardening_models/ExponentialHardening.C
FN:10,_ZN20ExponentialHardening11validParamsEv
FN:32,_ZN20ExponentialHardeningC2ERK15InputParameters
FN:56,_ZN20ExponentialHardening13plasticEnergyERKN11MetaPhysicL10DualNumberIdNS0_28SemiDynamicSparseNumberArrayIdmNS0_8NWrapperILm53EEEEELb1EEEj
FNDA:159,_ZN20ExponentialHardening11validParamsEv
FNDA:3,_ZN20ExponentialHardeningC2ERK15InputParameters
FNDA:182872,_ZN20ExponentialHardening13plasticEnergyERKN11MetaPhysicL10DualNumberIdNS0_28SemiDynamicSparseNumberArrayIdmNS0_8NWrapperILm53EEEEELb1EEEj
FNF:3
FNH:3
DA:10,159
DA:12,159
DA:13,159
DA:15,318
DA:16,318
DA:18,318
DA:20,318
DA:22,318
DA:23,318
DA:27,318
DA:29,159
DA:32,3
DA:35,6
DA:36,6
DA:37,6
DA:38,6
DA:40,6
DA:44,3
DA:45,3
DA:46,9
DA:50,3
DA:51,39
DA:53,3
DA:56,182872
DA:58,182872
DA:60,30584
DA:61,30584
DA:62,122336
DA:63,61168
DA:64,61168
DA:65,61168
DA:66,30584
DA:69,152288
DA:70,91436
DA:71,274308
DA:72,182872
DA:74,60852
DA:75,60852
DA:76,182556
DA:78,0
LF:40
LH:39
end_of_record
TN:
SF:/home/runner/work/raccoon/raccoon/src/materials/hardening_models/LinearHardening.C
FN:11,_ZN15LinearHardening11validParamsEv
FN:30,_ZN15LinearHardeningC2ERK15InputParameters
FN:52,_ZN15LinearHardening13plasticEnergyERKN11MetaPhysicL10DualNumberIdNS0_28SemiDynamicSparseNumberArrayIdmNS0_8NWrapperILm53EEEEELb1EEEj
FNDA:163,_ZN15LinearHardening11validParamsEv
FNDA:6,_ZN15LinearHardeningC2ERK15InputParameters
FNDA:147772,_ZN15LinearHardening13plasticEnergyERKN11MetaPhysicL10DualNumberIdNS0_28SemiDynamicSparseNumberArrayIdmNS0_8NWrapperILm53EEEEELb1EEEj
FNF:3
FNH:3
DA:11,163
DA:13,163
DA:14,163
DA:16,326
DA:18,326
DA:20,326
DA:21,326
DA:25,326
DA:27,163
DA:30,6
DA:33,12
DA:34,12
DA:36,12
DA:40,6
DA:41,6
DA:42,18
DA:46,6
DA:47,66
DA:49,6
DA:52,147772
DA:54,147772
DA:56,94560
DA:57,63040
DA:58,63040
DA:59,31520
DA:62,116252
DA:63,295544
DA:65,42366
DA:66,42366
DA:68,0
LF:30
LH:29
end_of_record
TN:
SF:/home/runner/work/raccoon/raccoon/src/materials/hardening_models/PlasticHardeningModel.C
FN:8,_ZN21PlasticHardeningModel11validParamsEv
FN:19,_ZN21PlasticHardeningModelC2ERK15InputParameters
FNDA:676,_ZN21PlasticHardeningModel11validParamsEv
FNDA:42,_ZN21PlasticHardeningModelC2ERK15InputParameters
FNF:2
FNH:2
DA:8,676
DA:10,676
DA:11,676
DA:13,676
DA:14,676
DA:16,676
DA:19,42
DA:20,42
DA:22,42
LF:9
LH:9
end_of_record
TN:
SF:/home/runner/work/raccoon/raccoon/src/materials/hardening_models/PowerLawHardening.C
FN:10,_ZN17PowerLawHardening11validParamsEv
FN:31,_ZN17PowerLawHardeningC2ERK15InputParameters
FN:54,_ZN17PowerLawHardening13plasticEnergyERKN11MetaPhysicL10DualNumberIdNS0_28SemiDynamicSparseNumberArrayIdmNS0_8NWrapperILm53EEEEELb1EEEj
FNDA:21,_ZN17PowerLawHardeningC2ERK15InputParameters
FNDA:701830,_ZN17PowerLawHardening13plasticEnergyERKN11MetaPhysicL10DualNumberIdNS0_28SemiDynamicSparseNumberArrayIdmNS0_8NWrapperILm53EEEEELb1EEEj
FNDA:183,_ZN17PowerLawHardening11validParamsEv
FNF:3
FNH:3
DA:10,183
DA:12,183
DA:13,183
DA:15,366
DA:16,366
DA:18,366
DA:21,366
DA:22,366
DA:26,366
DA:28,183
DA:31,21
DA:34,42
DA:35,42
DA:36,42
DA:38,42
DA:42,21
DA:43,21
DA:44,63
DA:48,21
DA:49,252
DA:51,21
DA:54,701830
DA:56,701830
DA:58,565456
DA:59,1413640
DA:60,565456
DA:61,565456
DA:62,282728
DA:65,419102
DA:66,1754580
DA:68,68187
DA:69,340935
DA:70,68187
DA:72,0
LF:34
LH:33
end_of_record
TN:
SF:/home/runner/work/raccoon/raccoon/src/materials/large_deformation_models/CNHIsotropicElasticity.C
FN:11,_ZN22CNHIsotropicElasticity11validParamsEv
FN:31,_ZN22CNHIsotropicElasticityC2ERK15InputParameters
FN:55,_ZN22CNHIsotropicElasticity19computeMandelStressERK18RankTwoTensorTemplIN11MetaPhysicL10DualNumberIdNS1_28SemiDynamicSparseNumberArrayIdmNS1_8NWrapperILm53EEEEELb1EEEEb
FN:71,_ZN22CNHIsotropicElasticity34computeMandelStressNoDecompositionERK18RankTwoTensorTemplIN11MetaPhysicL10DualNumberIdNS1_28SemiDynamicSparseNumberArrayIdmNS1_8NWrapperILm53EEEEELb1EEEEb
FN:108,_ZN22CNHIsotropicElasticity38computeMandelStressVolDevDecompositionERK18RankTwoTensorTemplIN11MetaPhysicL10DualNumberIdNS1_28SemiDynamicSparseNumberArrayIdmNS1_8NWrapperILm53EEEEELb1EEEEb
FNDA:3144,_ZN22CNHIsotropicElasticity19computeMandelStressERK18RankTwoTensorTemplIN11MetaPhysicL10DualNumberIdNS1_28SemiDynamicSparseNumberArrayIdmNS1_8NWrapperILm53EEEEELb1EEEEb
FNDA:3144,_ZN22CNHIsotropicElasticity34computeMandelStressNoDecompositionERK18RankTwoTensorTemplIN11MetaPhysicL10DualNumberIdNS1_28SemiDynamicSparseNumberArrayIdmNS1_8NWrapperILm53EEEEELb1EEEEb
FNDA:3,_ZN22CNHIsotropicElasticityC2ERK15InputParameters
FNDA:0,_ZN22CNHIsotropicElasticity38computeMandelStressVolDevDecompositionERK18RankTwoTensorTemplIN11MetaPhysicL10DualNumberIdNS1_28SemiDynamicSparseNumberArrayIdmNS1_8NWrapperILm53EEEEELb1EEEEb
FNDA:159,_ZN22CNHIsotropicElasticity11validParamsEv
FNF:5
FNH:4
DA:11,159
DA:13,159
DA:14,159
DA:16,318
DA:17,318
DA:19,318
DA:20,318
DA:24,318
DA:25,318
DA:26,318
DA:28,159
DA:31,3
DA:34,6
DA:35,6
DA:37,6
DA:41,3
DA:42,3
DA:43,9
DA:47,3
DA:48,9
DA:50,39
DA:52,3
DA:55,3144
DA:58,3144
DA:60,3144
DA:61,3144
DA:62,0
DA:63,0
DA:65,0
DA:67,3144
DA:71,3144
DA:75,3144
DA:76,3144
DA:78,1048
DA:79,1048
DA:82,2096
DA:84,3144
DA:86,3144
DA:89,12576
DA:90,3144
DA:94,3144
DA:96,4192
DA:97,6288
DA:98,6288
DA:99,2096
DA:100,4192
DA:101,4192
DA:104,3144
DA:108,0
DA:112,0
DA:113,0
DA:115,0
DA:116,0
DA:119,0
DA:121,0
DA:123,0
DA:126,0
DA:127,0
DA:129,0
DA:133,0
DA:135,0
DA:136,0
DA:137,0
DA:138,0
DA:139,0
DA:140,0
DA:143,0
LF:67
LH:45
end_of_record
TN:
SF:/home/runner/work/raccoon/raccoon/src/materials/large_deformation_models/ComputeDeformationGradient.C
FN:10,_ZN26ComputeDeformationGradient11validParamsEv
FN:31,_ZN26ComputeDeformationGradientC2ERK15InputParameters
FN:55,_ZN26ComputeDeformationGradient12initialSetupEv
FN:68,_ZN26ComputeDeformationGradient26displacementIntegrityCheckEv
FN:88,_ZN26ComputeDeformationGradient24initQpStatefulPropertiesEv
FN:95,_ZN26ComputeDeformationGradient27computeQpOutOfPlaneGradDispEv
FN:104,_ZN26ComputeDeformationGradient17computePropertiesEv
FNDA:42,_ZN26ComputeDeformationGradientC2ERK15InputParameters
FNDA:55424,_ZN26ComputeDeformationGradient17computePropertiesEv
FNDA:12368,_ZN26ComputeDeformationGradient24initQpStatefulPropertiesEv
FNDA:211,_ZN26ComputeDeformationGradient11validParamsEv
FNDA:42,_ZN26ComputeDeformationGradient12initialSetupEv
FNDA:0,_ZN26ComputeDeformationGradient27computeQpOutOfPlaneGradDispEv
FNDA:42,_ZN26ComputeDeformationGradient26displacementIntegrityCheckEv
FNF:7
FNH:6
DA:10,211
DA:12,211
DA:13,211
DA:14,211
DA:19,422
DA:22,422
DA:23,422
DA:24,422
DA:27,211
DA:28,211
DA:31,42
DA:34,42
DA:35,42
DA:38,42
DA:40,42
DA:41,84
DA:42,84
DA:45,420
DA:47,42
DA:48,0
DA:50,84
DA:51,0
DA:52,42
DA:55,42
DA:57,42
DA:60,51
DA:62,9
DA:63,9
DA:65,42
DA:68,42
DA:71,42
DA:72,0
DA:77,42
DA:78,0
DA:81,42
DA:82,0
DA:85,42
DA:88,12368
DA:90,12368
DA:91,12368
DA:92,12368
DA:95,0
DA:97,0
DA:98,0
DA:100,0
DA:104,55424
DA:106,55424
DA:108,346592
DA:111,291168
DA:112,291168
DA:113,0
DA:114,291168
DA:115,291168
DA:117,291168
DA:118,477120
DA:121,55424
DA:122,43673
DA:124,346592
DA:126,291168
DA:127,477120
DA:130,291168
DA:131,291168
DA:132,0
DA:133,291168
DA:135,55424
LF:65
LH:54
end_of_record
TN:
SF:/home/runner/work/raccoon/raccoon/src/materials/large_deformation_models/ComputeLargeDeformationStress.C
FN:13,_ZN29ComputeLargeDeformationStress11validParamsEv
FN:29,_ZN29ComputeLargeDeformationStressC2ERK15InputParameters
FN:44,_ZN29ComputeLargeDeformationStress12initialSetupEv
FN:67,_ZN29ComputeLargeDeformationStress24initQpStatefulPropertiesEv
FN:73,_ZN29ComputeLargeDeformationStress19computeQpPropertiesEv
FNDA:42,_ZN29ComputeLargeDeformationStress12initialSetupEv
FNDA:42,_ZN29ComputeLargeDeformationStressC2ERK15InputParameters
FNDA:291168,_ZN29ComputeLargeDeformationStress19computeQpPropertiesEv
FNDA:211,_ZN29ComputeLargeDeformationStress11validParamsEv
FNDA:12368,_ZN29ComputeLargeDeformationStress24initQpStatefulPropertiesEv
FNF:5
FNH:5
DA:13,211
DA:15,211
DA:16,211
DA:17,211
DA:20,422
DA:22,422
DA:23,422
DA:25,211
DA:26,211
DA:29,42
DA:32,84
DA:33,42
DA:34,42
DA:35,48
DA:37,168
DA:39,84
DA:40,0
DA:41,42
DA:44,42
DA:46,42
DA:47,42
DA:48,42
DA:49,0
DA:50,0
DA:53,42
DA:54,42
DA:55,78
DA:57,42
DA:58,36
DA:60,42
DA:61,45
DA:62,48
DA:64,42
DA:67,12368
DA:69,12368
DA:70,12368
DA:73,291168
DA:75,291168
DA:76,291168
DA:78,291168
DA:80,62224
DA:81,62224
DA:83,291168
LF:43
LH:40
end_of_record
TN:
SF:/home/runner/work/raccoon/raccoon/src/materials/large_deformation_models/HenckyIsotropicElasticity.C
FN:11,_ZN25HenckyIsotropicElasticity11validParamsEv
FN:32,_ZN25HenckyIsotropicElasticityC2ERK15InputParameters
FN:56,_ZN25HenckyIsotropicElasticity19computeMandelStressERK18RankTwoTensorTemplIN11MetaPhysicL10DualNumberIdNS1_28SemiDynamicSparseNumberArrayIdmNS1_8NWrapperILm53EEEEELb1EEEEb
FN:74,_ZN25HenckyIsotropicElasticity34computeMandelStressNoDecompositionERK18RankTwoTensorTemplIN11MetaPhysicL10DualNumberIdNS1_28SemiDynamicSparseNumberArrayIdmNS1_8NWrapperILm53EEEEELb1EEEEb
FN:104,_ZN25HenckyIsotropicElasticity38computeMandelStressVolDevDecompositionERK18RankTwoTensorTemplIN11MetaPhysicL10DualNumberIdNS1_28SemiDynamicSparseNumberArrayIdmNS1_8NWrapperILm53EEEEELb1EEEEb
FN:143,_ZN25HenckyIsotropicElasticity40computeMandelStressSpectralDecompositionERK18RankTwoTensorTemplIN11MetaPhysicL10DualNumberIdNS1_28SemiDynamicSparseNumberArrayIdmNS1_8NWrapperILm53EEEEELb1EEEEb
FNDA:207,_ZN25HenckyIsotropicElasticity11validParamsEv
FNDA:1427950,_ZN25HenckyIsotropicElasticity19computeMandelStressERK18RankTwoTensorTemplIN11MetaPhysicL10DualNumberIdNS1_28SemiDynamicSparseNumberArrayIdmNS1_8NWrapperILm53EEEEELb1EEEEb
FNDA:1427950,_ZN25HenckyIsotropicElasticity34computeMandelStressNoDecompositionERK18RankTwoTensorTemplIN11MetaPhysicL10DualNumberIdNS1_28SemiDynamicSparseNumberArrayIdmNS1_8NWrapperILm53EEEEELb1EEEEb
FNDA:0,_ZN25HenckyIsotropicElasticity40computeMandelStressSpectralDecompositionERK18RankTwoTensorTemplIN11MetaPhysicL10DualNumberIdNS1_28SemiDynamicSparseNumberArrayIdmNS1_8NWrapperILm53EEEEELb1EEEEb
FNDA:39,_ZN25HenckyIsotropicElasticityC2ERK15InputParameters
FNDA:0,_ZN25HenckyIsotropicElasticity38computeMandelStressVolDevDecompositionERK18RankTwoTensorTemplIN11MetaPhysicL10DualNumberIdNS1_28SemiDynamicSparseNumberArrayIdmNS1_8NWrapperILm53EEEEELb1EEEEb
FNF:6
FNH:4
DA:11,207
DA:13,207
DA:14,207
DA:17,414
DA:18,414
DA:20,414
DA:21,414
DA:25,414
DA:26,414
DA:27,414
DA:29,207
DA:32,39
DA:35,78
DA:36,78
DA:38,78
DA:42,39
DA:43,39
DA:44,117
DA:48,39
DA:49,117
DA:51,507
DA:53,39
DA:56,1427950
DA:59,1427950
DA:61,1427950
DA:62,1427950
DA:63,0
DA:64,0
DA:65,0
DA:66,0
DA:68,0
DA:70,1427950
DA:74,1427950
DA:81,1427950
DA:82,1055260
DA:84,1427950
DA:87,5711820
DA:88,1427950
DA:92,1427950
DA:95,1055260
DA:96,1055260
DA:97,1055260
DA:100,1427950
DA:104,0
DA:111,0
DA:112,0
DA:114,0
DA:117,0
DA:118,0
DA:120,0
DA:122,0
DA:123,0
DA:124,0
DA:125,0
DA:129,0
DA:132,0
DA:133,0
DA:134,0
DA:135,0
DA:136,0
DA:139,0
DA:143,0
DA:150,0
DA:151,0
DA:153,0
DA:154,0
DA:155,0
DA:156,0
DA:159,0
DA:162,0
DA:163,0
DA:164,0
DA:165,0
DA:168,0
DA:171,0
DA:172,0
DA:173,0
DA:174,0
DA:175,0
DA:176,0
DA:178,0
LF:81
LH:38
end_of_record
TN:
SF:/home/runner/work/raccoon/raccoon/src/materials/large_deformation_models/LargeDeformationElasticityModel.C
FN:9,_ZN31LargeDeformationElasticityModel11validParamsEv
FN:20,_ZN31LargeDeformationElasticityModelC2ERK15InputParameters
FN:29,_ZN31LargeDeformationElasticityModel5setQpEj
FN:37,_ZN31LargeDeformationElasticityModel18setPlasticityModelEP31LargeDeformationPlasticityModel
FN:45,_ZN31LargeDeformationElasticityModel24initQpStatefulPropertiesEv
FN:51,_ZN31LargeDeformationElasticityModel11updateStateERK18RankTwoTensorTemplIN11MetaPhysicL10DualNumberIdNS1_28SemiDynamicSparseNumberArrayIdmNS1_8NWrapperILm53EEEEELb1EEEERS8_
FN:62,_ZN31LargeDeformationElasticityModel19computeCauchyStressERK18RankTwoTensorTemplIN11MetaPhysicL10DualNumberIdNS1_28SemiDynamicSparseNumberArrayIdmNS1_8NWrapperILm53EEEEELb1EEEE
FNDA:42,_ZN31LargeDeformationElasticityModelC2ERK15InputParameters
FNDA:366,_ZN31LargeDeformationElasticityModel11validParamsEv
FNDA:291168,_ZN31LargeDeformationElasticityModel19computeCauchyStressERK18RankTwoTensorTemplIN11MetaPhysicL10DualNumberIdNS1_28SemiDynamicSparseNumberArrayIdmNS1_8NWrapperILm53EEEEELb1EEEE
FNDA:291168,_ZN31LargeDeformationElasticityModel11updateStateERK18RankTwoTensorTemplIN11MetaPhysicL10DualNumberIdNS1_28SemiDynamicSparseNumberArrayIdmNS1_8NWrapperILm53EEEEELb1EEEERS8_
FNDA:36,_ZN31LargeDeformationElasticityModel18setPlasticityModelEP31LargeDeformationPlasticityModel
FNDA:12368,_ZN31LargeDeformationElasticityModel24initQpStatefulPropertiesEv
FNDA:291168,_ZN31LargeDeformationElasticityModel5setQpEj
FNF:7
FNH:7
DA:9,366
DA:11,366
DA:12,366
DA:14,366
DA:15,366
DA:17,366
DA:20,42
DA:24,42
DA:26,42
DA:29,291168
DA:31,291168
DA:32,291168
DA:33,238560
DA:34,291168
DA:37,36
DA:40,36
DA:41,36
DA:42,36
DA:45,12368
DA:47,12368
DA:48,12368
DA:51,291168
DA:53,291168
DA:55,291168
DA:56,238560
DA:58,52608
DA:59,291168
DA:62,291168
DA:64,291168
LF:29
LH:29
end_of_record
TN:
SF:/home/runner/work/raccoon/raccoon/src/materials/large_deformation_models/LargeDeformationJ2Plasticity.C
FN:11,_ZN28LargeDeformationJ2Plasticity11validParamsEv
FN:19,_ZN28LargeDeformationJ2PlasticityC2ERK15InputParameters
FN:25,_ZN28LargeDeformationJ2Plasticity11updateStateER18RankTwoTensorTemplIN11MetaPhysicL10DualNumberIdNS1_28SemiDynamicSparseNumberArrayIdmNS1_8NWrapperILm53EEEEELb1EEEES9_
FN:60,_ZN28LargeDeformationJ2Plasticity24computeReferenceResidualERKN11MetaPhysicL10DualNumberIdNS0_28SemiDynamicSparseNumberArrayIdmNS0_8NWrapperILm53EEEEELb1EEES8_
FN:70,_ZN28LargeDeformationJ2Plasticity15computeResidualERKN11MetaPhysicL10DualNumberIdNS0_28SemiDynamicSparseNumberArrayIdmNS0_8NWrapperILm53EEEEELb1EEES8_
FN:81,_ZN28LargeDeformationJ2Plasticity17computeDerivativeERKN11MetaPhysicL10DualNumberIdNS0_28SemiDynamicSparseNumberArrayIdmNS0_8NWrapperILm53EEEEELb1EEES8_
FNDA:36,_ZN28LargeDeformationJ2PlasticityC2ERK15InputParameters
FNDA:358,_ZN28LargeDeformationJ2Plasticity11validParamsEv
FNDA:238560,_ZN28LargeDeformationJ2Plasticity11updateStateER18RankTwoTensorTemplIN11MetaPhysicL10DualNumberIdNS1_28SemiDynamicSparseNumberArrayIdmNS1_8NWrapperILm53EEEEELb1EEEES9_
FNDA:450262,_ZN28LargeDeformationJ2Plasticity15computeResidualERKN11MetaPhysicL10DualNumberIdNS0_28SemiDynamicSparseNumberArrayIdmNS0_8NWrapperILm53EEEEELb1EEES8_
FNDA:219070,_ZN28LargeDeformationJ2Plasticity24computeReferenceResidualERKN11MetaPhysicL10DualNumberIdNS0_28SemiDynamicSparseNumberArrayIdmNS0_8NWrapperILm53EEEEELb1EEES8_
FNDA:213470,_ZN28LargeDeformationJ2Plasticity17computeDerivativeERKN11MetaPhysicL10DualNumberIdNS0_28SemiDynamicSparseNumberArrayIdmNS0_8NWrapperILm53EEEEELb1EEES8_
FNF:6
FNH:6
DA:11,358
DA:13,358
DA:14,358
DA:16,358
DA:19,36
DA:20,36
DA:22,36
DA:25,238560
DA:28,238560
DA:29,238560
DA:30,238560
DA:34,238560
DA:35,238560
DA:36,238560
DA:37,32784
DA:38,477120
DA:39,477120
DA:42,238560
DA:43,238560
DA:44,103316
DA:45,477120
DA:46,477120
DA:47,238560
DA:50,238560
DA:51,238560
DA:52,238560
DA:55,477120
DA:56,477120
DA:57,238560
DA:60,219070
DA:64,219070
DA:65,657210
DA:66,438140
DA:70,450262
DA:73,450262
DA:74,1350790
DA:75,900524
DA:76,900524
DA:77,1350790
DA:81,213470
DA:84,426940
DA:85,213470
DA:86,426940
DA:87,426940
LF:44
LH:44
end_of_record
TN:
SF:/home/runner/work/raccoon/raccoon/src/materials/large_deformation_models/LargeDeformationJ2PowerLawCreep.C
FN:11,_ZN31LargeDeformationJ2PowerLawCreep11validParamsEv
FN:24,_ZN31LargeDeformationJ2PowerLawCreepC2ERK15InputParameters
FN:32,_ZN31LargeDeformationJ2PowerLawCreep15computeResidualERKN11MetaPhysicL10DualNumberIdNS0_28SemiDynamicSparseNumberArrayIdmNS0_8NWrapperILm53EEEEELb1EEES8_
FN:47,_ZN31LargeDeformationJ2PowerLawCreep17computeDerivativeERKN11MetaPhysicL10DualNumberIdNS0_28SemiDynamicSparseNumberArrayIdmNS0_8NWrapperILm53EEEEELb1EEES8_
FNDA:6,_ZN31LargeDeformationJ2PowerLawCreepC2ERK15InputParameters
FNDA:5600,_ZN31LargeDeformationJ2PowerLawCreep17computeDerivativeERKN11MetaPhysicL10DualNumberIdNS0_28SemiDynamicSparseNumberArrayIdmNS0_8NWrapperILm53EEEEELb1EEES8_
FNDA:163,_ZN31LargeDeformationJ2PowerLawCreep11validParamsEv
FNDA:7368,_ZN31LargeDeformationJ2PowerLawCreep15computeResidualERKN11MetaPhysicL10DualNumberIdNS0_28SemiDynamicSparseNumberArrayIdmNS0_8NWrapperILm53EEEEELb1EEES8_
FNF:4
FNH:4
DA:11,163
DA:13,163
DA:14,163
DA:17,326
DA:19,326
DA:21,163
DA:24,6
DA:26,18
DA:27,18
DA:29,6
DA:32,7368
DA:37,22104
DA:38,14736
DA:40,14736
DA:41,14736
DA:42,14736
DA:43,14736
DA:47,5600
DA:52,16800
DA:53,11200
DA:55,5600
DA:56,5600
DA:58,11200
DA:59,11200
DA:61,11200
DA:62,11200
DA:64,16800
DA:65,5600
DA:66,5600
DA:67,5600
DA:68,5600
LF:31
LH:31
end_of_record
TN:
SF:/home/runner/work/raccoon/raccoon/src/materials/large_deformation_models/LargeDeformationNewtonianViscosity.C
FN:10,_ZN34LargeDeformationNewtonianViscosity11validParamsEv
FN:20,_ZN34LargeDeformationNewtonianViscosityC2ERK15InputParameters
FN:29,_ZN34LargeDeformationNewtonianViscosity19computeCauchyStressERK18RankTwoTensorTemplIN11MetaPhysicL10DualNumberIdNS1_28SemiDynamicSparseNumberArrayIdmNS1_8NWrapperILm53EEEEELb1EEEERKS0_IdE
FNDA:159,_ZN34LargeDeformationNewtonianViscosity11validParamsEv
FNDA:3,_ZN34LargeDeformationNewtonianViscosityC2ERK15InputParameters
FNDA:62224,_ZN34LargeDeformationNewtonianViscosity19computeCauchyStressERK18RankTwoTensorTemplIN11MetaPhysicL10DualNumberIdNS1_28SemiDynamicSparseNumberArrayIdmNS1_8NWrapperILm53EEEEELb1EEEERKS0_IdE
FNF:3
FNH:3
DA:10,159
DA:12,159
DA:13,159
DA:14,318
DA:15,318
DA:17,159
DA:20,3
DA:21,3
DA:23,6
DA:24,9
DA:26,3
DA:29,62224
DA:32,62224
DA:33,62224
DA:34,62224
DA:35,124448
LF:16
LH:16
end_of_record
TN:
SF:/home/runner/work/raccoon/raccoon/src/materials/large_deformation_models/LargeDeformationPlasticityModel.C
FN:9,_ZN31LargeDeformationPlasticityModel11validParamsEv
FN:23,_ZN31LargeDeformationPlasticityModelC2ERK15InputParameters
FN:38,_ZN31LargeDeformationPlasticityModel12initialSetupEv
FN:48,_ZN31LargeDeformationPlasticityModel5setQpEj
FN:55,_ZN31LargeDeformationPlasticityModel18setElasticityModelEP31LargeDeformationElasticityModel
FN:62,_ZN31LargeDeformationPlasticityModel24initQpStatefulPropertiesEv
FNDA:36,_ZN31LargeDeformationPlasticityModel12initialSetupEv
FNDA:36,_ZN31LargeDeformationPlasticityModel18setElasticityModelEP31LargeDeformationElasticityModel
FNDA:358,_ZN31LargeDeformationPlasticityModel11validParamsEv
FNDA:12368,_ZN31LargeDeformationPlasticityModel24initQpStatefulPropertiesEv
FNDA:36,_ZN31LargeDeformationPlasticityModelC2ERK15InputParameters
FNDA:238560,_ZN31LargeDeformationPlasticityModel5setQpEj
FNF:6
FNH:6
DA:9,358
DA:11,358
DA:12,358
DA:13,358
DA:15,716
DA:17,358
DA:18,358
DA:20,358
DA:23,36
DA:27,72
DA:29,72
DA:30,72
DA:31,72
DA:32,72
DA:33,252
DA:35,36
DA:38,36
DA:40,36
DA:41,36
DA:42,0
DA:43,0
DA:44,0
DA:45,36
DA:48,238560
DA:50,238560
DA:51,238560
DA:52,238560
DA:55,36
DA:58,36
DA:59,36
DA:62,12368
DA:64,12368
DA:65,12368
DA:66,12368
LF:34
LH:31
end_of_record
TN:
SF:/home/runner/work/raccoon/raccoon/src/materials/large_deformation_models/LargeDeformationViscoelasticityModel.C
FN:8,_ZN36LargeDeformationViscoelasticityModel11validParamsEv
FN:19,_ZN36LargeDeformationViscoelasticityModelC2ERK15InputParameters
FN:26,_ZN36LargeDeformationViscoelasticityModel5setQpEj
FNDA:159,_ZN36LargeDeformationViscoelasticityModel11validParamsEv
FNDA:3,_ZN36LargeDeformationViscoelasticityModelC2ERK15InputParameters
FNDA:62224,_ZN36LargeDeformationViscoelasticityModel5setQpEj
FNF:3
FNH:3
DA:8,159
DA:10,159
DA:11,159
DA:13,159
DA:14,159
DA:16,159
DA:19,3
DA:20,3
DA:21,3
DA:23,3
DA:26,62224
DA:28,62224
DA:29,62224
LF:13
LH:13
end_of_record
TN:
SF:/home/runner/work/raccoon/raccoon/src/materials/pff_constitutive_functions/CrackGeometricFunction.C
FN:10,_ZN22CrackGeometricFunction11validParamsEv
FN:43,_ZN22CrackGeometricFunctionC2ERK15InputParameters
FN:58,_ZN22CrackGeometricFunction28computeNormalizationConstantEv
FN:97,_ZN22CrackGeometricFunction22normalizationIntegrandERKN11MetaPhysicL10DualNumberIdNS0_28SemiDynamicSparseNumberArrayIdmNS0_8NWrapperILm53EEEEELb1EEE
FN:104,_ZN22CrackGeometricFunction19computeQpPropertiesEv
FNDA:135,_ZN22CrackGeometricFunctionC2ERK15InputParameters
FNDA:335,_ZN22CrackGeometricFunction11validParamsEv
FNDA:10795200,_ZN22CrackGeometricFunction22normalizationIntegrandERKN11MetaPhysicL10DualNumberIdNS0_28SemiDynamicSparseNumberArrayIdmNS0_8NWrapperILm53EEEEELb1EEE
FNDA:135,_ZN22CrackGeometricFunction28computeNormalizationConstantEv
FNDA:4378870,_ZN22CrackGeometricFunction19computeQpPropertiesEv
FNF:5
FNH:5
DA:10,335
DA:12,335
DA:13,335
DA:18,335
DA:19,670
DA:21,335
DA:22,335
DA:24,670
DA:29,670
DA:34,670
DA:35,670
DA:36,670
DA:37,670
DA:40,335
DA:43,135
DA:45,135
DA:46,270
DA:47,270
DA:48,135
DA:49,810
DA:52,135
DA:53,135
DA:54,135
DA:55,135
DA:58,135
DA:62,135
DA:63,135
DA:64,135
DA:66,2159180
DA:68,2159040
DA:71,2159040
DA:72,2159040
DA:73,2159040
DA:75,2159040
DA:77,2159040
DA:78,2159040
DA:80,2159040
DA:86,1079450
DA:89,2159040
DA:90,0
DA:93,135
DA:97,10795200
DA:99,10795200
DA:100,10795200
DA:104,4378870
DA:106,4378870
DA:107,4378870
DA:109,4378870
DA:110,4378870
LF:49
LH:48
end_of_record
TN:
SF:/home/runner/work/raccoon/raccoon/src/materials/pff_constitutive_functions/CustomParsedFunctionBase.C
FN:8,_ZN24CustomParsedFunctionBase11validParamsEv
FN:24,_ZN24CustomParsedFunctionBaseC2ERK15InputParameters
FNDA:285,_ZN24CustomParsedFunctionBaseC2ERK15InputParameters
FNDA:1000,_ZN24CustomParsedFunctionBase11validParamsEv
FNF:2
FNH:2
DA:8,1000
DA:10,1000
DA:11,2000
DA:12,1000
DA:13,1000
DA:15,1000
DA:16,1000
DA:17,1000
DA:19,1000
DA:21,1000
DA:24,285
DA:29,2280
DA:32,285
DA:36,285
DA:37,0
DA:38,285
LF:16
LH:15
end_of_record
TN:
SF:/home/runner/work/raccoon/raccoon/src/materials/pff_constitutive_functions/DegradationFunctionBase.C
FN:8,_ZN23DegradationFunctionBase11validParamsEv
FN:20,_ZN23DegradationFunctionBaseC2ERK15InputParameters
FNDA:150,_ZN23DegradationFunctionBaseC2ERK15InputParameters
FNDA:665,_ZN23DegradationFunctionBase11validParamsEv
FNF:2
FNH:2
DA:8,665
DA:10,665
DA:12,665
DA:13,1330
DA:15,665
DA:16,665
DA:17,665
DA:20,150
DA:21,150
DA:23,150
LF:10
LH:10
end_of_record
TN:
SF:/home/runner/work/raccoon/raccoon/src/materials/pff_constitutive_functions/NoDegradation.C
FN:10,_ZN13NoDegradation11validParamsEv
FN:20,_ZN13NoDegradationC2ERK15InputParameters
FNDA:175,_ZN13NoDegradation11validParamsEv
FNDA:15,_ZN13NoDegradationC2ERK15InputParameters
FNF:2
FNH:2
DA:10,175
DA:12,175
DA:13,175
DA:15,175
DA:17,175
DA:20,15
DA:21,15
DA:23,15
LF:8
LH:8
end_of_record
TN:
SF:/home/runner/work/raccoon/raccoon/src/materials/pff_constitutive_functions/PowerDegradationFunction.C
FN:10,_ZN24PowerDegradationFunction11validParamsEv
FN:23,_ZN24PowerDegradationFunctionC2ERK15InputParameters
FNDA:24,_ZN24PowerDegradationFunctionC2ERK15InputParameters
FNDA:187,_ZN24PowerDegradationFunction11validParamsEv
FNF:2
FNH:2
DA:10,187
DA:12,187
DA:13,187
DA:16,187
DA:18,561
DA:19,374
DA:20,187
DA:23,24
DA:24,24
DA:26,24
LF:10
LH:10
end_of_record
TN:
SF:/home/runner/work/raccoon/raccoon/src/materials/pff_constitutive_functions/RationalDegradationFunction.C
FN:10,_ZN27RationalDegradationFunction11validParamsEv
FN:31,_ZN27RationalDegradationFunctionC2ERK15InputParameters
FNDA:111,_ZN27RationalDegradationFunctionC2ERK15InputParameters
FNDA:303,_ZN27RationalDegradationFunction11validParamsEv
FNF:2
FNH:2
DA:10,303
DA:12,303
DA:13,303
DA:20,303
DA:23,1818
DA:24,303
DA:26,1818
DA:27,606
DA:28,303
DA:31,111
DA:32,111
DA:34,111
LF:12
LH:12
end_of_record
TN:
SF:/home/runner/work/raccoon/raccoon/src/materials/small_deformation_models/ComputeSmallDeformationStress.C
FN:12,_ZN29ComputeSmallDeformationStress11validParamsEv
FN:27,_ZN29ComputeSmallDeformationStressC2ERK15InputParameters
FN:38,_ZN29ComputeSmallDeformationStress12initialSetupEv
FN:56,_ZN29ComputeSmallDeformationStress24initQpStatefulPropertiesEv
FN:62,_ZN29ComputeSmallDeformationStress19computeQpPropertiesEv
FNDA:42,_ZN29ComputeSmallDeformationStressC2ERK15InputParameters
FNDA:3292320,_ZN29ComputeSmallDeformationStress19computeQpPropertiesEv
FNDA:211,_ZN29ComputeSmallDeformationStress11validParamsEv
FNDA:11508,_ZN29ComputeSmallDeformationStress24initQpStatefulPropertiesEv
FNDA:42,_ZN29ComputeSmallDeformationStress12initialSetupEv
FNF:5
FNH:5
DA:12,211
DA:14,211
DA:15,211
DA:16,211
DA:19,422
DA:21,422
DA:23,211
DA:24,211
DA:27,42
DA:30,84
DA:31,126
DA:33,84
DA:34,0
DA:35,42
DA:38,42
DA:40,42
DA:41,42
DA:42,42
DA:43,0
DA:44,0
DA:47,42
DA:48,42
DA:49,48
DA:51,42
DA:52,6
DA:53,42
DA:56,11508
DA:58,11508
DA:59,11508
DA:62,3292320
DA:64,3292320
DA:65,3292320
DA:66,3292320
LF:33
LH:30
end_of_record
TN:
SF:/home/runner/work/raccoon/raccoon/src/materials/small_deformation_models/SmallDeformationElasticityModel.C
FN:9,_ZN31SmallDeformationElasticityModel11validParamsEv
FN:20,_ZN31SmallDeformationElasticityModelC2ERK15InputParameters
FN:29,_ZN31SmallDeformationElasticityModel5setQpEj
FN:37,_ZN31SmallDeformationElasticityModel18setPlasticityModelEP31SmallDeformationPlasticityModel
FN:45,_ZN31SmallDeformationElasticityModel24initQpStatefulPropertiesEv
FN:51,_ZN31SmallDeformationElasticityModel11updateStateERK18RankTwoTensorTemplIN11MetaPhysicL10DualNumberIdNS1_28SemiDynamicSparseNumberArrayIdmNS1_8NWrapperILm53EEEEELb1EEEERS8_
FNDA:3292320,_ZN31SmallDeformationElasticityModel5setQpEj
FNDA:11508,_ZN31SmallDeformationElasticityModel24initQpStatefulPropertiesEv
FNDA:3292320,_ZN31SmallDeformationElasticityModel11updateStateERK18RankTwoTensorTemplIN11MetaPhysicL10DualNumberIdNS1_28SemiDynamicSparseNumberArrayIdmNS1_8NWrapperILm53EEEEELb1EEEERS8_
FNDA:211,_ZN31SmallDeformationElasticityModel11validParamsEv
FNDA:42,_ZN31SmallDeformationElasticityModelC2ERK15InputParameters
FNDA:6,_ZN31SmallDeformationElasticityModel18setPlasticityModelEP31SmallDeformationPlasticityModel
FNF:6
FNH:6
DA:9,211
DA:11,211
DA:12,211
DA:14,211
DA:15,211
DA:17,211
DA:20,42
DA:24,42
DA:26,42
DA:29,3292320
DA:31,3292320
DA:32,3292320
DA:33,139608
DA:34,3292320
DA:37,6
DA:40,6
DA:41,6
DA:42,6
DA:45,11508
DA:47,11508
DA:48,11508
DA:51,3292320
DA:54,3292320
DA:56,3292320
DA:57,139608
DA:59,3152720
DA:60,3292320
LF:27
LH:27
end_of_record
TN:
SF:/home/runner/work/raccoon/raccoon/src/materials/small_deformation_models/SmallDeformationIsotropicElasticity.C
FN:11,_ZN35SmallDeformationIsotropicElasticity11validParamsEv
FN:31,_ZN35SmallDeformationIsotropicElasticityC2ERK15InputParameters
FN:56,_ZN35SmallDeformationIsotropicElasticity13computeStressERK18RankTwoTensorTemplIN11MetaPhysicL10DualNumberIdNS1_28SemiDynamicSparseNumberArrayIdmNS1_8NWrapperILm53EEEEELb1EEEE
FN:73,_ZN35SmallDeformationIsotropicElasticity28computeStressNoDecompositionERK18RankTwoTensorTemplIN11MetaPhysicL10DualNumberIdNS1_28SemiDynamicSparseNumberArrayIdmNS1_8NWrapperILm53EEEEELb1EEEE
FN:87,_ZN35SmallDeformationIsotropicElasticity34computeStressSpectralDecompositionERK18RankTwoTensorTemplIN11MetaPhysicL10DualNumberIdNS1_28SemiDynamicSparseNumberArrayIdmNS1_8NWrapperILm53EEEEELb1EEEE
FN:117,_ZN35SmallDeformationIsotropicElasticity32computeStressVolDevDecompositionERK18RankTwoTensorTemplIN11MetaPhysicL10DualNumberIdNS1_28SemiDynamicSparseNumberArrayIdmNS1_8NWrapperILm53EEEEELb1EEEE
FNDA:211,_ZN35SmallDeformationIsotropicElasticity11validParamsEv
FNDA:1292210,_ZN35SmallDeformationIsotropicElasticity28computeStressNoDecompositionERK18RankTwoTensorTemplIN11MetaPhysicL10DualNumberIdNS1_28SemiDynamicSparseNumberArrayIdmNS1_8NWrapperILm53EEEEELb1EEEE
FNDA:3572730,_ZN35SmallDeformationIsotropicElasticity13computeStressERK18RankTwoTensorTemplIN11MetaPhysicL10DualNumberIdNS1_28SemiDynamicSparseNumberArrayIdmNS1_8NWrapperILm53EEEEELb1EEEE
FNDA:1828660,_ZN35SmallDeformationIsotropicElasticity34computeStressSpectralDecompositionERK18RankTwoTensorTemplIN11MetaPhysicL10DualNumberIdNS1_28SemiDynamicSparseNumberArrayIdmNS1_8NWrapperILm53EEEEELb1EEEE
FNDA:451864,_ZN35SmallDeformationIsotropicElasticity32computeStressVolDevDecompositionERK18RankTwoTensorTemplIN11MetaPhysicL10DualNumberIdNS1_28SemiDynamicSparseNumberArrayIdmNS1_8NWrapperILm53EEEEELb1EEEE
FNDA:42,_ZN35SmallDeformationIsotropicElasticityC2ERK15InputParameters
FNF:6
FNH:6
DA:11,211
DA:13,211
DA:14,211
DA:16,422
DA:17,422
DA:19,422
DA:20,422
DA:24,422
DA:25,422
DA:26,422
DA:28,211
DA:31,42
DA:32,42
DA:35,84
DA:36,84
DA:38,84
DA:42,42
DA:43,42
DA:44,126
DA:48,42
DA:49,126
DA:51,546
DA:53,42
DA:56,3572730
DA:58,3572730
DA:60,3572730
DA:61,1292210
DA:62,2280520
DA:63,1828660
DA:64,451864
DA:65,451864
DA:67,0
DA:69,3572730
DA:73,1292210
DA:75,1292210
DA:76,5168840
DA:77,1292210
DA:79,2584420
DA:80,2584420
DA:81,2584420
DA:83,1292210
DA:87,1828660
DA:90,3657320
DA:91,1828660
DA:92,1828660
DA:93,1828660
DA:96,1828660
DA:99,7314640
DA:100,5485980
DA:101,1828660
DA:102,1828660
DA:106,3657320
DA:107,3657320
DA:108,3657320
DA:109,1828660
DA:110,3657320
DA:111,3657320
DA:113,1828660
DA:117,451864
DA:120,451864
DA:123,451864
DA:124,451864
DA:126,451864
DA:129,1807460
DA:130,903728
DA:131,451864
DA:132,451864
DA:136,903728
DA:137,903728
DA:138,451864
DA:139,903728
DA:140,903728
DA:142,451864
LF:73
LH:72
end_of_record
TN:
SF:/home/runner/work/raccoon/raccoon/src/materials/small_deformation_models/SmallDeformationJ2Plasticity.C
FN:10,_ZN28SmallDeformationJ2Plasticity11validParamsEv
FN:18,_ZN28SmallDeformationJ2PlasticityC2ERK15InputParameters
FN:24,_ZN28SmallDeformationJ2Plasticity11updateStateER18RankTwoTensorTemplIN11MetaPhysicL10DualNumberIdNS1_28SemiDynamicSparseNumberArrayIdmNS1_8NWrapperILm53EEEEELb1EEEES9_
FN:55,_ZN28SmallDeformationJ2Plasticity24computeReferenceResidualERKN11MetaPhysicL10DualNumberIdNS0_28SemiDynamicSparseNumberArrayIdmNS0_8NWrapperILm53EEEEELb1EEES8_
FN:64,_ZN28SmallDeformationJ2Plasticity15computeResidualERKN11MetaPhysicL10DualNumberIdNS0_28SemiDynamicSparseNumberArrayIdmNS0_8NWrapperILm53EEEEELb1EEES8_
FN:73,_ZN28SmallDeformationJ2Plasticity17computeDerivativeERKN11MetaPhysicL10DualNumberIdNS0_28SemiDynamicSparseNumberArrayIdmNS0_8NWrapperILm53EEEEELb1EEES8_
FNDA:398,_ZN28SmallDeformationJ2Plasticity24computeReferenceResidualERKN11MetaPhysicL10DualNumberIdNS0_28SemiDynamicSparseNumberArrayIdmNS0_8NWrapperILm53EEEEELb1EEES8_
FNDA:6,_ZN28SmallDeformationJ2PlasticityC2ERK15InputParameters
FNDA:163,_ZN28SmallDeformationJ2Plasticity11validParamsEv
FNDA:139608,_ZN28SmallDeformationJ2Plasticity11updateStateER18RankTwoTensorTemplIN11MetaPhysicL10DualNumberIdNS1_28SemiDynamicSparseNumberArrayIdmNS1_8NWrapperILm53EEEEELb1EEEES9_
FNDA:140006,_ZN28SmallDeformationJ2Plasticity15computeResidualERKN11MetaPhysicL10DualNumberIdNS0_28SemiDynamicSparseNumberArrayIdmNS0_8NWrapperILm53EEEEELb1EEES8_
FNDA:398,_ZN28SmallDeformationJ2Plasticity17computeDerivativeERKN11MetaPhysicL10DualNumberIdNS0_28SemiDynamicSparseNumberArrayIdmNS0_8NWrapperILm53EEEEELb1EEES8_
FNF:6
FNH:6
DA:10,163
DA:12,163
DA:13,163
DA:15,163
DA:18,6
DA:19,6
DA:21,6
DA:24,139608
DA:28,139608
DA:29,139608
DA:30,139608
DA:34,139608
DA:35,139608
DA:36,139608
DA:37,49268
DA:38,279216
DA:39,279216
DA:42,139608
DA:43,139608
DA:44,134
DA:45,279216
DA:46,139608
DA:49,279216
DA:50,139608
DA:51,139608
DA:52,139608
DA:55,398
DA:59,398
DA:60,1194
DA:64,140006
DA:67,140006
DA:68,420018
DA:69,420018
DA:73,398
DA:76,398
DA:77,796
LF:36
LH:36
end_of_record
TN:
SF:/home/runner/work/raccoon/raccoon/src/materials/small_deformation_models/SmallDeformationPlasticityModel.C
FN:9,_ZN31SmallDeformationPlasticityModel11validParamsEv
FN:23,_ZN31SmallDeformationPlasticityModelC2ERK15InputParameters
FN:37,_ZN31SmallDeformationPlasticityModel12initialSetupEv
FN:47,_ZN31SmallDeformationPlasticityModel5setQpEj
FN:54,_ZN31SmallDeformationPlasticityModel18setElasticityModelEP31SmallDeformationElasticityModel
FN:61,_ZN31SmallDeformationPlasticityModel24initQpStatefulPropertiesEv
FNDA:139608,_ZN31SmallDeformationPlasticityModel5setQpEj
FNDA:11508,_ZN31SmallDeformationPlasticityModel24initQpStatefulPropertiesEv
FNDA:6,_ZN31SmallDeformationPlasticityModel12initialSetupEv
FNDA:6,_ZN31SmallDeformationPlasticityModelC2ERK15InputParameters
FNDA:163,_ZN31SmallDeformationPlasticityModel11validParamsEv
FNDA:6,_ZN31SmallDeformationPlasticityModel18setElasticityModelEP31SmallDeformationElasticityModel
FNF:6
FNH:6
DA:9,163
DA:11,163
DA:12,163
DA:13,163
DA:15,326
DA:17,163
DA:18,163
DA:20,163
DA:23,6
DA:27,12
DA:29,12
DA:30,12
DA:31,12
DA:32,36
DA:34,6
DA:37,6
DA:39,6
DA:40,6
DA:41,0
DA:42,0
DA:43,0
DA:44,6
DA:47,139608
DA:49,139608
DA:50,139608
DA:51,139608
DA:54,6
DA:57,6
DA:58,6
DA:61,11508
DA:63,11508
DA:64,11508
DA:65,11508
LF:33
LH:30
end_of_record
TN:
SF:/home/runner/work/raccoon/raccoon/src/postprocessors/ExternalWork.C
FN:10,_ZN12ExternalWork11validParamsEv
FN:25,_ZN12ExternalWorkC2ERK15InputParameters
FN:42,_ZN12ExternalWork10initializeEv
FN:48,_ZN12ExternalWork7executeEv
FN:54,_ZN12ExternalWork14computeQpValueEv
FN:63,_ZN12ExternalWork8getValueEv
FN:69,_ZN12ExternalWork8finalizeEv
FN:75,_ZN12ExternalWork10threadJoinERK10UserObject
FNDA:0,_ZN12ExternalWork10threadJoinERK10UserObject
FNDA:800,_ZN12ExternalWork7executeEv
FNDA:1,_ZN12ExternalWorkC2ERK15InputParameters
FNDA:157,_ZN12ExternalWork11validParamsEv
FNDA:800,_ZN12ExternalWork14computeQpValueEv
FNDA:200,_ZN12ExternalWork8finalizeEv
FNDA:200,_ZN12ExternalWork10initializeEv
FNDA:200,_ZN12ExternalWork8getValueEv
FNF:8
FNH:7
DA:10,157
DA:12,157
DA:13,157
DA:17,314
DA:19,314
DA:22,157
DA:25,1
DA:28,1
DA:30,1
DA:32,5
DA:34,1
DA:35,0
DA:37,1
DA:38,0
DA:39,1
DA:42,200
DA:44,200
DA:45,200
DA:48,800
DA:50,800
DA:51,800
DA:54,800
DA:56,800
DA:57,800
DA:59,800
DA:63,200
DA:65,200
DA:69,200
DA:71,200
DA:72,200
DA:75,0
DA:78,0
DA:79,0
LF:33
LH:28
end_of_record
TN:
SF:/home/runner/work/raccoon/raccoon/src/postprocessors/KineticEnergy.C
FN:10,_ZN13KineticEnergy11validParamsEv
FN:25,_ZN13KineticEnergyC2ERK15InputParameters
FN:37,_ZN13KineticEnergy17computeQpIntegralEv
FNDA:0,_ZN13KineticEnergyC2ERK15InputParameters
FNDA:0,_ZN13KineticEnergy17computeQpIntegralEv
FNDA:155,_ZN13KineticEnergy11validParamsEv
FNF:3
FNH:1
DA:10,155
DA:12,155
DA:13,155
DA:14,155
DA:18,310
DA:20,310
DA:22,155
DA:25,0
DA:28,0
DA:29,0
DA:30,0
DA:32,0
DA:33,0
DA:34,0
DA:37,0
DA:39,0
DA:40,0
LF:17
LH:7
end_of_record
TN:
SF:/home/runner/work/raccoon/raccoon/src/postprocessors/LargeDeformationJIntegral.C
FN:10,_ZN25LargeDeformationJIntegral11validParamsEv
FN:23,_ZN25LargeDeformationJIntegralC2ERK15InputParameters
FN:35,_ZN25LargeDeformationJIntegral17computeQpIntegralEv
FNDA:0,_ZN25LargeDeformationJIntegralC2ERK15InputParameters
FNDA:0,_ZN25LargeDeformationJIntegral17computeQpIntegralEv
FNDA:155,_ZN25LargeDeformationJIntegral11validParamsEv
FNF:3
FNH:1
DA:10,155
DA:12,155
DA:13,155
DA:14,155
DA:17,310
DA:18,310
DA:20,155
DA:23,0
DA:26,0
DA:27,0
DA:29,0
DA:30,0
DA:32,0
DA:35,0
DA:37,0
DA:38,0
DA:39,0
DA:40,0
DA:41,0
LF:19
LH:7
end_of_record
TN:
SF:/home/runner/work/raccoon/raccoon/src/postprocessors/PhaseFieldJIntegral.C
FN:10,_ZN19PhaseFieldJIntegral11validParamsEv
FN:25,_ZN19PhaseFieldJIntegralC2ERK15InputParameters
FN:40,_ZN19PhaseFieldJIntegral17computeQpIntegralEv
FNDA:1,_ZN19PhaseFieldJIntegralC2ERK15InputParameters
FNDA:157,_ZN19PhaseFieldJIntegral11validParamsEv
FNDA:336,_ZN19PhaseFieldJIntegral17computeQpIntegralEv
FNF:3
FNH:3
DA:10,157
DA:12,157
DA:13,157
DA:14,157
DA:15,314
DA:16,314
DA:19,314
DA:22,157
DA:25,1
DA:28,2
DA:29,2
DA:30,1
DA:32,6
DA:35,2
DA:36,1
DA:37,1
DA:40,336
DA:42,336
DA:43,336
DA:44,672
DA:45,336
DA:46,336
LF:22
LH:22
end_of_record
TN:
SF:/home/runner/work/raccoon/raccoon/src/postprocessors/SolutionChangeNorm.C
FN:11,_ZN18SolutionChangeNorm11validParamsEv
FN:21,_ZN18SolutionChangeNormC2ERK15InputParameters
FN:29,_ZN18SolutionChangeNorm8getValueEv
FN:35,_ZN18SolutionChangeNorm17computeQpIntegralEv
FNDA:80000,_ZN18SolutionChangeNorm17computeQpIntegralEv
FNDA:2,_ZN18SolutionChangeNorm8getValueEv
FNDA:1,_ZN18SolutionChangeNormC2ERK15InputParameters
FNDA:157,_ZN18SolutionChangeNorm11validParamsEv
FNF:4
FNH:4
DA:11,157
DA:13,157
DA:14,157
DA:16,314
DA:18,157
DA:21,1
DA:24,2
DA:26,1
DA:29,2
DA:31,2
DA:35,80000
DA:38,160000
DA:39,80000
DA:40,80000
LF:14
LH:14
end_of_record
TN:
SF:/home/runner/work/raccoon/raccoon/src/utils/RaccoonUtils.C
FN:14,_ZN12RaccoonUtils8MacaulayEN11MetaPhysicL10DualNumberIdNS0_28SemiDynamicSparseNumberArrayIdmNS0_8NWrapperILm53EEEEELb1EEEb
FN:22,_ZN12RaccoonUtils8MacaulayERKSt6vectorIN11MetaPhysicL10DualNumberIdNS1_28SemiDynamicSparseNumberArrayIdmNS1_8NWrapperILm53EEEEELb1EEESaIS7_EEb
FN:31,_ZN12RaccoonUtils21spectralDecompositionERK18RankTwoTensorTemplIN11MetaPhysicL10DualNumberIdNS1_28SemiDynamicSparseNumberArrayIdmNS1_8NWrapperILm53EEEEELb1EEEE
FN:43,_ZN12RaccoonUtils3logERK18RankTwoTensorTemplIN11MetaPhysicL10DualNumberIdNS1_28SemiDynamicSparseNumberArrayIdmNS1_8NWrapperILm53EEEEELb1EEEE
FN:55,_ZN12RaccoonUtils3expERK18RankTwoTensorTemplIN11MetaPhysicL10DualNumberIdNS1_28SemiDynamicSparseNumberArrayIdmNS1_8NWrapperILm53EEEEELb1EEEE
FNDA:239608,_ZN12RaccoonUtils3expERK18RankTwoTensorTemplIN11MetaPhysicL10DualNumberIdNS1_28SemiDynamicSparseNumberArrayIdmNS1_8NWrapperILm53EEEEELb1EEEE
FNDA:1828660,_ZN12RaccoonUtils8MacaulayERKSt6vectorIN11MetaPhysicL10DualNumberIdNS1_28SemiDynamicSparseNumberArrayIdmNS1_8NWrapperILm53EEEEELb1EEESaIS7_EEb
FNDA:7766500,_ZN12RaccoonUtils8MacaulayEN11MetaPhysicL10DualNumberIdNS0_28SemiDynamicSparseNumberArrayIdmNS0_8NWrapperILm53EEEEELb1EEEb
FNDA:1828660,_ZN12RaccoonUtils21spectralDecompositionERK18RankTwoTensorTemplIN11MetaPhysicL10DualNumberIdNS1_28SemiDynamicSparseNumberArrayIdmNS1_8NWrapperILm53EEEEELb1EEEE
FNDA:527632,_ZN12RaccoonUtils3logERK18RankTwoTensorTemplIN11MetaPhysicL10DualNumberIdNS1_28SemiDynamicSparseNumberArrayIdmNS1_8NWrapperILm53EEEEELb1EEEE
FNF:5
FNH:5
DA:14,7766500
DA:16,7766500
DA:17,0
DA:18,23299500
DA:22,1828660
DA:24,1828660
DA:25,7314640
DA:26,5485980
DA:27,1828660
DA:31,1828660
DA:33,1828660
DA:34,1828660
DA:35,1828660
DA:37,1828660
DA:38,1828660
DA:39,1828660
DA:43,527632
DA:46,527632
DA:47,527632
DA:48,2110530
DA:49,1582900
DA:50,527632
DA:51,527632
DA:55,239608
DA:58,239608
DA:59,239608
DA:60,958432
DA:61,718824
DA:62,239608
DA:63,239608
LF:30
LH:29
end_of_record
